
kernel:     file format elf32-tradlittlemips


Disassembly of section .text:

80010000 <kern_entry>:
80010000:	01 80 1d 3c 00 00 bd 27 08 40 00 0c 00 00 00 00     ...<...'.@......

80010010 <spin>:
80010010:	08004004 	j	80010010 <spin>
80010014:	00000000 	nop
	...

80010020 <kern_init>:
80010020:	27bdffd8 	addiu	sp,sp,-40
80010024:	afbf0024 	sw	ra,36(sp)
80010028:	afbe0020 	sw	s8,32(sp)
8001002c:	03a0f021 	move	s8,sp
80010030:	3c028036 	lui	v0,0x8036
80010034:	2443229c 	addiu	v1,v0,8860
80010038:	3c028036 	lui	v0,0x8036
8001003c:	2442f9e0 	addiu	v0,v0,-1568
80010040:	00621023 	subu	v0,v1,v0
80010044:	3c038036 	lui	v1,0x8036
80010048:	2464f9e0 	addiu	a0,v1,-1568
8001004c:	00002821 	move	a1,zero
80010050:	00403021 	move	a2,v0
80010054:	0c00877d 	jal	80021df4 <memset>
80010058:	00000000 	nop
8001005c:	0c00466c 	jal	800119b0 <cons_init>
80010060:	00000000 	nop
80010064:	3c028002 	lui	v0,0x8002
80010068:	244220b0 	addiu	v0,v0,8368
8001006c:	afc20018 	sw	v0,24(s8)
80010070:	3c028002 	lui	v0,0x8002
80010074:	244420cc 	addiu	a0,v0,8396
80010078:	8fc50018 	lw	a1,24(s8)
8001007c:	0c00413e 	jal	800104f8 <cprintf>
80010080:	00000000 	nop
80010084:	0c0043a2 	jal	80010e88 <print_kerninfo>
80010088:	00000000 	nop
8001008c:	0c004071 	jal	800101c4 <grade_backtrace>
80010090:	00000000 	nop
80010094:	0c004722 	jal	80011c88 <pic_init>
80010098:	00000000 	nop
8001009c:	0c00474b 	jal	80011d2c <idt_init>
800100a0:	00000000 	nop
800100a4:	0c0055e0 	jal	80015780 <pmm_init>
800100a8:	00000000 	nop
800100ac:	0c00690a 	jal	8001a428 <vmm_init>
800100b0:	00000000 	nop
800100b4:	0c007f33 	jal	8001fccc <sched_init>
800100b8:	00000000 	nop
800100bc:	0c007cbc 	jal	8001f2f0 <proc_init>
800100c0:	00000000 	nop
800100c4:	0c005d21 	jal	80017484 <swap_init>
800100c8:	00000000 	nop
800100cc:	0c004598 	jal	80011660 <clock_init>
800100d0:	00000000 	nop
800100d4:	0c0046c8 	jal	80011b20 <intr_enable>
800100d8:	00000000 	nop
800100dc:	0c007d5a 	jal	8001f568 <cpu_idle>
800100e0:	00000000 	nop

800100e4 <grade_backtrace2>:
800100e4:	27bdffe0 	addiu	sp,sp,-32
800100e8:	afbf001c 	sw	ra,28(sp)
800100ec:	afbe0018 	sw	s8,24(sp)
800100f0:	03a0f021 	move	s8,sp
800100f4:	afc40020 	sw	a0,32(s8)
800100f8:	afc50024 	sw	a1,36(s8)
800100fc:	afc60028 	sw	a2,40(s8)
80010100:	afc7002c 	sw	a3,44(s8)
80010104:	00002021 	move	a0,zero
80010108:	00002821 	move	a1,zero
8001010c:	00003021 	move	a2,zero
80010110:	0c004531 	jal	800114c4 <mon_backtrace>
80010114:	00000000 	nop
80010118:	03c0e821 	move	sp,s8
8001011c:	8fbf001c 	lw	ra,28(sp)
80010120:	8fbe0018 	lw	s8,24(sp)
80010124:	27bd0020 	addiu	sp,sp,32
80010128:	03e00008 	jr	ra
8001012c:	00000000 	nop

80010130 <grade_backtrace1>:
80010130:	27bdffe0 	addiu	sp,sp,-32
80010134:	afbf001c 	sw	ra,28(sp)
80010138:	afbe0018 	sw	s8,24(sp)
8001013c:	03a0f021 	move	s8,sp
80010140:	afc40020 	sw	a0,32(s8)
80010144:	afc50024 	sw	a1,36(s8)
80010148:	8fc40020 	lw	a0,32(s8)
8001014c:	27c50020 	addiu	a1,s8,32
80010150:	8fc30024 	lw	v1,36(s8)
80010154:	27c20024 	addiu	v0,s8,36
80010158:	00603021 	move	a2,v1
8001015c:	00403821 	move	a3,v0
80010160:	0c004039 	jal	800100e4 <grade_backtrace2>
80010164:	00000000 	nop
80010168:	03c0e821 	move	sp,s8
8001016c:	8fbf001c 	lw	ra,28(sp)
80010170:	8fbe0018 	lw	s8,24(sp)
80010174:	27bd0020 	addiu	sp,sp,32
80010178:	03e00008 	jr	ra
8001017c:	00000000 	nop

80010180 <grade_backtrace0>:
80010180:	27bdffe0 	addiu	sp,sp,-32
80010184:	afbf001c 	sw	ra,28(sp)
80010188:	afbe0018 	sw	s8,24(sp)
8001018c:	03a0f021 	move	s8,sp
80010190:	afc40020 	sw	a0,32(s8)
80010194:	afc50024 	sw	a1,36(s8)
80010198:	afc60028 	sw	a2,40(s8)
8001019c:	8fc40020 	lw	a0,32(s8)
800101a0:	8fc50028 	lw	a1,40(s8)
800101a4:	0c00404c 	jal	80010130 <grade_backtrace1>
800101a8:	00000000 	nop
800101ac:	03c0e821 	move	sp,s8
800101b0:	8fbf001c 	lw	ra,28(sp)
800101b4:	8fbe0018 	lw	s8,24(sp)
800101b8:	27bd0020 	addiu	sp,sp,32
800101bc:	03e00008 	jr	ra
800101c0:	00000000 	nop

800101c4 <grade_backtrace>:
800101c4:	27bdffe0 	addiu	sp,sp,-32
800101c8:	afbf001c 	sw	ra,28(sp)
800101cc:	afbe0018 	sw	s8,24(sp)
800101d0:	03a0f021 	move	s8,sp
800101d4:	3c028001 	lui	v0,0x8001
800101d8:	24420020 	addiu	v0,v0,32
800101dc:	00002021 	move	a0,zero
800101e0:	00402821 	move	a1,v0
800101e4:	3c06ffff 	lui	a2,0xffff
800101e8:	0c004060 	jal	80010180 <grade_backtrace0>
800101ec:	00000000 	nop
800101f0:	03c0e821 	move	sp,s8
800101f4:	8fbf001c 	lw	ra,28(sp)
800101f8:	8fbe0018 	lw	s8,24(sp)
800101fc:	27bd0020 	addiu	sp,sp,32
80010200:	03e00008 	jr	ra
80010204:	00000000 	nop

80010208 <lab1_print_cur_status>:
80010208:	27bdfff8 	addiu	sp,sp,-8
8001020c:	afbe0004 	sw	s8,4(sp)
80010210:	03a0f021 	move	s8,sp
80010214:	03c0e821 	move	sp,s8
80010218:	8fbe0004 	lw	s8,4(sp)
8001021c:	27bd0008 	addiu	sp,sp,8
80010220:	03e00008 	jr	ra
80010224:	00000000 	nop

80010228 <lab1_switch_to_user>:
80010228:	27bdfff8 	addiu	sp,sp,-8
8001022c:	afbe0004 	sw	s8,4(sp)
80010230:	03a0f021 	move	s8,sp
80010234:	03c0e821 	move	sp,s8
80010238:	8fbe0004 	lw	s8,4(sp)
8001023c:	27bd0008 	addiu	sp,sp,8
80010240:	03e00008 	jr	ra
80010244:	00000000 	nop

80010248 <lab1_switch_to_kernel>:
80010248:	27bdfff8 	addiu	sp,sp,-8
8001024c:	afbe0004 	sw	s8,4(sp)
80010250:	03a0f021 	move	s8,sp
80010254:	03c0e821 	move	sp,s8
80010258:	8fbe0004 	lw	s8,4(sp)
8001025c:	27bd0008 	addiu	sp,sp,8
80010260:	03e00008 	jr	ra
80010264:	00000000 	nop

80010268 <lab1_switch_test>:
80010268:	27bdffe0 	addiu	sp,sp,-32
8001026c:	afbf001c 	sw	ra,28(sp)
80010270:	afbe0018 	sw	s8,24(sp)
80010274:	03a0f021 	move	s8,sp
80010278:	0c004082 	jal	80010208 <lab1_print_cur_status>
8001027c:	00000000 	nop
80010280:	3c028002 	lui	v0,0x8002
80010284:	244420d4 	addiu	a0,v0,8404
80010288:	0c00413e 	jal	800104f8 <cprintf>
8001028c:	00000000 	nop
80010290:	0c00408a 	jal	80010228 <lab1_switch_to_user>
80010294:	00000000 	nop
80010298:	0c004082 	jal	80010208 <lab1_print_cur_status>
8001029c:	00000000 	nop
800102a0:	3c028002 	lui	v0,0x8002
800102a4:	244420f4 	addiu	a0,v0,8436
800102a8:	0c00413e 	jal	800104f8 <cprintf>
800102ac:	00000000 	nop
800102b0:	0c004092 	jal	80010248 <lab1_switch_to_kernel>
800102b4:	00000000 	nop
800102b8:	0c004082 	jal	80010208 <lab1_print_cur_status>
800102bc:	00000000 	nop
800102c0:	03c0e821 	move	sp,s8
800102c4:	8fbf001c 	lw	ra,28(sp)
800102c8:	8fbe0018 	lw	s8,24(sp)
800102cc:	27bd0020 	addiu	sp,sp,32
800102d0:	03e00008 	jr	ra
800102d4:	00000000 	nop
	...

800102e0 <readline>:
800102e0:	27bdffd8 	addiu	sp,sp,-40
800102e4:	afbf0024 	sw	ra,36(sp)
800102e8:	afbe0020 	sw	s8,32(sp)
800102ec:	03a0f021 	move	s8,sp
800102f0:	afc40028 	sw	a0,40(s8)
800102f4:	8fc20028 	lw	v0,40(s8)
800102f8:	10400006 	beqz	v0,80010314 <readline+0x34>
800102fc:	00000000 	nop
80010300:	3c028002 	lui	v0,0x8002
80010304:	24442120 	addiu	a0,v0,8480
80010308:	8fc50028 	lw	a1,40(s8)
8001030c:	0c00413e 	jal	800104f8 <cprintf>
80010310:	00000000 	nop
80010314:	afc00018 	sw	zero,24(s8)
80010318:	0c004185 	jal	80010614 <getchar>
8001031c:	00000000 	nop
80010320:	afc2001c 	sw	v0,28(s8)
80010324:	8fc2001c 	lw	v0,28(s8)
80010328:	04410004 	bgez	v0,8001033c <readline+0x5c>
8001032c:	00000000 	nop
80010330:	00001021 	move	v0,zero
80010334:	0800410b 	j	8001042c <readline+0x14c>
80010338:	00000000 	nop
8001033c:	8fc2001c 	lw	v0,28(s8)
80010340:	28420020 	slti	v0,v0,32
80010344:	14400014 	bnez	v0,80010398 <readline+0xb8>
80010348:	00000000 	nop
8001034c:	8fc20018 	lw	v0,24(s8)
80010350:	284203ff 	slti	v0,v0,1023
80010354:	10400010 	beqz	v0,80010398 <readline+0xb8>
80010358:	00000000 	nop
8001035c:	8fc4001c 	lw	a0,28(s8)
80010360:	0c004155 	jal	80010554 <cputchar>
80010364:	00000000 	nop
80010368:	8fc20018 	lw	v0,24(s8)
8001036c:	24430001 	addiu	v1,v0,1
80010370:	afc30018 	sw	v1,24(s8)
80010374:	8fc3001c 	lw	v1,28(s8)
80010378:	00031e00 	sll	v1,v1,0x18
8001037c:	00031e03 	sra	v1,v1,0x18
80010380:	3c048036 	lui	a0,0x8036
80010384:	2484f9e0 	addiu	a0,a0,-1568
80010388:	00441021 	addu	v0,v0,a0
8001038c:	a0430000 	sb	v1,0(v0)
80010390:	08004109 	j	80010424 <readline+0x144>
80010394:	00000000 	nop
80010398:	8fc3001c 	lw	v1,28(s8)
8001039c:	24020008 	li	v0,8
800103a0:	1462000c 	bne	v1,v0,800103d4 <readline+0xf4>
800103a4:	00000000 	nop
800103a8:	8fc20018 	lw	v0,24(s8)
800103ac:	18400009 	blez	v0,800103d4 <readline+0xf4>
800103b0:	00000000 	nop
800103b4:	8fc4001c 	lw	a0,28(s8)
800103b8:	0c004155 	jal	80010554 <cputchar>
800103bc:	00000000 	nop
800103c0:	8fc20018 	lw	v0,24(s8)
800103c4:	2442ffff 	addiu	v0,v0,-1
800103c8:	afc20018 	sw	v0,24(s8)
800103cc:	08004109 	j	80010424 <readline+0x144>
800103d0:	00000000 	nop
800103d4:	8fc3001c 	lw	v1,28(s8)
800103d8:	2402000a 	li	v0,10
800103dc:	10620005 	beq	v1,v0,800103f4 <readline+0x114>
800103e0:	00000000 	nop
800103e4:	8fc3001c 	lw	v1,28(s8)
800103e8:	2402000d 	li	v0,13
800103ec:	1462000d 	bne	v1,v0,80010424 <readline+0x144>
800103f0:	00000000 	nop
800103f4:	8fc4001c 	lw	a0,28(s8)
800103f8:	0c004155 	jal	80010554 <cputchar>
800103fc:	00000000 	nop
80010400:	3c028036 	lui	v0,0x8036
80010404:	2443f9e0 	addiu	v1,v0,-1568
80010408:	8fc20018 	lw	v0,24(s8)
8001040c:	00621021 	addu	v0,v1,v0
80010410:	a0400000 	sb	zero,0(v0)
80010414:	3c028036 	lui	v0,0x8036
80010418:	2442f9e0 	addiu	v0,v0,-1568
8001041c:	0800410b 	j	8001042c <readline+0x14c>
80010420:	00000000 	nop
80010424:	080040c6 	j	80010318 <readline+0x38>
80010428:	00000000 	nop
8001042c:	03c0e821 	move	sp,s8
80010430:	8fbf0024 	lw	ra,36(sp)
80010434:	8fbe0020 	lw	s8,32(sp)
80010438:	27bd0028 	addiu	sp,sp,40
8001043c:	03e00008 	jr	ra
80010440:	00000000 	nop
	...

80010450 <cputch>:
80010450:	27bdffe0 	addiu	sp,sp,-32
80010454:	afbf001c 	sw	ra,28(sp)
80010458:	afbe0018 	sw	s8,24(sp)
8001045c:	03a0f021 	move	s8,sp
80010460:	afc40020 	sw	a0,32(s8)
80010464:	afc50024 	sw	a1,36(s8)
80010468:	8fc40020 	lw	a0,32(s8)
8001046c:	0c004680 	jal	80011a00 <cons_putc>
80010470:	00000000 	nop
80010474:	8fc20024 	lw	v0,36(s8)
80010478:	8c420000 	lw	v0,0(v0)
8001047c:	24430001 	addiu	v1,v0,1
80010480:	8fc20024 	lw	v0,36(s8)
80010484:	ac430000 	sw	v1,0(v0)
80010488:	03c0e821 	move	sp,s8
8001048c:	8fbf001c 	lw	ra,28(sp)
80010490:	8fbe0018 	lw	s8,24(sp)
80010494:	27bd0020 	addiu	sp,sp,32
80010498:	03e00008 	jr	ra
8001049c:	00000000 	nop

800104a0 <vcprintf>:
800104a0:	27bdffd8 	addiu	sp,sp,-40
800104a4:	afbf0024 	sw	ra,36(sp)
800104a8:	afbe0020 	sw	s8,32(sp)
800104ac:	03a0f021 	move	s8,sp
800104b0:	afc40028 	sw	a0,40(s8)
800104b4:	afc5002c 	sw	a1,44(s8)
800104b8:	afc00018 	sw	zero,24(s8)
800104bc:	3c028001 	lui	v0,0x8001
800104c0:	24440450 	addiu	a0,v0,1104
800104c4:	27c20018 	addiu	v0,s8,24
800104c8:	00402821 	move	a1,v0
800104cc:	8fc60028 	lw	a2,40(s8)
800104d0:	8fc7002c 	lw	a3,44(s8)
800104d4:	0c0083a6 	jal	80020e98 <vprintfmt>
800104d8:	00000000 	nop
800104dc:	8fc20018 	lw	v0,24(s8)
800104e0:	03c0e821 	move	sp,s8
800104e4:	8fbf0024 	lw	ra,36(sp)
800104e8:	8fbe0020 	lw	s8,32(sp)
800104ec:	27bd0028 	addiu	sp,sp,40
800104f0:	03e00008 	jr	ra
800104f4:	00000000 	nop

800104f8 <cprintf>:
800104f8:	27bdffd8 	addiu	sp,sp,-40
800104fc:	afbf0024 	sw	ra,36(sp)
80010500:	afbe0020 	sw	s8,32(sp)
80010504:	03a0f021 	move	s8,sp
80010508:	afc5002c 	sw	a1,44(s8)
8001050c:	afc60030 	sw	a2,48(s8)
80010510:	afc70034 	sw	a3,52(s8)
80010514:	afc40028 	sw	a0,40(s8)
80010518:	27c2002c 	addiu	v0,s8,44
8001051c:	afc2001c 	sw	v0,28(s8)
80010520:	8fc2001c 	lw	v0,28(s8)
80010524:	8fc40028 	lw	a0,40(s8)
80010528:	00402821 	move	a1,v0
8001052c:	0c004128 	jal	800104a0 <vcprintf>
80010530:	00000000 	nop
80010534:	afc20018 	sw	v0,24(s8)
80010538:	8fc20018 	lw	v0,24(s8)
8001053c:	03c0e821 	move	sp,s8
80010540:	8fbf0024 	lw	ra,36(sp)
80010544:	8fbe0020 	lw	s8,32(sp)
80010548:	27bd0028 	addiu	sp,sp,40
8001054c:	03e00008 	jr	ra
80010550:	00000000 	nop

80010554 <cputchar>:
80010554:	27bdffe0 	addiu	sp,sp,-32
80010558:	afbf001c 	sw	ra,28(sp)
8001055c:	afbe0018 	sw	s8,24(sp)
80010560:	03a0f021 	move	s8,sp
80010564:	afc40020 	sw	a0,32(s8)
80010568:	8fc40020 	lw	a0,32(s8)
8001056c:	0c004680 	jal	80011a00 <cons_putc>
80010570:	00000000 	nop
80010574:	03c0e821 	move	sp,s8
80010578:	8fbf001c 	lw	ra,28(sp)
8001057c:	8fbe0018 	lw	s8,24(sp)
80010580:	27bd0020 	addiu	sp,sp,32
80010584:	03e00008 	jr	ra
80010588:	00000000 	nop

8001058c <cputs>:
8001058c:	27bdffd8 	addiu	sp,sp,-40
80010590:	afbf0024 	sw	ra,36(sp)
80010594:	afbe0020 	sw	s8,32(sp)
80010598:	03a0f021 	move	s8,sp
8001059c:	afc40028 	sw	a0,40(s8)
800105a0:	afc0001c 	sw	zero,28(s8)
800105a4:	08004171 	j	800105c4 <cputs+0x38>
800105a8:	00000000 	nop
800105ac:	83c30018 	lb	v1,24(s8)
800105b0:	27c2001c 	addiu	v0,s8,28
800105b4:	00602021 	move	a0,v1
800105b8:	00402821 	move	a1,v0
800105bc:	0c004114 	jal	80010450 <cputch>
800105c0:	00000000 	nop
800105c4:	8fc20028 	lw	v0,40(s8)
800105c8:	24430001 	addiu	v1,v0,1
800105cc:	afc30028 	sw	v1,40(s8)
800105d0:	90420000 	lbu	v0,0(v0)
800105d4:	a3c20018 	sb	v0,24(s8)
800105d8:	83c20018 	lb	v0,24(s8)
800105dc:	1440fff3 	bnez	v0,800105ac <cputs+0x20>
800105e0:	00000000 	nop
800105e4:	27c2001c 	addiu	v0,s8,28
800105e8:	2404000a 	li	a0,10
800105ec:	00402821 	move	a1,v0
800105f0:	0c004114 	jal	80010450 <cputch>
800105f4:	00000000 	nop
800105f8:	8fc2001c 	lw	v0,28(s8)
800105fc:	03c0e821 	move	sp,s8
80010600:	8fbf0024 	lw	ra,36(sp)
80010604:	8fbe0020 	lw	s8,32(sp)
80010608:	27bd0028 	addiu	sp,sp,40
8001060c:	03e00008 	jr	ra
80010610:	00000000 	nop

80010614 <getchar>:
80010614:	27bdffd8 	addiu	sp,sp,-40
80010618:	afbf0024 	sw	ra,36(sp)
8001061c:	afbe0020 	sw	s8,32(sp)
80010620:	03a0f021 	move	s8,sp
80010624:	0c004694 	jal	80011a50 <cons_getc>
80010628:	00000000 	nop
8001062c:	afc20018 	sw	v0,24(s8)
80010630:	8fc20018 	lw	v0,24(s8)
80010634:	1040fffb 	beqz	v0,80010624 <getchar+0x10>
80010638:	00000000 	nop
8001063c:	8fc20018 	lw	v0,24(s8)
80010640:	03c0e821 	move	sp,s8
80010644:	8fbf0024 	lw	ra,36(sp)
80010648:	8fbe0020 	lw	s8,32(sp)
8001064c:	27bd0028 	addiu	sp,sp,40
80010650:	03e00008 	jr	ra
80010654:	00000000 	nop
	...

80010660 <stab_binsearch>:
80010660:	27bdffd8 	addiu	sp,sp,-40
80010664:	afbe0024 	sw	s8,36(sp)
80010668:	03a0f021 	move	s8,sp
8001066c:	afc40028 	sw	a0,40(s8)
80010670:	afc5002c 	sw	a1,44(s8)
80010674:	afc60030 	sw	a2,48(s8)
80010678:	afc70034 	sw	a3,52(s8)
8001067c:	8fc2002c 	lw	v0,44(s8)
80010680:	8c420000 	lw	v0,0(v0)
80010684:	afc20008 	sw	v0,8(s8)
80010688:	8fc20030 	lw	v0,48(s8)
8001068c:	8c420000 	lw	v0,0(v0)
80010690:	afc2000c 	sw	v0,12(s8)
80010694:	afc00010 	sw	zero,16(s8)
80010698:	08004201 	j	80010804 <stab_binsearch+0x1a4>
8001069c:	00000000 	nop
800106a0:	8fc30008 	lw	v1,8(s8)
800106a4:	8fc2000c 	lw	v0,12(s8)
800106a8:	00621021 	addu	v0,v1,v0
800106ac:	00021fc2 	srl	v1,v0,0x1f
800106b0:	00621021 	addu	v0,v1,v0
800106b4:	00021043 	sra	v0,v0,0x1
800106b8:	afc20018 	sw	v0,24(s8)
800106bc:	8fc20018 	lw	v0,24(s8)
800106c0:	afc20014 	sw	v0,20(s8)
800106c4:	080041b6 	j	800106d8 <stab_binsearch+0x78>
800106c8:	00000000 	nop
800106cc:	8fc20014 	lw	v0,20(s8)
800106d0:	2442ffff 	addiu	v0,v0,-1
800106d4:	afc20014 	sw	v0,20(s8)
800106d8:	8fc30014 	lw	v1,20(s8)
800106dc:	8fc20008 	lw	v0,8(s8)
800106e0:	0062102a 	slt	v0,v1,v0
800106e4:	1440000c 	bnez	v0,80010718 <stab_binsearch+0xb8>
800106e8:	00000000 	nop
800106ec:	8fc20014 	lw	v0,20(s8)
800106f0:	00021080 	sll	v0,v0,0x2
800106f4:	00021880 	sll	v1,v0,0x2
800106f8:	00621023 	subu	v0,v1,v0
800106fc:	8fc30028 	lw	v1,40(s8)
80010700:	00621021 	addu	v0,v1,v0
80010704:	90420004 	lbu	v0,4(v0)
80010708:	00401821 	move	v1,v0
8001070c:	8fc20034 	lw	v0,52(s8)
80010710:	1462ffee 	bne	v1,v0,800106cc <stab_binsearch+0x6c>
80010714:	00000000 	nop
80010718:	8fc30014 	lw	v1,20(s8)
8001071c:	8fc20008 	lw	v0,8(s8)
80010720:	0062102a 	slt	v0,v1,v0
80010724:	10400006 	beqz	v0,80010740 <stab_binsearch+0xe0>
80010728:	00000000 	nop
8001072c:	8fc20018 	lw	v0,24(s8)
80010730:	24420001 	addiu	v0,v0,1
80010734:	afc20008 	sw	v0,8(s8)
80010738:	08004201 	j	80010804 <stab_binsearch+0x1a4>
8001073c:	00000000 	nop
80010740:	24020001 	li	v0,1
80010744:	afc20010 	sw	v0,16(s8)
80010748:	8fc20014 	lw	v0,20(s8)
8001074c:	00021080 	sll	v0,v0,0x2
80010750:	00021880 	sll	v1,v0,0x2
80010754:	00621023 	subu	v0,v1,v0
80010758:	8fc30028 	lw	v1,40(s8)
8001075c:	00621021 	addu	v0,v1,v0
80010760:	8c430008 	lw	v1,8(v0)
80010764:	8fc20038 	lw	v0,56(s8)
80010768:	0062102b 	sltu	v0,v1,v0
8001076c:	10400009 	beqz	v0,80010794 <stab_binsearch+0x134>
80010770:	00000000 	nop
80010774:	8fc2002c 	lw	v0,44(s8)
80010778:	8fc30014 	lw	v1,20(s8)
8001077c:	ac430000 	sw	v1,0(v0)
80010780:	8fc20018 	lw	v0,24(s8)
80010784:	24420001 	addiu	v0,v0,1
80010788:	afc20008 	sw	v0,8(s8)
8001078c:	08004201 	j	80010804 <stab_binsearch+0x1a4>
80010790:	00000000 	nop
80010794:	8fc20014 	lw	v0,20(s8)
80010798:	00021080 	sll	v0,v0,0x2
8001079c:	00021880 	sll	v1,v0,0x2
800107a0:	00621023 	subu	v0,v1,v0
800107a4:	8fc30028 	lw	v1,40(s8)
800107a8:	00621021 	addu	v0,v1,v0
800107ac:	8c430008 	lw	v1,8(v0)
800107b0:	8fc20038 	lw	v0,56(s8)
800107b4:	0043102b 	sltu	v0,v0,v1
800107b8:	1040000a 	beqz	v0,800107e4 <stab_binsearch+0x184>
800107bc:	00000000 	nop
800107c0:	8fc20014 	lw	v0,20(s8)
800107c4:	2443ffff 	addiu	v1,v0,-1
800107c8:	8fc20030 	lw	v0,48(s8)
800107cc:	ac430000 	sw	v1,0(v0)
800107d0:	8fc20014 	lw	v0,20(s8)
800107d4:	2442ffff 	addiu	v0,v0,-1
800107d8:	afc2000c 	sw	v0,12(s8)
800107dc:	08004201 	j	80010804 <stab_binsearch+0x1a4>
800107e0:	00000000 	nop
800107e4:	8fc2002c 	lw	v0,44(s8)
800107e8:	8fc30014 	lw	v1,20(s8)
800107ec:	ac430000 	sw	v1,0(v0)
800107f0:	8fc20014 	lw	v0,20(s8)
800107f4:	afc20008 	sw	v0,8(s8)
800107f8:	8fc20038 	lw	v0,56(s8)
800107fc:	24420001 	addiu	v0,v0,1
80010800:	afc20038 	sw	v0,56(s8)
80010804:	8fc30008 	lw	v1,8(s8)
80010808:	8fc2000c 	lw	v0,12(s8)
8001080c:	0043102a 	slt	v0,v0,v1
80010810:	1040ffa3 	beqz	v0,800106a0 <stab_binsearch+0x40>
80010814:	00000000 	nop
80010818:	8fc20010 	lw	v0,16(s8)
8001081c:	14400008 	bnez	v0,80010840 <stab_binsearch+0x1e0>
80010820:	00000000 	nop
80010824:	8fc2002c 	lw	v0,44(s8)
80010828:	8c420000 	lw	v0,0(v0)
8001082c:	2443ffff 	addiu	v1,v0,-1
80010830:	8fc20030 	lw	v0,48(s8)
80010834:	ac430000 	sw	v1,0(v0)
80010838:	0800422c 	j	800108b0 <stab_binsearch+0x250>
8001083c:	00000000 	nop
80010840:	8fc20030 	lw	v0,48(s8)
80010844:	8c420000 	lw	v0,0(v0)
80010848:	afc20008 	sw	v0,8(s8)
8001084c:	08004218 	j	80010860 <stab_binsearch+0x200>
80010850:	00000000 	nop
80010854:	8fc20008 	lw	v0,8(s8)
80010858:	2442ffff 	addiu	v0,v0,-1
8001085c:	afc20008 	sw	v0,8(s8)
80010860:	8fc2002c 	lw	v0,44(s8)
80010864:	8c430000 	lw	v1,0(v0)
80010868:	8fc20008 	lw	v0,8(s8)
8001086c:	0062102a 	slt	v0,v1,v0
80010870:	1040000c 	beqz	v0,800108a4 <stab_binsearch+0x244>
80010874:	00000000 	nop
80010878:	8fc20008 	lw	v0,8(s8)
8001087c:	00021080 	sll	v0,v0,0x2
80010880:	00021880 	sll	v1,v0,0x2
80010884:	00621023 	subu	v0,v1,v0
80010888:	8fc30028 	lw	v1,40(s8)
8001088c:	00621021 	addu	v0,v1,v0
80010890:	90420004 	lbu	v0,4(v0)
80010894:	00401821 	move	v1,v0
80010898:	8fc20034 	lw	v0,52(s8)
8001089c:	1462ffed 	bne	v1,v0,80010854 <stab_binsearch+0x1f4>
800108a0:	00000000 	nop
800108a4:	8fc2002c 	lw	v0,44(s8)
800108a8:	8fc30008 	lw	v1,8(s8)
800108ac:	ac430000 	sw	v1,0(v0)
800108b0:	03c0e821 	move	sp,s8
800108b4:	8fbe0024 	lw	s8,36(sp)
800108b8:	27bd0028 	addiu	sp,sp,40
800108bc:	03e00008 	jr	ra
800108c0:	00000000 	nop

800108c4 <debuginfo_eip>:
800108c4:	27bdffa8 	addiu	sp,sp,-88
800108c8:	afbf0054 	sw	ra,84(sp)
800108cc:	afbe0050 	sw	s8,80(sp)
800108d0:	03a0f021 	move	s8,sp
800108d4:	afc40058 	sw	a0,88(s8)
800108d8:	afc5005c 	sw	a1,92(s8)
800108dc:	8fc2005c 	lw	v0,92(s8)
800108e0:	3c038002 	lui	v1,0x8002
800108e4:	24632130 	addiu	v1,v1,8496
800108e8:	ac430000 	sw	v1,0(v0)
800108ec:	8fc2005c 	lw	v0,92(s8)
800108f0:	ac400004 	sw	zero,4(v0)
800108f4:	8fc2005c 	lw	v0,92(s8)
800108f8:	3c038002 	lui	v1,0x8002
800108fc:	24632130 	addiu	v1,v1,8496
80010900:	ac430008 	sw	v1,8(v0)
80010904:	8fc2005c 	lw	v0,92(s8)
80010908:	24030009 	li	v1,9
8001090c:	ac43000c 	sw	v1,12(v0)
80010910:	8fc2005c 	lw	v0,92(s8)
80010914:	8fc30058 	lw	v1,88(s8)
80010918:	ac430010 	sw	v1,16(v0)
8001091c:	8fc2005c 	lw	v0,92(s8)
80010920:	ac400014 	sw	zero,20(v0)
80010924:	8fc20058 	lw	v0,88(s8)
80010928:	0441000f 	bgez	v0,80010968 <debuginfo_eip+0xa4>
8001092c:	00000000 	nop
80010930:	3c028002 	lui	v0,0x8002
80010934:	24424d38 	addiu	v0,v0,19768
80010938:	afc20020 	sw	v0,32(s8)
8001093c:	3c028004 	lui	v0,0x8004
80010940:	2442b358 	addiu	v0,v0,-19624
80010944:	afc20024 	sw	v0,36(s8)
80010948:	3c028004 	lui	v0,0x8004
8001094c:	2442b359 	addiu	v0,v0,-19623
80010950:	afc20028 	sw	v0,40(s8)
80010954:	3c028004 	lui	v0,0x8004
80010958:	244220b8 	addiu	v0,v0,8376
8001095c:	afc2002c 	sw	v0,44(s8)
80010960:	080042a0 	j	80010a80 <debuginfo_eip+0x1bc>
80010964:	00000000 	nop
80010968:	3c020020 	lui	v0,0x20
8001096c:	afc20030 	sw	v0,48(s8)
80010970:	3c028036 	lui	v0,0x8036
80010974:	8c420078 	lw	v0,120(v0)
80010978:	10400008 	beqz	v0,8001099c <debuginfo_eip+0xd8>
8001097c:	00000000 	nop
80010980:	3c028036 	lui	v0,0x8036
80010984:	8c420078 	lw	v0,120(v0)
80010988:	8c420018 	lw	v0,24(v0)
8001098c:	afc20034 	sw	v0,52(s8)
80010990:	8fc20034 	lw	v0,52(s8)
80010994:	14400004 	bnez	v0,800109a8 <debuginfo_eip+0xe4>
80010998:	00000000 	nop
8001099c:	2402ffff 	li	v0,-1
800109a0:	0800439c 	j	80010e70 <debuginfo_eip+0x5ac>
800109a4:	00000000 	nop
800109a8:	8fc20030 	lw	v0,48(s8)
800109ac:	8fc40034 	lw	a0,52(s8)
800109b0:	00402821 	move	a1,v0
800109b4:	24060010 	li	a2,16
800109b8:	00003821 	move	a3,zero
800109bc:	0c006c31 	jal	8001b0c4 <user_mem_check>
800109c0:	00000000 	nop
800109c4:	14400004 	bnez	v0,800109d8 <debuginfo_eip+0x114>
800109c8:	00000000 	nop
800109cc:	2402ffff 	li	v0,-1
800109d0:	0800439c 	j	80010e70 <debuginfo_eip+0x5ac>
800109d4:	00000000 	nop
800109d8:	8fc20030 	lw	v0,48(s8)
800109dc:	8c420000 	lw	v0,0(v0)
800109e0:	afc20020 	sw	v0,32(s8)
800109e4:	8fc20030 	lw	v0,48(s8)
800109e8:	8c420004 	lw	v0,4(v0)
800109ec:	afc20024 	sw	v0,36(s8)
800109f0:	8fc20030 	lw	v0,48(s8)
800109f4:	8c420008 	lw	v0,8(v0)
800109f8:	afc20028 	sw	v0,40(s8)
800109fc:	8fc20030 	lw	v0,48(s8)
80010a00:	8c42000c 	lw	v0,12(v0)
80010a04:	afc2002c 	sw	v0,44(s8)
80010a08:	8fc30020 	lw	v1,32(s8)
80010a0c:	8fc40024 	lw	a0,36(s8)
80010a10:	8fc20020 	lw	v0,32(s8)
80010a14:	00821023 	subu	v0,a0,v0
80010a18:	8fc40034 	lw	a0,52(s8)
80010a1c:	00602821 	move	a1,v1
80010a20:	00403021 	move	a2,v0
80010a24:	00003821 	move	a3,zero
80010a28:	0c006c31 	jal	8001b0c4 <user_mem_check>
80010a2c:	00000000 	nop
80010a30:	14400004 	bnez	v0,80010a44 <debuginfo_eip+0x180>
80010a34:	00000000 	nop
80010a38:	2402ffff 	li	v0,-1
80010a3c:	0800439c 	j	80010e70 <debuginfo_eip+0x5ac>
80010a40:	00000000 	nop
80010a44:	8fc30028 	lw	v1,40(s8)
80010a48:	8fc4002c 	lw	a0,44(s8)
80010a4c:	8fc20028 	lw	v0,40(s8)
80010a50:	00821023 	subu	v0,a0,v0
80010a54:	8fc40034 	lw	a0,52(s8)
80010a58:	00602821 	move	a1,v1
80010a5c:	00403021 	move	a2,v0
80010a60:	00003821 	move	a3,zero
80010a64:	0c006c31 	jal	8001b0c4 <user_mem_check>
80010a68:	00000000 	nop
80010a6c:	14400004 	bnez	v0,80010a80 <debuginfo_eip+0x1bc>
80010a70:	00000000 	nop
80010a74:	2402ffff 	li	v0,-1
80010a78:	0800439c 	j	80010e70 <debuginfo_eip+0x5ac>
80010a7c:	00000000 	nop
80010a80:	8fc3002c 	lw	v1,44(s8)
80010a84:	8fc20028 	lw	v0,40(s8)
80010a88:	0043102b 	sltu	v0,v0,v1
80010a8c:	10400006 	beqz	v0,80010aa8 <debuginfo_eip+0x1e4>
80010a90:	00000000 	nop
80010a94:	8fc2002c 	lw	v0,44(s8)
80010a98:	2442ffff 	addiu	v0,v0,-1
80010a9c:	80420000 	lb	v0,0(v0)
80010aa0:	10400004 	beqz	v0,80010ab4 <debuginfo_eip+0x1f0>
80010aa4:	00000000 	nop
80010aa8:	2402ffff 	li	v0,-1
80010aac:	0800439c 	j	80010e70 <debuginfo_eip+0x5ac>
80010ab0:	00000000 	nop
80010ab4:	afc00038 	sw	zero,56(s8)
80010ab8:	8fc30024 	lw	v1,36(s8)
80010abc:	8fc20020 	lw	v0,32(s8)
80010ac0:	00621023 	subu	v0,v1,v0
80010ac4:	00021883 	sra	v1,v0,0x2
80010ac8:	3c02aaaa 	lui	v0,0xaaaa
80010acc:	3442aaab 	ori	v0,v0,0xaaab
80010ad0:	00620018 	mult	v1,v0
80010ad4:	00001012 	mflo	v0
80010ad8:	2442ffff 	addiu	v0,v0,-1
80010adc:	afc2003c 	sw	v0,60(s8)
80010ae0:	27c30038 	addiu	v1,s8,56
80010ae4:	27c2003c 	addiu	v0,s8,60
80010ae8:	8fc40058 	lw	a0,88(s8)
80010aec:	afa40010 	sw	a0,16(sp)
80010af0:	8fc40020 	lw	a0,32(s8)
80010af4:	00602821 	move	a1,v1
80010af8:	00403021 	move	a2,v0
80010afc:	24070064 	li	a3,100
80010b00:	0c004198 	jal	80010660 <stab_binsearch>
80010b04:	00000000 	nop
80010b08:	8fc20038 	lw	v0,56(s8)
80010b0c:	14400004 	bnez	v0,80010b20 <debuginfo_eip+0x25c>
80010b10:	00000000 	nop
80010b14:	2402ffff 	li	v0,-1
80010b18:	0800439c 	j	80010e70 <debuginfo_eip+0x5ac>
80010b1c:	00000000 	nop
80010b20:	8fc20038 	lw	v0,56(s8)
80010b24:	afc20040 	sw	v0,64(s8)
80010b28:	8fc2003c 	lw	v0,60(s8)
80010b2c:	afc20044 	sw	v0,68(s8)
80010b30:	27c30040 	addiu	v1,s8,64
80010b34:	27c20044 	addiu	v0,s8,68
80010b38:	8fc40058 	lw	a0,88(s8)
80010b3c:	afa40010 	sw	a0,16(sp)
80010b40:	8fc40020 	lw	a0,32(s8)
80010b44:	00602821 	move	a1,v1
80010b48:	00403021 	move	a2,v0
80010b4c:	24070024 	li	a3,36
80010b50:	0c004198 	jal	80010660 <stab_binsearch>
80010b54:	00000000 	nop
80010b58:	8fc30040 	lw	v1,64(s8)
80010b5c:	8fc20044 	lw	v0,68(s8)
80010b60:	0043102a 	slt	v0,v0,v1
80010b64:	1440002d 	bnez	v0,80010c1c <debuginfo_eip+0x358>
80010b68:	00000000 	nop
80010b6c:	8fc20040 	lw	v0,64(s8)
80010b70:	00021080 	sll	v0,v0,0x2
80010b74:	00021880 	sll	v1,v0,0x2
80010b78:	00621023 	subu	v0,v1,v0
80010b7c:	8fc30020 	lw	v1,32(s8)
80010b80:	00621021 	addu	v0,v1,v0
80010b84:	8c430000 	lw	v1,0(v0)
80010b88:	8fc4002c 	lw	a0,44(s8)
80010b8c:	8fc20028 	lw	v0,40(s8)
80010b90:	00821023 	subu	v0,a0,v0
80010b94:	0062102b 	sltu	v0,v1,v0
80010b98:	1040000c 	beqz	v0,80010bcc <debuginfo_eip+0x308>
80010b9c:	00000000 	nop
80010ba0:	8fc20040 	lw	v0,64(s8)
80010ba4:	00021080 	sll	v0,v0,0x2
80010ba8:	00021880 	sll	v1,v0,0x2
80010bac:	00621023 	subu	v0,v1,v0
80010bb0:	8fc30020 	lw	v1,32(s8)
80010bb4:	00621021 	addu	v0,v1,v0
80010bb8:	8c420000 	lw	v0,0(v0)
80010bbc:	8fc30028 	lw	v1,40(s8)
80010bc0:	00621821 	addu	v1,v1,v0
80010bc4:	8fc2005c 	lw	v0,92(s8)
80010bc8:	ac430008 	sw	v1,8(v0)
80010bcc:	8fc20040 	lw	v0,64(s8)
80010bd0:	00021080 	sll	v0,v0,0x2
80010bd4:	00021880 	sll	v1,v0,0x2
80010bd8:	00621023 	subu	v0,v1,v0
80010bdc:	8fc30020 	lw	v1,32(s8)
80010be0:	00621021 	addu	v0,v1,v0
80010be4:	8c430008 	lw	v1,8(v0)
80010be8:	8fc2005c 	lw	v0,92(s8)
80010bec:	ac430010 	sw	v1,16(v0)
80010bf0:	8fc2005c 	lw	v0,92(s8)
80010bf4:	8c420010 	lw	v0,16(v0)
80010bf8:	8fc30058 	lw	v1,88(s8)
80010bfc:	00621023 	subu	v0,v1,v0
80010c00:	afc20058 	sw	v0,88(s8)
80010c04:	8fc20040 	lw	v0,64(s8)
80010c08:	afc20048 	sw	v0,72(s8)
80010c0c:	8fc20044 	lw	v0,68(s8)
80010c10:	afc2004c 	sw	v0,76(s8)
80010c14:	0800430e 	j	80010c38 <debuginfo_eip+0x374>
80010c18:	00000000 	nop
80010c1c:	8fc2005c 	lw	v0,92(s8)
80010c20:	8fc30058 	lw	v1,88(s8)
80010c24:	ac430010 	sw	v1,16(v0)
80010c28:	8fc20038 	lw	v0,56(s8)
80010c2c:	afc20048 	sw	v0,72(s8)
80010c30:	8fc2003c 	lw	v0,60(s8)
80010c34:	afc2004c 	sw	v0,76(s8)
80010c38:	8fc2005c 	lw	v0,92(s8)
80010c3c:	8c420008 	lw	v0,8(v0)
80010c40:	00402021 	move	a0,v0
80010c44:	2405003a 	li	a1,58
80010c48:	0c0086b5 	jal	80021ad4 <strfind>
80010c4c:	00000000 	nop
80010c50:	00401821 	move	v1,v0
80010c54:	8fc2005c 	lw	v0,92(s8)
80010c58:	8c420008 	lw	v0,8(v0)
80010c5c:	00621823 	subu	v1,v1,v0
80010c60:	8fc2005c 	lw	v0,92(s8)
80010c64:	ac43000c 	sw	v1,12(v0)
80010c68:	27c30048 	addiu	v1,s8,72
80010c6c:	27c2004c 	addiu	v0,s8,76
80010c70:	8fc40058 	lw	a0,88(s8)
80010c74:	afa40010 	sw	a0,16(sp)
80010c78:	8fc40020 	lw	a0,32(s8)
80010c7c:	00602821 	move	a1,v1
80010c80:	00403021 	move	a2,v0
80010c84:	24070044 	li	a3,68
80010c88:	0c004198 	jal	80010660 <stab_binsearch>
80010c8c:	00000000 	nop
80010c90:	8fc30048 	lw	v1,72(s8)
80010c94:	8fc2004c 	lw	v0,76(s8)
80010c98:	0043102a 	slt	v0,v0,v1
80010c9c:	1440000d 	bnez	v0,80010cd4 <debuginfo_eip+0x410>
80010ca0:	00000000 	nop
80010ca4:	8fc2004c 	lw	v0,76(s8)
80010ca8:	00021080 	sll	v0,v0,0x2
80010cac:	00021880 	sll	v1,v0,0x2
80010cb0:	00621023 	subu	v0,v1,v0
80010cb4:	8fc30020 	lw	v1,32(s8)
80010cb8:	00621021 	addu	v0,v1,v0
80010cbc:	94420006 	lhu	v0,6(v0)
80010cc0:	00401821 	move	v1,v0
80010cc4:	8fc2005c 	lw	v0,92(s8)
80010cc8:	ac430004 	sw	v1,4(v0)
80010ccc:	0800433b 	j	80010cec <debuginfo_eip+0x428>
80010cd0:	00000000 	nop
80010cd4:	2402ffff 	li	v0,-1
80010cd8:	0800439c 	j	80010e70 <debuginfo_eip+0x5ac>
80010cdc:	00000000 	nop
80010ce0:	8fc20048 	lw	v0,72(s8)
80010ce4:	2442ffff 	addiu	v0,v0,-1
80010ce8:	afc20048 	sw	v0,72(s8)
80010cec:	8fc30048 	lw	v1,72(s8)
80010cf0:	8fc20038 	lw	v0,56(s8)
80010cf4:	0062102a 	slt	v0,v1,v0
80010cf8:	1440001e 	bnez	v0,80010d74 <debuginfo_eip+0x4b0>
80010cfc:	00000000 	nop
80010d00:	8fc20048 	lw	v0,72(s8)
80010d04:	00021080 	sll	v0,v0,0x2
80010d08:	00021880 	sll	v1,v0,0x2
80010d0c:	00621023 	subu	v0,v1,v0
80010d10:	8fc30020 	lw	v1,32(s8)
80010d14:	00621021 	addu	v0,v1,v0
80010d18:	90430004 	lbu	v1,4(v0)
80010d1c:	24020084 	li	v0,132
80010d20:	10620014 	beq	v1,v0,80010d74 <debuginfo_eip+0x4b0>
80010d24:	00000000 	nop
80010d28:	8fc20048 	lw	v0,72(s8)
80010d2c:	00021080 	sll	v0,v0,0x2
80010d30:	00021880 	sll	v1,v0,0x2
80010d34:	00621023 	subu	v0,v1,v0
80010d38:	8fc30020 	lw	v1,32(s8)
80010d3c:	00621021 	addu	v0,v1,v0
80010d40:	90430004 	lbu	v1,4(v0)
80010d44:	24020064 	li	v0,100
80010d48:	1462ffe5 	bne	v1,v0,80010ce0 <debuginfo_eip+0x41c>
80010d4c:	00000000 	nop
80010d50:	8fc20048 	lw	v0,72(s8)
80010d54:	00021080 	sll	v0,v0,0x2
80010d58:	00021880 	sll	v1,v0,0x2
80010d5c:	00621023 	subu	v0,v1,v0
80010d60:	8fc30020 	lw	v1,32(s8)
80010d64:	00621021 	addu	v0,v1,v0
80010d68:	8c420008 	lw	v0,8(v0)
80010d6c:	1040ffdc 	beqz	v0,80010ce0 <debuginfo_eip+0x41c>
80010d70:	00000000 	nop
80010d74:	8fc30048 	lw	v1,72(s8)
80010d78:	8fc20038 	lw	v0,56(s8)
80010d7c:	0062102a 	slt	v0,v1,v0
80010d80:	14400019 	bnez	v0,80010de8 <debuginfo_eip+0x524>
80010d84:	00000000 	nop
80010d88:	8fc20048 	lw	v0,72(s8)
80010d8c:	00021080 	sll	v0,v0,0x2
80010d90:	00021880 	sll	v1,v0,0x2
80010d94:	00621023 	subu	v0,v1,v0
80010d98:	8fc30020 	lw	v1,32(s8)
80010d9c:	00621021 	addu	v0,v1,v0
80010da0:	8c430000 	lw	v1,0(v0)
80010da4:	8fc4002c 	lw	a0,44(s8)
80010da8:	8fc20028 	lw	v0,40(s8)
80010dac:	00821023 	subu	v0,a0,v0
80010db0:	0062102b 	sltu	v0,v1,v0
80010db4:	1040000c 	beqz	v0,80010de8 <debuginfo_eip+0x524>
80010db8:	00000000 	nop
80010dbc:	8fc20048 	lw	v0,72(s8)
80010dc0:	00021080 	sll	v0,v0,0x2
80010dc4:	00021880 	sll	v1,v0,0x2
80010dc8:	00621023 	subu	v0,v1,v0
80010dcc:	8fc30020 	lw	v1,32(s8)
80010dd0:	00621021 	addu	v0,v1,v0
80010dd4:	8c420000 	lw	v0,0(v0)
80010dd8:	8fc30028 	lw	v1,40(s8)
80010ddc:	00621821 	addu	v1,v1,v0
80010de0:	8fc2005c 	lw	v0,92(s8)
80010de4:	ac430000 	sw	v1,0(v0)
80010de8:	8fc30040 	lw	v1,64(s8)
80010dec:	8fc20044 	lw	v0,68(s8)
80010df0:	0062102a 	slt	v0,v1,v0
80010df4:	1040001d 	beqz	v0,80010e6c <debuginfo_eip+0x5a8>
80010df8:	00000000 	nop
80010dfc:	8fc20040 	lw	v0,64(s8)
80010e00:	24420001 	addiu	v0,v0,1
80010e04:	afc20048 	sw	v0,72(s8)
80010e08:	0800438c 	j	80010e30 <debuginfo_eip+0x56c>
80010e0c:	00000000 	nop
80010e10:	8fc2005c 	lw	v0,92(s8)
80010e14:	8c420014 	lw	v0,20(v0)
80010e18:	24430001 	addiu	v1,v0,1
80010e1c:	8fc2005c 	lw	v0,92(s8)
80010e20:	ac430014 	sw	v1,20(v0)
80010e24:	8fc20048 	lw	v0,72(s8)
80010e28:	24420001 	addiu	v0,v0,1
80010e2c:	afc20048 	sw	v0,72(s8)
80010e30:	8fc30048 	lw	v1,72(s8)
80010e34:	8fc20044 	lw	v0,68(s8)
80010e38:	0062102a 	slt	v0,v1,v0
80010e3c:	1040000b 	beqz	v0,80010e6c <debuginfo_eip+0x5a8>
80010e40:	00000000 	nop
80010e44:	8fc20048 	lw	v0,72(s8)
80010e48:	00021080 	sll	v0,v0,0x2
80010e4c:	00021880 	sll	v1,v0,0x2
80010e50:	00621023 	subu	v0,v1,v0
80010e54:	8fc30020 	lw	v1,32(s8)
80010e58:	00621021 	addu	v0,v1,v0
80010e5c:	90430004 	lbu	v1,4(v0)
80010e60:	240200a0 	li	v0,160
80010e64:	1062ffea 	beq	v1,v0,80010e10 <debuginfo_eip+0x54c>
80010e68:	00000000 	nop
80010e6c:	00001021 	move	v0,zero
80010e70:	03c0e821 	move	sp,s8
80010e74:	8fbf0054 	lw	ra,84(sp)
80010e78:	8fbe0050 	lw	s8,80(sp)
80010e7c:	27bd0058 	addiu	sp,sp,88
80010e80:	03e00008 	jr	ra
80010e84:	00000000 	nop

80010e88 <print_kerninfo>:
80010e88:	27bdffe0 	addiu	sp,sp,-32
80010e8c:	afbf001c 	sw	ra,28(sp)
80010e90:	afbe0018 	sw	s8,24(sp)
80010e94:	03a0f021 	move	s8,sp
80010e98:	3c028002 	lui	v0,0x8002
80010e9c:	2444213c 	addiu	a0,v0,8508
80010ea0:	0c00413e 	jal	800104f8 <cprintf>
80010ea4:	00000000 	nop
80010ea8:	3c028002 	lui	v0,0x8002
80010eac:	24442158 	addiu	a0,v0,8536
80010eb0:	3c028001 	lui	v0,0x8001
80010eb4:	24450020 	addiu	a1,v0,32
80010eb8:	0c00413e 	jal	800104f8 <cprintf>
80010ebc:	00000000 	nop
80010ec0:	3c028002 	lui	v0,0x8002
80010ec4:	24442170 	addiu	a0,v0,8560
80010ec8:	3c028002 	lui	v0,0x8002
80010ecc:	244520b0 	addiu	a1,v0,8368
80010ed0:	0c00413e 	jal	800104f8 <cprintf>
80010ed4:	00000000 	nop
80010ed8:	3c028002 	lui	v0,0x8002
80010edc:	24442188 	addiu	a0,v0,8584
80010ee0:	3c028036 	lui	v0,0x8036
80010ee4:	2445f9e0 	addiu	a1,v0,-1568
80010ee8:	0c00413e 	jal	800104f8 <cprintf>
80010eec:	00000000 	nop
80010ef0:	3c028002 	lui	v0,0x8002
80010ef4:	244421a0 	addiu	a0,v0,8608
80010ef8:	3c028036 	lui	v0,0x8036
80010efc:	2445229c 	addiu	a1,v0,8860
80010f00:	0c00413e 	jal	800104f8 <cprintf>
80010f04:	00000000 	nop
80010f08:	3c028036 	lui	v0,0x8036
80010f0c:	2442229c 	addiu	v0,v0,8860
80010f10:	244303ff 	addiu	v1,v0,1023
80010f14:	3c028001 	lui	v0,0x8001
80010f18:	24420020 	addiu	v0,v0,32
80010f1c:	00621023 	subu	v0,v1,v0
80010f20:	04410002 	bgez	v0,80010f2c <print_kerninfo+0xa4>
80010f24:	00000000 	nop
80010f28:	244203ff 	addiu	v0,v0,1023
80010f2c:	00021283 	sra	v0,v0,0xa
80010f30:	3c038002 	lui	v1,0x8002
80010f34:	246421b8 	addiu	a0,v1,8632
80010f38:	00402821 	move	a1,v0
80010f3c:	0c00413e 	jal	800104f8 <cprintf>
80010f40:	00000000 	nop
80010f44:	03c0e821 	move	sp,s8
80010f48:	8fbf001c 	lw	ra,28(sp)
80010f4c:	8fbe0018 	lw	s8,24(sp)
80010f50:	27bd0020 	addiu	sp,sp,32
80010f54:	03e00008 	jr	ra
80010f58:	00000000 	nop

80010f5c <print_debuginfo>:
80010f5c:	27bdfeb8 	addiu	sp,sp,-328
80010f60:	afbf0144 	sw	ra,324(sp)
80010f64:	afbe0140 	sw	s8,320(sp)
80010f68:	03a0f021 	move	s8,sp
80010f6c:	afc40148 	sw	a0,328(s8)
80010f70:	27c20024 	addiu	v0,s8,36
80010f74:	8fc40148 	lw	a0,328(s8)
80010f78:	00402821 	move	a1,v0
80010f7c:	0c004231 	jal	800108c4 <debuginfo_eip>
80010f80:	00000000 	nop
80010f84:	10400008 	beqz	v0,80010fa8 <print_debuginfo+0x4c>
80010f88:	00000000 	nop
80010f8c:	3c028002 	lui	v0,0x8002
80010f90:	244421e4 	addiu	a0,v0,8676
80010f94:	8fc50148 	lw	a1,328(s8)
80010f98:	0c00413e 	jal	800104f8 <cprintf>
80010f9c:	00000000 	nop
80010fa0:	0800440e 	j	80011038 <print_debuginfo+0xdc>
80010fa4:	00000000 	nop
80010fa8:	afc00020 	sw	zero,32(s8)
80010fac:	080043f8 	j	80010fe0 <print_debuginfo+0x84>
80010fb0:	00000000 	nop
80010fb4:	8fc3002c 	lw	v1,44(s8)
80010fb8:	8fc20020 	lw	v0,32(s8)
80010fbc:	00621021 	addu	v0,v1,v0
80010fc0:	80430000 	lb	v1,0(v0)
80010fc4:	8fc20020 	lw	v0,32(s8)
80010fc8:	27c40020 	addiu	a0,s8,32
80010fcc:	00821021 	addu	v0,a0,v0
80010fd0:	a043001c 	sb	v1,28(v0)
80010fd4:	8fc20020 	lw	v0,32(s8)
80010fd8:	24420001 	addiu	v0,v0,1
80010fdc:	afc20020 	sw	v0,32(s8)
80010fe0:	8fc30030 	lw	v1,48(s8)
80010fe4:	8fc20020 	lw	v0,32(s8)
80010fe8:	0043102a 	slt	v0,v0,v1
80010fec:	1440fff1 	bnez	v0,80010fb4 <print_debuginfo+0x58>
80010ff0:	00000000 	nop
80010ff4:	8fc20020 	lw	v0,32(s8)
80010ff8:	27c30020 	addiu	v1,s8,32
80010ffc:	00621021 	addu	v0,v1,v0
80011000:	a040001c 	sb	zero,28(v0)
80011004:	8fc50024 	lw	a1,36(s8)
80011008:	8fc30028 	lw	v1,40(s8)
8001100c:	8fc20034 	lw	v0,52(s8)
80011010:	8fc40148 	lw	a0,328(s8)
80011014:	00822023 	subu	a0,a0,v0
80011018:	27c2003c 	addiu	v0,s8,60
8001101c:	afa40010 	sw	a0,16(sp)
80011020:	3c048002 	lui	a0,0x8002
80011024:	24842200 	addiu	a0,a0,8704
80011028:	00603021 	move	a2,v1
8001102c:	00403821 	move	a3,v0
80011030:	0c00413e 	jal	800104f8 <cprintf>
80011034:	00000000 	nop
80011038:	03c0e821 	move	sp,s8
8001103c:	8fbf0144 	lw	ra,324(sp)
80011040:	8fbe0140 	lw	s8,320(sp)
80011044:	27bd0148 	addiu	sp,sp,328
80011048:	03e00008 	jr	ra
8001104c:	00000000 	nop

80011050 <read_eip>:
80011050:	27bdffe8 	addiu	sp,sp,-24
80011054:	afbe0014 	sw	s8,20(sp)
80011058:	03a0f021 	move	s8,sp
8001105c:	03e01021 	move	v0,ra
80011060:	afc20008 	sw	v0,8(s8)
80011064:	8fc20008 	lw	v0,8(s8)
80011068:	03c0e821 	move	sp,s8
8001106c:	8fbe0014 	lw	s8,20(sp)
80011070:	27bd0018 	addiu	sp,sp,24
80011074:	03e00008 	jr	ra
80011078:	00000000 	nop

8001107c <print_stackframe>:
8001107c:	27bdffe0 	addiu	sp,sp,-32
80011080:	afbf001c 	sw	ra,28(sp)
80011084:	afbe0018 	sw	s8,24(sp)
80011088:	03a0f021 	move	s8,sp
8001108c:	3c028002 	lui	v0,0x8002
80011090:	24442214 	addiu	a0,v0,8724
80011094:	3c028002 	lui	v0,0x8002
80011098:	24452230 	addiu	a1,v0,8752
8001109c:	0c00413e 	jal	800104f8 <cprintf>
800110a0:	00000000 	nop
800110a4:	03c0e821 	move	sp,s8
800110a8:	8fbf001c 	lw	ra,28(sp)
800110ac:	8fbe0018 	lw	s8,24(sp)
800110b0:	27bd0020 	addiu	sp,sp,32
800110b4:	03e00008 	jr	ra
800110b8:	00000000 	nop
800110bc:	00000000 	nop

800110c0 <parse>:
800110c0:	27bdffd8 	addiu	sp,sp,-40
800110c4:	afbf0024 	sw	ra,36(sp)
800110c8:	afbe0020 	sw	s8,32(sp)
800110cc:	03a0f021 	move	s8,sp
800110d0:	afc40028 	sw	a0,40(s8)
800110d4:	afc5002c 	sw	a1,44(s8)
800110d8:	afc00018 	sw	zero,24(s8)
800110dc:	0800443d 	j	800110f4 <parse+0x34>
800110e0:	00000000 	nop
800110e4:	8fc20028 	lw	v0,40(s8)
800110e8:	24430001 	addiu	v1,v0,1
800110ec:	afc30028 	sw	v1,40(s8)
800110f0:	a0400000 	sb	zero,0(v0)
800110f4:	8fc20028 	lw	v0,40(s8)
800110f8:	80420000 	lb	v0,0(v0)
800110fc:	1040000a 	beqz	v0,80011128 <parse+0x68>
80011100:	00000000 	nop
80011104:	8fc20028 	lw	v0,40(s8)
80011108:	80420000 	lb	v0,0(v0)
8001110c:	3c038002 	lui	v1,0x8002
80011110:	246422d8 	addiu	a0,v1,8920
80011114:	00402821 	move	a1,v0
80011118:	0c008698 	jal	80021a60 <strchr>
8001111c:	00000000 	nop
80011120:	1440fff0 	bnez	v0,800110e4 <parse+0x24>
80011124:	00000000 	nop
80011128:	8fc20028 	lw	v0,40(s8)
8001112c:	80420000 	lb	v0,0(v0)
80011130:	14400003 	bnez	v0,80011140 <parse+0x80>
80011134:	00000000 	nop
80011138:	08004476 	j	800111d8 <parse+0x118>
8001113c:	00000000 	nop
80011140:	8fc30018 	lw	v1,24(s8)
80011144:	2402000f 	li	v0,15
80011148:	14620006 	bne	v1,v0,80011164 <parse+0xa4>
8001114c:	00000000 	nop
80011150:	3c028002 	lui	v0,0x8002
80011154:	244422e0 	addiu	a0,v0,8928
80011158:	24050010 	li	a1,16
8001115c:	0c00413e 	jal	800104f8 <cprintf>
80011160:	00000000 	nop
80011164:	8fc20018 	lw	v0,24(s8)
80011168:	24430001 	addiu	v1,v0,1
8001116c:	afc30018 	sw	v1,24(s8)
80011170:	00021080 	sll	v0,v0,0x2
80011174:	8fc3002c 	lw	v1,44(s8)
80011178:	00621021 	addu	v0,v1,v0
8001117c:	8fc30028 	lw	v1,40(s8)
80011180:	ac430000 	sw	v1,0(v0)
80011184:	08004466 	j	80011198 <parse+0xd8>
80011188:	00000000 	nop
8001118c:	8fc20028 	lw	v0,40(s8)
80011190:	24420001 	addiu	v0,v0,1
80011194:	afc20028 	sw	v0,40(s8)
80011198:	8fc20028 	lw	v0,40(s8)
8001119c:	80420000 	lb	v0,0(v0)
800111a0:	1040000a 	beqz	v0,800111cc <parse+0x10c>
800111a4:	00000000 	nop
800111a8:	8fc20028 	lw	v0,40(s8)
800111ac:	80420000 	lb	v0,0(v0)
800111b0:	3c038002 	lui	v1,0x8002
800111b4:	246422d8 	addiu	a0,v1,8920
800111b8:	00402821 	move	a1,v0
800111bc:	0c008698 	jal	80021a60 <strchr>
800111c0:	00000000 	nop
800111c4:	1040fff1 	beqz	v0,8001118c <parse+0xcc>
800111c8:	00000000 	nop
800111cc:	00000000 	nop
800111d0:	0800443d 	j	800110f4 <parse+0x34>
800111d4:	00000000 	nop
800111d8:	8fc20018 	lw	v0,24(s8)
800111dc:	03c0e821 	move	sp,s8
800111e0:	8fbf0024 	lw	ra,36(sp)
800111e4:	8fbe0020 	lw	s8,32(sp)
800111e8:	27bd0028 	addiu	sp,sp,40
800111ec:	03e00008 	jr	ra
800111f0:	00000000 	nop

800111f4 <runcmd>:
800111f4:	27bdff98 	addiu	sp,sp,-104
800111f8:	afbf0064 	sw	ra,100(sp)
800111fc:	afbe0060 	sw	s8,96(sp)
80011200:	03a0f021 	move	s8,sp
80011204:	afc40068 	sw	a0,104(s8)
80011208:	afc5006c 	sw	a1,108(s8)
8001120c:	27c20020 	addiu	v0,s8,32
80011210:	8fc40068 	lw	a0,104(s8)
80011214:	00402821 	move	a1,v0
80011218:	0c004430 	jal	800110c0 <parse>
8001121c:	00000000 	nop
80011220:	afc2001c 	sw	v0,28(s8)
80011224:	8fc2001c 	lw	v0,28(s8)
80011228:	14400004 	bnez	v0,8001123c <runcmd+0x48>
8001122c:	00000000 	nop
80011230:	00001021 	move	v0,zero
80011234:	080044c2 	j	80011308 <runcmd+0x114>
80011238:	00000000 	nop
8001123c:	afc00018 	sw	zero,24(s8)
80011240:	080044b7 	j	800112dc <runcmd+0xe8>
80011244:	00000000 	nop
80011248:	3c048036 	lui	a0,0x8036
8001124c:	8fc20018 	lw	v0,24(s8)
80011250:	00021080 	sll	v0,v0,0x2
80011254:	00021880 	sll	v1,v0,0x2
80011258:	00621823 	subu	v1,v1,v0
8001125c:	2482f510 	addiu	v0,a0,-2800
80011260:	00621021 	addu	v0,v1,v0
80011264:	8c430000 	lw	v1,0(v0)
80011268:	8fc20020 	lw	v0,32(s8)
8001126c:	00602021 	move	a0,v1
80011270:	00402821 	move	a1,v0
80011274:	0c008643 	jal	8002190c <strcmp>
80011278:	00000000 	nop
8001127c:	14400014 	bnez	v0,800112d0 <runcmd+0xdc>
80011280:	00000000 	nop
80011284:	3c048036 	lui	a0,0x8036
80011288:	8fc20018 	lw	v0,24(s8)
8001128c:	00021080 	sll	v0,v0,0x2
80011290:	00021880 	sll	v1,v0,0x2
80011294:	00621823 	subu	v1,v1,v0
80011298:	2482f510 	addiu	v0,a0,-2800
8001129c:	00621021 	addu	v0,v1,v0
800112a0:	8c420008 	lw	v0,8(v0)
800112a4:	8fc3001c 	lw	v1,28(s8)
800112a8:	2464ffff 	addiu	a0,v1,-1
800112ac:	27c30020 	addiu	v1,s8,32
800112b0:	24630004 	addiu	v1,v1,4
800112b4:	00602821 	move	a1,v1
800112b8:	8fc6006c 	lw	a2,108(s8)
800112bc:	0040c821 	move	t9,v0
800112c0:	0320f809 	jalr	t9
800112c4:	00000000 	nop
800112c8:	080044c2 	j	80011308 <runcmd+0x114>
800112cc:	00000000 	nop
800112d0:	8fc20018 	lw	v0,24(s8)
800112d4:	24420001 	addiu	v0,v0,1
800112d8:	afc20018 	sw	v0,24(s8)
800112dc:	8fc20018 	lw	v0,24(s8)
800112e0:	2c420003 	sltiu	v0,v0,3
800112e4:	1440ffd8 	bnez	v0,80011248 <runcmd+0x54>
800112e8:	00000000 	nop
800112ec:	8fc20020 	lw	v0,32(s8)
800112f0:	3c038002 	lui	v1,0x8002
800112f4:	24642300 	addiu	a0,v1,8960
800112f8:	00402821 	move	a1,v0
800112fc:	0c00413e 	jal	800104f8 <cprintf>
80011300:	00000000 	nop
80011304:	00001021 	move	v0,zero
80011308:	03c0e821 	move	sp,s8
8001130c:	8fbf0064 	lw	ra,100(sp)
80011310:	8fbe0060 	lw	s8,96(sp)
80011314:	27bd0068 	addiu	sp,sp,104
80011318:	03e00008 	jr	ra
8001131c:	00000000 	nop

80011320 <kmonitor>:
80011320:	27bdffd8 	addiu	sp,sp,-40
80011324:	afbf0024 	sw	ra,36(sp)
80011328:	afbe0020 	sw	s8,32(sp)
8001132c:	03a0f021 	move	s8,sp
80011330:	afc40028 	sw	a0,40(s8)
80011334:	3c028002 	lui	v0,0x8002
80011338:	24442318 	addiu	a0,v0,8984
8001133c:	0c00413e 	jal	800104f8 <cprintf>
80011340:	00000000 	nop
80011344:	3c028002 	lui	v0,0x8002
80011348:	24442340 	addiu	a0,v0,9024
8001134c:	0c00413e 	jal	800104f8 <cprintf>
80011350:	00000000 	nop
80011354:	8fc20028 	lw	v0,40(s8)
80011358:	10400004 	beqz	v0,8001136c <kmonitor+0x4c>
8001135c:	00000000 	nop
80011360:	8fc40028 	lw	a0,40(s8)
80011364:	0c004787 	jal	80011e1c <print_trapframe>
80011368:	00000000 	nop
8001136c:	3c028002 	lui	v0,0x8002
80011370:	24442368 	addiu	a0,v0,9064
80011374:	0c0040b8 	jal	800102e0 <readline>
80011378:	00000000 	nop
8001137c:	afc20018 	sw	v0,24(s8)
80011380:	8fc20018 	lw	v0,24(s8)
80011384:	10400009 	beqz	v0,800113ac <kmonitor+0x8c>
80011388:	00000000 	nop
8001138c:	8fc40018 	lw	a0,24(s8)
80011390:	8fc50028 	lw	a1,40(s8)
80011394:	0c00447d 	jal	800111f4 <runcmd>
80011398:	00000000 	nop
8001139c:	04410003 	bgez	v0,800113ac <kmonitor+0x8c>
800113a0:	00000000 	nop
800113a4:	080044ed 	j	800113b4 <kmonitor+0x94>
800113a8:	00000000 	nop
800113ac:	080044db 	j	8001136c <kmonitor+0x4c>
800113b0:	00000000 	nop
800113b4:	03c0e821 	move	sp,s8
800113b8:	8fbf0024 	lw	ra,36(sp)
800113bc:	8fbe0020 	lw	s8,32(sp)
800113c0:	27bd0028 	addiu	sp,sp,40
800113c4:	03e00008 	jr	ra
800113c8:	00000000 	nop

800113cc <mon_help>:
800113cc:	27bdffd8 	addiu	sp,sp,-40
800113d0:	afbf0024 	sw	ra,36(sp)
800113d4:	afbe0020 	sw	s8,32(sp)
800113d8:	03a0f021 	move	s8,sp
800113dc:	afc40028 	sw	a0,40(s8)
800113e0:	afc5002c 	sw	a1,44(s8)
800113e4:	afc60030 	sw	a2,48(s8)
800113e8:	afc00018 	sw	zero,24(s8)
800113ec:	08004516 	j	80011458 <mon_help+0x8c>
800113f0:	00000000 	nop
800113f4:	3c048036 	lui	a0,0x8036
800113f8:	8fc20018 	lw	v0,24(s8)
800113fc:	00021080 	sll	v0,v0,0x2
80011400:	00021880 	sll	v1,v0,0x2
80011404:	00621823 	subu	v1,v1,v0
80011408:	2482f510 	addiu	v0,a0,-2800
8001140c:	00621021 	addu	v0,v1,v0
80011410:	8c430000 	lw	v1,0(v0)
80011414:	3c048036 	lui	a0,0x8036
80011418:	8fc20018 	lw	v0,24(s8)
8001141c:	2484f510 	addiu	a0,a0,-2800
80011420:	00021080 	sll	v0,v0,0x2
80011424:	00022880 	sll	a1,v0,0x2
80011428:	00a21023 	subu	v0,a1,v0
8001142c:	00821021 	addu	v0,a0,v0
80011430:	8c420004 	lw	v0,4(v0)
80011434:	3c048002 	lui	a0,0x8002
80011438:	2484236c 	addiu	a0,a0,9068
8001143c:	00602821 	move	a1,v1
80011440:	00403021 	move	a2,v0
80011444:	0c00413e 	jal	800104f8 <cprintf>
80011448:	00000000 	nop
8001144c:	8fc20018 	lw	v0,24(s8)
80011450:	24420001 	addiu	v0,v0,1
80011454:	afc20018 	sw	v0,24(s8)
80011458:	8fc20018 	lw	v0,24(s8)
8001145c:	2c420003 	sltiu	v0,v0,3
80011460:	1440ffe4 	bnez	v0,800113f4 <mon_help+0x28>
80011464:	00000000 	nop
80011468:	00001021 	move	v0,zero
8001146c:	03c0e821 	move	sp,s8
80011470:	8fbf0024 	lw	ra,36(sp)
80011474:	8fbe0020 	lw	s8,32(sp)
80011478:	27bd0028 	addiu	sp,sp,40
8001147c:	03e00008 	jr	ra
80011480:	00000000 	nop

80011484 <mon_kerninfo>:
80011484:	27bdffe0 	addiu	sp,sp,-32
80011488:	afbf001c 	sw	ra,28(sp)
8001148c:	afbe0018 	sw	s8,24(sp)
80011490:	03a0f021 	move	s8,sp
80011494:	afc40020 	sw	a0,32(s8)
80011498:	afc50024 	sw	a1,36(s8)
8001149c:	afc60028 	sw	a2,40(s8)
800114a0:	0c0043a2 	jal	80010e88 <print_kerninfo>
800114a4:	00000000 	nop
800114a8:	00001021 	move	v0,zero
800114ac:	03c0e821 	move	sp,s8
800114b0:	8fbf001c 	lw	ra,28(sp)
800114b4:	8fbe0018 	lw	s8,24(sp)
800114b8:	27bd0020 	addiu	sp,sp,32
800114bc:	03e00008 	jr	ra
800114c0:	00000000 	nop

800114c4 <mon_backtrace>:
800114c4:	27bdffe0 	addiu	sp,sp,-32
800114c8:	afbf001c 	sw	ra,28(sp)
800114cc:	afbe0018 	sw	s8,24(sp)
800114d0:	03a0f021 	move	s8,sp
800114d4:	afc40020 	sw	a0,32(s8)
800114d8:	afc50024 	sw	a1,36(s8)
800114dc:	afc60028 	sw	a2,40(s8)
800114e0:	0c00441f 	jal	8001107c <print_stackframe>
800114e4:	00000000 	nop
800114e8:	00001021 	move	v0,zero
800114ec:	03c0e821 	move	sp,s8
800114f0:	8fbf001c 	lw	ra,28(sp)
800114f4:	8fbe0018 	lw	s8,24(sp)
800114f8:	27bd0020 	addiu	sp,sp,32
800114fc:	03e00008 	jr	ra
80011500:	00000000 	nop
	...

80011510 <__panic>:
80011510:	27bdffd8 	addiu	sp,sp,-40
80011514:	afbf0024 	sw	ra,36(sp)
80011518:	afbe0020 	sw	s8,32(sp)
8001151c:	03a0f021 	move	s8,sp
80011520:	afc40028 	sw	a0,40(s8)
80011524:	afc5002c 	sw	a1,44(s8)
80011528:	afc70034 	sw	a3,52(s8)
8001152c:	afc60030 	sw	a2,48(s8)
80011530:	3c028036 	lui	v0,0x8036
80011534:	8c42fde0 	lw	v0,-544(v0)
80011538:	10400003 	beqz	v0,80011548 <__panic+0x38>
8001153c:	00000000 	nop
80011540:	08004566 	j	80011598 <__panic+0x88>
80011544:	00000000 	nop
80011548:	3c028036 	lui	v0,0x8036
8001154c:	24030001 	li	v1,1
80011550:	ac43fde0 	sw	v1,-544(v0)
80011554:	27c20034 	addiu	v0,s8,52
80011558:	afc20018 	sw	v0,24(s8)
8001155c:	3c028002 	lui	v0,0x8002
80011560:	24442380 	addiu	a0,v0,9088
80011564:	8fc50028 	lw	a1,40(s8)
80011568:	8fc6002c 	lw	a2,44(s8)
8001156c:	0c00413e 	jal	800104f8 <cprintf>
80011570:	00000000 	nop
80011574:	8fc20018 	lw	v0,24(s8)
80011578:	8fc40030 	lw	a0,48(s8)
8001157c:	00402821 	move	a1,v0
80011580:	0c004128 	jal	800104a0 <vcprintf>
80011584:	00000000 	nop
80011588:	3c028002 	lui	v0,0x8002
8001158c:	2444239c 	addiu	a0,v0,9116
80011590:	0c00413e 	jal	800104f8 <cprintf>
80011594:	00000000 	nop
80011598:	0c0046d7 	jal	80011b5c <intr_disable>
8001159c:	00000000 	nop
800115a0:	00002021 	move	a0,zero
800115a4:	0c0044c8 	jal	80011320 <kmonitor>
800115a8:	00000000 	nop
800115ac:	08004568 	j	800115a0 <__panic+0x90>
800115b0:	00000000 	nop

800115b4 <__warn>:
800115b4:	27bdffd8 	addiu	sp,sp,-40
800115b8:	afbf0024 	sw	ra,36(sp)
800115bc:	afbe0020 	sw	s8,32(sp)
800115c0:	03a0f021 	move	s8,sp
800115c4:	afc40028 	sw	a0,40(s8)
800115c8:	afc5002c 	sw	a1,44(s8)
800115cc:	afc70034 	sw	a3,52(s8)
800115d0:	afc60030 	sw	a2,48(s8)
800115d4:	27c20034 	addiu	v0,s8,52
800115d8:	afc20018 	sw	v0,24(s8)
800115dc:	3c028002 	lui	v0,0x8002
800115e0:	244423a0 	addiu	a0,v0,9120
800115e4:	8fc50028 	lw	a1,40(s8)
800115e8:	8fc6002c 	lw	a2,44(s8)
800115ec:	0c00413e 	jal	800104f8 <cprintf>
800115f0:	00000000 	nop
800115f4:	8fc20018 	lw	v0,24(s8)
800115f8:	8fc40030 	lw	a0,48(s8)
800115fc:	00402821 	move	a1,v0
80011600:	0c004128 	jal	800104a0 <vcprintf>
80011604:	00000000 	nop
80011608:	3c028002 	lui	v0,0x8002
8001160c:	2444239c 	addiu	a0,v0,9116
80011610:	0c00413e 	jal	800104f8 <cprintf>
80011614:	00000000 	nop
80011618:	03c0e821 	move	sp,s8
8001161c:	8fbf0024 	lw	ra,36(sp)
80011620:	8fbe0020 	lw	s8,32(sp)
80011624:	27bd0028 	addiu	sp,sp,40
80011628:	03e00008 	jr	ra
8001162c:	00000000 	nop

80011630 <is_kernel_panic>:
80011630:	27bdfff8 	addiu	sp,sp,-8
80011634:	afbe0004 	sw	s8,4(sp)
80011638:	03a0f021 	move	s8,sp
8001163c:	3c028036 	lui	v0,0x8036
80011640:	8c42fde0 	lw	v0,-544(v0)
80011644:	03c0e821 	move	sp,s8
80011648:	8fbe0004 	lw	s8,4(sp)
8001164c:	27bd0008 	addiu	sp,sp,8
80011650:	03e00008 	jr	ra
80011654:	00000000 	nop
	...

80011660 <clock_init>:
80011660:	27bdffe0 	addiu	sp,sp,-32
80011664:	afbf001c 	sw	ra,28(sp)
80011668:	afbe0018 	sw	s8,24(sp)
8001166c:	03a0f021 	move	s8,sp
80011670:	3c028036 	lui	v0,0x8036
80011674:	ac40229c 	sw	zero,8860(v0)
80011678:	3c028002 	lui	v0,0x8002
8001167c:	244423c0 	addiu	a0,v0,9152
80011680:	0c00413e 	jal	800104f8 <cprintf>
80011684:	00000000 	nop
80011688:	24040007 	li	a0,7
8001168c:	0c004707 	jal	80011c1c <pic_enable>
80011690:	00000000 	nop
80011694:	03c0e821 	move	sp,s8
80011698:	8fbf001c 	lw	ra,28(sp)
8001169c:	8fbe0018 	lw	s8,24(sp)
800116a0:	27bd0020 	addiu	sp,sp,32
800116a4:	03e00008 	jr	ra
800116a8:	00000000 	nop

800116ac <clock_intr>:
800116ac:	27bdfff8 	addiu	sp,sp,-8
800116b0:	afbe0004 	sw	s8,4(sp)
800116b4:	03a0f021 	move	s8,sp
800116b8:	3c020002 	lui	v0,0x2
800116bc:	40825800 	mtc0	v0,c0_compare
800116c0:	03c0e821 	move	sp,s8
800116c4:	8fbe0004 	lw	s8,4(sp)
800116c8:	27bd0008 	addiu	sp,sp,8
800116cc:	03e00008 	jr	ra
800116d0:	00000000 	nop
	...

800116e0 <__intr_save>:
800116e0:	27bdffd8 	addiu	sp,sp,-40
800116e4:	afbf0024 	sw	ra,36(sp)
800116e8:	afbe0020 	sw	s8,32(sp)
800116ec:	03a0f021 	move	s8,sp
800116f0:	40026000 	mfc0	v0,c0_status
800116f4:	afc20018 	sw	v0,24(s8)
800116f8:	8fc20018 	lw	v0,24(s8)
800116fc:	30420001 	andi	v0,v0,0x1
80011700:	10400006 	beqz	v0,8001171c <__intr_save+0x3c>
80011704:	00000000 	nop
80011708:	0c0046d7 	jal	80011b5c <intr_disable>
8001170c:	00000000 	nop
80011710:	24020001 	li	v0,1
80011714:	080045c8 	j	80011720 <__intr_save+0x40>
80011718:	00000000 	nop
8001171c:	00001021 	move	v0,zero
80011720:	03c0e821 	move	sp,s8
80011724:	8fbf0024 	lw	ra,36(sp)
80011728:	8fbe0020 	lw	s8,32(sp)
8001172c:	27bd0028 	addiu	sp,sp,40
80011730:	03e00008 	jr	ra
80011734:	00000000 	nop

80011738 <__intr_restore>:
80011738:	27bdffe0 	addiu	sp,sp,-32
8001173c:	afbf001c 	sw	ra,28(sp)
80011740:	afbe0018 	sw	s8,24(sp)
80011744:	03a0f021 	move	s8,sp
80011748:	afc40020 	sw	a0,32(s8)
8001174c:	8fc20020 	lw	v0,32(s8)
80011750:	10400003 	beqz	v0,80011760 <__intr_restore+0x28>
80011754:	00000000 	nop
80011758:	0c0046c8 	jal	80011b20 <intr_enable>
8001175c:	00000000 	nop
80011760:	03c0e821 	move	sp,s8
80011764:	8fbf001c 	lw	ra,28(sp)
80011768:	8fbe0018 	lw	s8,24(sp)
8001176c:	27bd0020 	addiu	sp,sp,32
80011770:	03e00008 	jr	ra
80011774:	00000000 	nop

80011778 <serial_init>:
80011778:	27bdfff8 	addiu	sp,sp,-8
8001177c:	afbe0004 	sw	s8,4(sp)
80011780:	03a0f021 	move	s8,sp
80011784:	3c028036 	lui	v0,0x8036
80011788:	24030001 	li	v1,1
8001178c:	ac43fdf0 	sw	v1,-528(v0)
80011790:	03c0e821 	move	sp,s8
80011794:	8fbe0004 	lw	s8,4(sp)
80011798:	27bd0008 	addiu	sp,sp,8
8001179c:	03e00008 	jr	ra
800117a0:	00000000 	nop

800117a4 <serial_putc_sub>:
800117a4:	27bdfff8 	addiu	sp,sp,-8
800117a8:	afbe0004 	sw	s8,4(sp)
800117ac:	03a0f021 	move	s8,sp
800117b0:	afc40008 	sw	a0,8(s8)
800117b4:	00000000 	nop
800117b8:	3c02bfd0 	lui	v0,0xbfd0
800117bc:	344203fc 	ori	v0,v0,0x3fc
800117c0:	8c420000 	lw	v0,0(v0)
800117c4:	30420001 	andi	v0,v0,0x1
800117c8:	1040fffb 	beqz	v0,800117b8 <serial_putc_sub+0x14>
800117cc:	00000000 	nop
800117d0:	3c02bfd0 	lui	v0,0xbfd0
800117d4:	344203f8 	ori	v0,v0,0x3f8
800117d8:	8fc30008 	lw	v1,8(s8)
800117dc:	ac430000 	sw	v1,0(v0)
800117e0:	03c0e821 	move	sp,s8
800117e4:	8fbe0004 	lw	s8,4(sp)
800117e8:	27bd0008 	addiu	sp,sp,8
800117ec:	03e00008 	jr	ra
800117f0:	00000000 	nop

800117f4 <serial_putc>:
800117f4:	27bdffe0 	addiu	sp,sp,-32
800117f8:	afbf001c 	sw	ra,28(sp)
800117fc:	afbe0018 	sw	s8,24(sp)
80011800:	03a0f021 	move	s8,sp
80011804:	afc40020 	sw	a0,32(s8)
80011808:	8fc30020 	lw	v1,32(s8)
8001180c:	24020008 	li	v0,8
80011810:	10620006 	beq	v1,v0,8001182c <serial_putc+0x38>
80011814:	00000000 	nop
80011818:	8fc40020 	lw	a0,32(s8)
8001181c:	0c0045e9 	jal	800117a4 <serial_putc_sub>
80011820:	00000000 	nop
80011824:	08004614 	j	80011850 <serial_putc+0x5c>
80011828:	00000000 	nop
8001182c:	24040008 	li	a0,8
80011830:	0c0045e9 	jal	800117a4 <serial_putc_sub>
80011834:	00000000 	nop
80011838:	24040020 	li	a0,32
8001183c:	0c0045e9 	jal	800117a4 <serial_putc_sub>
80011840:	00000000 	nop
80011844:	24040008 	li	a0,8
80011848:	0c0045e9 	jal	800117a4 <serial_putc_sub>
8001184c:	00000000 	nop
80011850:	03c0e821 	move	sp,s8
80011854:	8fbf001c 	lw	ra,28(sp)
80011858:	8fbe0018 	lw	s8,24(sp)
8001185c:	27bd0020 	addiu	sp,sp,32
80011860:	03e00008 	jr	ra
80011864:	00000000 	nop

80011868 <cons_intr>:
80011868:	27bdffd8 	addiu	sp,sp,-40
8001186c:	afbf0024 	sw	ra,36(sp)
80011870:	afbe0020 	sw	s8,32(sp)
80011874:	03a0f021 	move	s8,sp
80011878:	afc40028 	sw	a0,40(s8)
8001187c:	0800463a 	j	800118e8 <cons_intr+0x80>
80011880:	00000000 	nop
80011884:	8fc20018 	lw	v0,24(s8)
80011888:	10400017 	beqz	v0,800118e8 <cons_intr+0x80>
8001188c:	00000000 	nop
80011890:	3c028036 	lui	v0,0x8036
80011894:	2442fdf4 	addiu	v0,v0,-524
80011898:	8c420204 	lw	v0,516(v0)
8001189c:	24440001 	addiu	a0,v0,1
800118a0:	3c038036 	lui	v1,0x8036
800118a4:	2463fdf4 	addiu	v1,v1,-524
800118a8:	ac640204 	sw	a0,516(v1)
800118ac:	8fc30018 	lw	v1,24(s8)
800118b0:	306300ff 	andi	v1,v1,0xff
800118b4:	3c048036 	lui	a0,0x8036
800118b8:	2484fdf4 	addiu	a0,a0,-524
800118bc:	00441021 	addu	v0,v0,a0
800118c0:	a0430000 	sb	v1,0(v0)
800118c4:	3c028036 	lui	v0,0x8036
800118c8:	2442fdf4 	addiu	v0,v0,-524
800118cc:	8c430204 	lw	v1,516(v0)
800118d0:	24020200 	li	v0,512
800118d4:	14620004 	bne	v1,v0,800118e8 <cons_intr+0x80>
800118d8:	00000000 	nop
800118dc:	3c028036 	lui	v0,0x8036
800118e0:	2442fdf4 	addiu	v0,v0,-524
800118e4:	ac400204 	sw	zero,516(v0)
800118e8:	8fc20028 	lw	v0,40(s8)
800118ec:	0040c821 	move	t9,v0
800118f0:	0320f809 	jalr	t9
800118f4:	00000000 	nop
800118f8:	afc20018 	sw	v0,24(s8)
800118fc:	8fc30018 	lw	v1,24(s8)
80011900:	2402ffff 	li	v0,-1
80011904:	1462ffdf 	bne	v1,v0,80011884 <cons_intr+0x1c>
80011908:	00000000 	nop
8001190c:	03c0e821 	move	sp,s8
80011910:	8fbf0024 	lw	ra,36(sp)
80011914:	8fbe0020 	lw	s8,32(sp)
80011918:	27bd0028 	addiu	sp,sp,40
8001191c:	03e00008 	jr	ra
80011920:	00000000 	nop

80011924 <serial_proc_data>:
80011924:	27bdffe8 	addiu	sp,sp,-24
80011928:	afbe0014 	sw	s8,20(sp)
8001192c:	03a0f021 	move	s8,sp
80011930:	2402ffff 	li	v0,-1
80011934:	afc20008 	sw	v0,8(s8)
80011938:	8fc30008 	lw	v1,8(s8)
8001193c:	2402007f 	li	v0,127
80011940:	14620003 	bne	v1,v0,80011950 <serial_proc_data+0x2c>
80011944:	00000000 	nop
80011948:	24020008 	li	v0,8
8001194c:	afc20008 	sw	v0,8(s8)
80011950:	8fc20008 	lw	v0,8(s8)
80011954:	03c0e821 	move	sp,s8
80011958:	8fbe0014 	lw	s8,20(sp)
8001195c:	27bd0018 	addiu	sp,sp,24
80011960:	03e00008 	jr	ra
80011964:	00000000 	nop

80011968 <serial_intr>:
80011968:	27bdffe0 	addiu	sp,sp,-32
8001196c:	afbf001c 	sw	ra,28(sp)
80011970:	afbe0018 	sw	s8,24(sp)
80011974:	03a0f021 	move	s8,sp
80011978:	3c028036 	lui	v0,0x8036
8001197c:	8c42fdf0 	lw	v0,-528(v0)
80011980:	10400005 	beqz	v0,80011998 <serial_intr+0x30>
80011984:	00000000 	nop
80011988:	3c028001 	lui	v0,0x8001
8001198c:	24441924 	addiu	a0,v0,6436
80011990:	0c00461a 	jal	80011868 <cons_intr>
80011994:	00000000 	nop
80011998:	03c0e821 	move	sp,s8
8001199c:	8fbf001c 	lw	ra,28(sp)
800119a0:	8fbe0018 	lw	s8,24(sp)
800119a4:	27bd0020 	addiu	sp,sp,32
800119a8:	03e00008 	jr	ra
800119ac:	00000000 	nop

800119b0 <cons_init>:
800119b0:	27bdffe0 	addiu	sp,sp,-32
800119b4:	afbf001c 	sw	ra,28(sp)
800119b8:	afbe0018 	sw	s8,24(sp)
800119bc:	03a0f021 	move	s8,sp
800119c0:	0c0045de 	jal	80011778 <serial_init>
800119c4:	00000000 	nop
800119c8:	3c028036 	lui	v0,0x8036
800119cc:	8c42fdf0 	lw	v0,-528(v0)
800119d0:	14400005 	bnez	v0,800119e8 <cons_init+0x38>
800119d4:	00000000 	nop
800119d8:	3c028002 	lui	v0,0x8002
800119dc:	244423e0 	addiu	a0,v0,9184
800119e0:	0c00413e 	jal	800104f8 <cprintf>
800119e4:	00000000 	nop
800119e8:	03c0e821 	move	sp,s8
800119ec:	8fbf001c 	lw	ra,28(sp)
800119f0:	8fbe0018 	lw	s8,24(sp)
800119f4:	27bd0020 	addiu	sp,sp,32
800119f8:	03e00008 	jr	ra
800119fc:	00000000 	nop

80011a00 <cons_putc>:
80011a00:	27bdffd8 	addiu	sp,sp,-40
80011a04:	afbf0024 	sw	ra,36(sp)
80011a08:	afbe0020 	sw	s8,32(sp)
80011a0c:	03a0f021 	move	s8,sp
80011a10:	afc40028 	sw	a0,40(s8)
80011a14:	0c0045b8 	jal	800116e0 <__intr_save>
80011a18:	00000000 	nop
80011a1c:	afc20018 	sw	v0,24(s8)
80011a20:	8fc40028 	lw	a0,40(s8)
80011a24:	0c0045fd 	jal	800117f4 <serial_putc>
80011a28:	00000000 	nop
80011a2c:	8fc40018 	lw	a0,24(s8)
80011a30:	0c0045ce 	jal	80011738 <__intr_restore>
80011a34:	00000000 	nop
80011a38:	03c0e821 	move	sp,s8
80011a3c:	8fbf0024 	lw	ra,36(sp)
80011a40:	8fbe0020 	lw	s8,32(sp)
80011a44:	27bd0028 	addiu	sp,sp,40
80011a48:	03e00008 	jr	ra
80011a4c:	00000000 	nop

80011a50 <cons_getc>:
80011a50:	27bdffd8 	addiu	sp,sp,-40
80011a54:	afbf0024 	sw	ra,36(sp)
80011a58:	afbe0020 	sw	s8,32(sp)
80011a5c:	03a0f021 	move	s8,sp
80011a60:	afc00018 	sw	zero,24(s8)
80011a64:	0c0045b8 	jal	800116e0 <__intr_save>
80011a68:	00000000 	nop
80011a6c:	afc2001c 	sw	v0,28(s8)
80011a70:	0c00465a 	jal	80011968 <serial_intr>
80011a74:	00000000 	nop
80011a78:	3c028036 	lui	v0,0x8036
80011a7c:	2442fdf4 	addiu	v0,v0,-524
80011a80:	8c430200 	lw	v1,512(v0)
80011a84:	3c028036 	lui	v0,0x8036
80011a88:	2442fdf4 	addiu	v0,v0,-524
80011a8c:	8c420204 	lw	v0,516(v0)
80011a90:	10620016 	beq	v1,v0,80011aec <cons_getc+0x9c>
80011a94:	00000000 	nop
80011a98:	3c028036 	lui	v0,0x8036
80011a9c:	2442fdf4 	addiu	v0,v0,-524
80011aa0:	8c420200 	lw	v0,512(v0)
80011aa4:	24440001 	addiu	a0,v0,1
80011aa8:	3c038036 	lui	v1,0x8036
80011aac:	2463fdf4 	addiu	v1,v1,-524
80011ab0:	ac640200 	sw	a0,512(v1)
80011ab4:	3c038036 	lui	v1,0x8036
80011ab8:	2463fdf4 	addiu	v1,v1,-524
80011abc:	00431021 	addu	v0,v0,v1
80011ac0:	90420000 	lbu	v0,0(v0)
80011ac4:	afc20018 	sw	v0,24(s8)
80011ac8:	3c028036 	lui	v0,0x8036
80011acc:	2442fdf4 	addiu	v0,v0,-524
80011ad0:	8c430200 	lw	v1,512(v0)
80011ad4:	24020200 	li	v0,512
80011ad8:	14620004 	bne	v1,v0,80011aec <cons_getc+0x9c>
80011adc:	00000000 	nop
80011ae0:	3c028036 	lui	v0,0x8036
80011ae4:	2442fdf4 	addiu	v0,v0,-524
80011ae8:	ac400200 	sw	zero,512(v0)
80011aec:	8fc4001c 	lw	a0,28(s8)
80011af0:	0c0045ce 	jal	80011738 <__intr_restore>
80011af4:	00000000 	nop
80011af8:	8fc20018 	lw	v0,24(s8)
80011afc:	03c0e821 	move	sp,s8
80011b00:	8fbf0024 	lw	ra,36(sp)
80011b04:	8fbe0020 	lw	s8,32(sp)
80011b08:	27bd0028 	addiu	sp,sp,40
80011b0c:	03e00008 	jr	ra
80011b10:	00000000 	nop
	...

80011b20 <intr_enable>:
80011b20:	27bdffe8 	addiu	sp,sp,-24
80011b24:	afbe0014 	sw	s8,20(sp)
80011b28:	03a0f021 	move	s8,sp
80011b2c:	40026000 	mfc0	v0,c0_status
80011b30:	afc20008 	sw	v0,8(s8)
80011b34:	8fc20008 	lw	v0,8(s8)
80011b38:	afc2000c 	sw	v0,12(s8)
80011b3c:	8fc2000c 	lw	v0,12(s8)
80011b40:	34420001 	ori	v0,v0,0x1
80011b44:	40826000 	mtc0	v0,c0_status
80011b48:	03c0e821 	move	sp,s8
80011b4c:	8fbe0014 	lw	s8,20(sp)
80011b50:	27bd0018 	addiu	sp,sp,24
80011b54:	03e00008 	jr	ra
80011b58:	00000000 	nop

80011b5c <intr_disable>:
80011b5c:	27bdffe8 	addiu	sp,sp,-24
80011b60:	afbe0014 	sw	s8,20(sp)
80011b64:	03a0f021 	move	s8,sp
80011b68:	40026000 	mfc0	v0,c0_status
80011b6c:	afc20008 	sw	v0,8(s8)
80011b70:	8fc20008 	lw	v0,8(s8)
80011b74:	afc2000c 	sw	v0,12(s8)
80011b78:	8fc3000c 	lw	v1,12(s8)
80011b7c:	2402fffe 	li	v0,-2
80011b80:	00621024 	and	v0,v1,v0
80011b84:	40826000 	mtc0	v0,c0_status
80011b88:	03c0e821 	move	sp,s8
80011b8c:	8fbe0014 	lw	s8,20(sp)
80011b90:	27bd0018 	addiu	sp,sp,24
80011b94:	03e00008 	jr	ra
80011b98:	00000000 	nop
80011b9c:	00000000 	nop

80011ba0 <pic_setmask>:
80011ba0:	27bdffe8 	addiu	sp,sp,-24
80011ba4:	afbe0014 	sw	s8,20(sp)
80011ba8:	03a0f021 	move	s8,sp
80011bac:	00801021 	move	v0,a0
80011bb0:	a3c20018 	sb	v0,24(s8)
80011bb4:	3c028036 	lui	v0,0x8036
80011bb8:	93c30018 	lbu	v1,24(s8)
80011bbc:	a0430000 	sb	v1,0(v0)
80011bc0:	3c028036 	lui	v0,0x8036
80011bc4:	8c420004 	lw	v0,4(v0)
80011bc8:	1040000f 	beqz	v0,80011c08 <pic_setmask+0x68>
80011bcc:	00000000 	nop
80011bd0:	40026000 	mfc0	v0,c0_status
80011bd4:	afc20008 	sw	v0,8(s8)
80011bd8:	8fc20008 	lw	v0,8(s8)
80011bdc:	afc2000c 	sw	v0,12(s8)
80011be0:	8fc3000c 	lw	v1,12(s8)
80011be4:	3c02ffff 	lui	v0,0xffff
80011be8:	344200ff 	ori	v0,v0,0xff
80011bec:	00621824 	and	v1,v1,v0
80011bf0:	93c20018 	lbu	v0,24(s8)
80011bf4:	00021200 	sll	v0,v0,0x8
80011bf8:	00621025 	or	v0,v1,v0
80011bfc:	afc2000c 	sw	v0,12(s8)
80011c00:	8fc2000c 	lw	v0,12(s8)
80011c04:	40826000 	mtc0	v0,c0_status
80011c08:	03c0e821 	move	sp,s8
80011c0c:	8fbe0014 	lw	s8,20(sp)
80011c10:	27bd0018 	addiu	sp,sp,24
80011c14:	03e00008 	jr	ra
80011c18:	00000000 	nop

80011c1c <pic_enable>:
80011c1c:	27bdffe0 	addiu	sp,sp,-32
80011c20:	afbf001c 	sw	ra,28(sp)
80011c24:	afbe0018 	sw	s8,24(sp)
80011c28:	03a0f021 	move	s8,sp
80011c2c:	afc40020 	sw	a0,32(s8)
80011c30:	8fc20020 	lw	v0,32(s8)
80011c34:	24030001 	li	v1,1
80011c38:	00431004 	sllv	v0,v1,v0
80011c3c:	00021e00 	sll	v1,v0,0x18
80011c40:	00031e03 	sra	v1,v1,0x18
80011c44:	3c028036 	lui	v0,0x8036
80011c48:	90420000 	lbu	v0,0(v0)
80011c4c:	00021600 	sll	v0,v0,0x18
80011c50:	00021603 	sra	v0,v0,0x18
80011c54:	00621025 	or	v0,v1,v0
80011c58:	00021600 	sll	v0,v0,0x18
80011c5c:	00021603 	sra	v0,v0,0x18
80011c60:	304200ff 	andi	v0,v0,0xff
80011c64:	00402021 	move	a0,v0
80011c68:	0c0046e8 	jal	80011ba0 <pic_setmask>
80011c6c:	00000000 	nop
80011c70:	03c0e821 	move	sp,s8
80011c74:	8fbf001c 	lw	ra,28(sp)
80011c78:	8fbe0018 	lw	s8,24(sp)
80011c7c:	27bd0020 	addiu	sp,sp,32
80011c80:	03e00008 	jr	ra
80011c84:	00000000 	nop

80011c88 <pic_init>:
80011c88:	27bdffe0 	addiu	sp,sp,-32
80011c8c:	afbf001c 	sw	ra,28(sp)
80011c90:	afbe0018 	sw	s8,24(sp)
80011c94:	03a0f021 	move	s8,sp
80011c98:	3c028036 	lui	v0,0x8036
80011c9c:	24030001 	li	v1,1
80011ca0:	ac430004 	sw	v1,4(v0)
80011ca4:	00001021 	move	v0,zero
80011ca8:	40826000 	mtc0	v0,c0_status
80011cac:	3c028036 	lui	v0,0x8036
80011cb0:	90420000 	lbu	v0,0(v0)
80011cb4:	10400006 	beqz	v0,80011cd0 <pic_init+0x48>
80011cb8:	00000000 	nop
80011cbc:	3c028036 	lui	v0,0x8036
80011cc0:	90420000 	lbu	v0,0(v0)
80011cc4:	00402021 	move	a0,v0
80011cc8:	0c0046e8 	jal	80011ba0 <pic_setmask>
80011ccc:	00000000 	nop
80011cd0:	03c0e821 	move	sp,s8
80011cd4:	8fbf001c 	lw	ra,28(sp)
80011cd8:	8fbe0018 	lw	s8,24(sp)
80011cdc:	27bd0020 	addiu	sp,sp,32
80011ce0:	03e00008 	jr	ra
80011ce4:	00000000 	nop
	...

80011cf0 <print_ticks>:
80011cf0:	27bdffe0 	addiu	sp,sp,-32
80011cf4:	afbf001c 	sw	ra,28(sp)
80011cf8:	afbe0018 	sw	s8,24(sp)
80011cfc:	03a0f021 	move	s8,sp
80011d00:	3c028002 	lui	v0,0x8002
80011d04:	24442400 	addiu	a0,v0,9216
80011d08:	24050080 	li	a1,128
80011d0c:	0c00413e 	jal	800104f8 <cprintf>
80011d10:	00000000 	nop
80011d14:	03c0e821 	move	sp,s8
80011d18:	8fbf001c 	lw	ra,28(sp)
80011d1c:	8fbe0018 	lw	s8,24(sp)
80011d20:	27bd0020 	addiu	sp,sp,32
80011d24:	03e00008 	jr	ra
80011d28:	00000000 	nop

80011d2c <idt_init>:
80011d2c:	27bdfff8 	addiu	sp,sp,-8
80011d30:	afbe0004 	sw	s8,4(sp)
80011d34:	03a0f021 	move	s8,sp
80011d38:	3c028000 	lui	v0,0x8000
80011d3c:	34420180 	ori	v0,v0,0x180
80011d40:	3c038001 	lui	v1,0x8001
80011d44:	24632290 	addiu	v1,v1,8848
80011d48:	00032082 	srl	a0,v1,0x2
80011d4c:	3c032800 	lui	v1,0x2800
80011d50:	00831826 	xor	v1,a0,v1
80011d54:	ac430000 	sw	v1,0(v0)
80011d58:	3c028000 	lui	v0,0x8000
80011d5c:	3c038001 	lui	v1,0x8001
80011d60:	24632290 	addiu	v1,v1,8848
80011d64:	00032082 	srl	a0,v1,0x2
80011d68:	3c032800 	lui	v1,0x2800
80011d6c:	00831826 	xor	v1,a0,v1
80011d70:	ac430000 	sw	v1,0(v0)
80011d74:	03c0e821 	move	sp,s8
80011d78:	8fbe0004 	lw	s8,4(sp)
80011d7c:	27bd0008 	addiu	sp,sp,8
80011d80:	03e00008 	jr	ra
80011d84:	00000000 	nop

80011d88 <trapname>:
80011d88:	27bdfff8 	addiu	sp,sp,-8
80011d8c:	afbe0004 	sw	s8,4(sp)
80011d90:	03a0f021 	move	s8,sp
80011d94:	afc40008 	sw	a0,8(s8)
80011d98:	8fc20008 	lw	v0,8(s8)
80011d9c:	2c42000c 	sltiu	v0,v0,12
80011da0:	10400009 	beqz	v0,80011dc8 <trapname+0x40>
80011da4:	00000000 	nop
80011da8:	3c028002 	lui	v0,0x8002
80011dac:	8fc30008 	lw	v1,8(s8)
80011db0:	00031880 	sll	v1,v1,0x2
80011db4:	24422674 	addiu	v0,v0,9844
80011db8:	00621021 	addu	v0,v1,v0
80011dbc:	8c420000 	lw	v0,0(v0)
80011dc0:	08004774 	j	80011dd0 <trapname+0x48>
80011dc4:	00000000 	nop
80011dc8:	3c028002 	lui	v0,0x8002
80011dcc:	2442240c 	addiu	v0,v0,9228
80011dd0:	03c0e821 	move	sp,s8
80011dd4:	8fbe0004 	lw	s8,4(sp)
80011dd8:	27bd0008 	addiu	sp,sp,8
80011ddc:	03e00008 	jr	ra
80011de0:	00000000 	nop

80011de4 <trap_in_kernel>:
80011de4:	27bdfff8 	addiu	sp,sp,-8
80011de8:	afbe0004 	sw	s8,4(sp)
80011dec:	03a0f021 	move	s8,sp
80011df0:	afc40008 	sw	a0,8(s8)
80011df4:	8fc20008 	lw	v0,8(s8)
80011df8:	8c420080 	lw	v0,128(v0)
80011dfc:	30420010 	andi	v0,v0,0x10
80011e00:	2c420001 	sltiu	v0,v0,1
80011e04:	304200ff 	andi	v0,v0,0xff
80011e08:	03c0e821 	move	sp,s8
80011e0c:	8fbe0004 	lw	s8,4(sp)
80011e10:	27bd0008 	addiu	sp,sp,8
80011e14:	03e00008 	jr	ra
80011e18:	00000000 	nop

80011e1c <print_trapframe>:
80011e1c:	27bdffe0 	addiu	sp,sp,-32
80011e20:	afbf001c 	sw	ra,28(sp)
80011e24:	afbe0018 	sw	s8,24(sp)
80011e28:	03a0f021 	move	s8,sp
80011e2c:	afc40020 	sw	a0,32(s8)
80011e30:	3c028002 	lui	v0,0x8002
80011e34:	2444241c 	addiu	a0,v0,9244
80011e38:	8fc50020 	lw	a1,32(s8)
80011e3c:	0c00413e 	jal	800104f8 <cprintf>
80011e40:	00000000 	nop
80011e44:	8fc20020 	lw	v0,32(s8)
80011e48:	00402021 	move	a0,v0
80011e4c:	0c0047d1 	jal	80011f44 <print_regs>
80011e50:	00000000 	nop
80011e54:	8fc20020 	lw	v0,32(s8)
80011e58:	8c420090 	lw	v0,144(v0)
80011e5c:	3c038002 	lui	v1,0x8002
80011e60:	24642430 	addiu	a0,v1,9264
80011e64:	00402821 	move	a1,v0
80011e68:	0c00413e 	jal	800104f8 <cprintf>
80011e6c:	00000000 	nop
80011e70:	8fc20020 	lw	v0,32(s8)
80011e74:	8c420094 	lw	v0,148(v0)
80011e78:	3c038002 	lui	v1,0x8002
80011e7c:	2464244c 	addiu	a0,v1,9292
80011e80:	00402821 	move	a1,v0
80011e84:	0c00413e 	jal	800104f8 <cprintf>
80011e88:	00000000 	nop
80011e8c:	8fc20020 	lw	v0,32(s8)
80011e90:	8c420080 	lw	v0,128(v0)
80011e94:	3c038002 	lui	v1,0x8002
80011e98:	24642468 	addiu	a0,v1,9320
80011e9c:	00402821 	move	a1,v0
80011ea0:	0c00413e 	jal	800104f8 <cprintf>
80011ea4:	00000000 	nop
80011ea8:	8fc20020 	lw	v0,32(s8)
80011eac:	8c420084 	lw	v0,132(v0)
80011eb0:	3c038002 	lui	v1,0x8002
80011eb4:	24642484 	addiu	a0,v1,9348
80011eb8:	00402821 	move	a1,v0
80011ebc:	0c00413e 	jal	800104f8 <cprintf>
80011ec0:	00000000 	nop
80011ec4:	8fc20020 	lw	v0,32(s8)
80011ec8:	8c420088 	lw	v0,136(v0)
80011ecc:	3c038002 	lui	v1,0x8002
80011ed0:	246424a0 	addiu	a0,v1,9376
80011ed4:	00402821 	move	a1,v0
80011ed8:	0c00413e 	jal	800104f8 <cprintf>
80011edc:	00000000 	nop
80011ee0:	8fc20020 	lw	v0,32(s8)
80011ee4:	8c42008c 	lw	v0,140(v0)
80011ee8:	3c038002 	lui	v1,0x8002
80011eec:	246424bc 	addiu	a0,v1,9404
80011ef0:	00402821 	move	a1,v0
80011ef4:	0c00413e 	jal	800104f8 <cprintf>
80011ef8:	00000000 	nop
80011efc:	8fc20020 	lw	v0,32(s8)
80011f00:	8c420084 	lw	v0,132(v0)
80011f04:	3042007c 	andi	v0,v0,0x7c
80011f08:	00021082 	srl	v0,v0,0x2
80011f0c:	00402021 	move	a0,v0
80011f10:	0c004762 	jal	80011d88 <trapname>
80011f14:	00000000 	nop
80011f18:	3c038002 	lui	v1,0x8002
80011f1c:	246424d8 	addiu	a0,v1,9432
80011f20:	00402821 	move	a1,v0
80011f24:	0c00413e 	jal	800104f8 <cprintf>
80011f28:	00000000 	nop
80011f2c:	03c0e821 	move	sp,s8
80011f30:	8fbf001c 	lw	ra,28(sp)
80011f34:	8fbe0018 	lw	s8,24(sp)
80011f38:	27bd0020 	addiu	sp,sp,32
80011f3c:	03e00008 	jr	ra
80011f40:	00000000 	nop

80011f44 <print_regs>:
80011f44:	27bdffe0 	addiu	sp,sp,-32
80011f48:	afbf001c 	sw	ra,28(sp)
80011f4c:	afbe0018 	sw	s8,24(sp)
80011f50:	03a0f021 	move	s8,sp
80011f54:	afc40020 	sw	a0,32(s8)
80011f58:	8fc20020 	lw	v0,32(s8)
80011f5c:	8c42007c 	lw	v0,124(v0)
80011f60:	3c038002 	lui	v1,0x8002
80011f64:	246424ec 	addiu	a0,v1,9452
80011f68:	00402821 	move	a1,v0
80011f6c:	0c00413e 	jal	800104f8 <cprintf>
80011f70:	00000000 	nop
80011f74:	03c0e821 	move	sp,s8
80011f78:	8fbf001c 	lw	ra,28(sp)
80011f7c:	8fbe0018 	lw	s8,24(sp)
80011f80:	27bd0020 	addiu	sp,sp,32
80011f84:	03e00008 	jr	ra
80011f88:	00000000 	nop

80011f8c <trap_dispatch>:
80011f8c:	27bdffd8 	addiu	sp,sp,-40
80011f90:	afbf0024 	sw	ra,36(sp)
80011f94:	afbe0020 	sw	s8,32(sp)
80011f98:	03a0f021 	move	s8,sp
80011f9c:	afc40028 	sw	a0,40(s8)
80011fa0:	8fc20028 	lw	v0,40(s8)
80011fa4:	8c420084 	lw	v0,132(v0)
80011fa8:	3042007c 	andi	v0,v0,0x7c
80011fac:	00021082 	srl	v0,v0,0x2
80011fb0:	2c430004 	sltiu	v1,v0,4
80011fb4:	10600008 	beqz	v1,80011fd8 <trap_dispatch+0x4c>
80011fb8:	00000000 	nop
80011fbc:	2c430002 	sltiu	v1,v0,2
80011fc0:	1060000a 	beqz	v1,80011fec <trap_dispatch+0x60>
80011fc4:	00000000 	nop
80011fc8:	10400020 	beqz	v0,8001204c <trap_dispatch+0xc0>
80011fcc:	00000000 	nop
80011fd0:	0800484d 	j	80012134 <trap_dispatch+0x1a8>
80011fd4:	00000000 	nop
80011fd8:	24030008 	li	v1,8
80011fdc:	10430017 	beq	v0,v1,8001203c <trap_dispatch+0xb0>
80011fe0:	00000000 	nop
80011fe4:	0800484d 	j	80012134 <trap_dispatch+0x1a8>
80011fe8:	00000000 	nop
80011fec:	8fc40028 	lw	a0,40(s8)
80011ff0:	0c00632d 	jal	80018cb4 <tlb_miss_handler>
80011ff4:	00000000 	nop
80011ff8:	afc20018 	sw	v0,24(s8)
80011ffc:	8fc20018 	lw	v0,24(s8)
80012000:	1040000c 	beqz	v0,80012034 <trap_dispatch+0xa8>
80012004:	00000000 	nop
80012008:	8fc40028 	lw	a0,40(s8)
8001200c:	0c004787 	jal	80011e1c <print_trapframe>
80012010:	00000000 	nop
80012014:	3c028002 	lui	v0,0x8002
80012018:	244424fc 	addiu	a0,v0,9468
8001201c:	2405006e 	li	a1,110
80012020:	3c028002 	lui	v0,0x8002
80012024:	24462510 	addiu	a2,v0,9488
80012028:	8fc70018 	lw	a3,24(s8)
8001202c:	0c004544 	jal	80011510 <__panic>
80012030:	00000000 	nop
80012034:	08004862 	j	80012188 <trap_dispatch+0x1fc>
80012038:	00000000 	nop
8001203c:	0c0081e4 	jal	80020790 <syscall>
80012040:	00000000 	nop
80012044:	08004862 	j	80012188 <trap_dispatch+0x1fc>
80012048:	00000000 	nop
8001204c:	8fc20028 	lw	v0,40(s8)
80012050:	8c430084 	lw	v1,132(v0)
80012054:	8fc20028 	lw	v0,40(s8)
80012058:	8c420080 	lw	v0,128(v0)
8001205c:	00621024 	and	v0,v1,v0
80012060:	3042ff00 	andi	v0,v0,0xff00
80012064:	00021202 	srl	v0,v0,0x8
80012068:	24030004 	li	v1,4
8001206c:	10430018 	beq	v0,v1,800120d0 <trap_dispatch+0x144>
80012070:	00000000 	nop
80012074:	24030080 	li	v1,128
80012078:	14430022 	bne	v0,v1,80012104 <trap_dispatch+0x178>
8001207c:	00000000 	nop
80012080:	3c028036 	lui	v0,0x8036
80012084:	8c42229c 	lw	v0,8860(v0)
80012088:	24430001 	addiu	v1,v0,1
8001208c:	3c028036 	lui	v0,0x8036
80012090:	ac43229c 	sw	v1,8860(v0)
80012094:	3c028036 	lui	v0,0x8036
80012098:	8c42229c 	lw	v0,8860(v0)
8001209c:	3042007f 	andi	v0,v0,0x7f
800120a0:	14400005 	bnez	v0,800120b8 <trap_dispatch+0x12c>
800120a4:	00000000 	nop
800120a8:	3c028036 	lui	v0,0x8036
800120ac:	8c420078 	lw	v0,120(v0)
800120b0:	24030001 	li	v1,1
800120b4:	ac430010 	sw	v1,16(v0)
800120b8:	0c0080a2 	jal	80020288 <run_timer_list>
800120bc:	00000000 	nop
800120c0:	0c0045ab 	jal	800116ac <clock_intr>
800120c4:	00000000 	nop
800120c8:	0800484b 	j	8001212c <trap_dispatch+0x1a0>
800120cc:	00000000 	nop
800120d0:	0c004694 	jal	80011a50 <cons_getc>
800120d4:	00000000 	nop
800120d8:	a3c2001c 	sb	v0,28(s8)
800120dc:	83c3001c 	lb	v1,28(s8)
800120e0:	83c2001c 	lb	v0,28(s8)
800120e4:	3c048002 	lui	a0,0x8002
800120e8:	2484252c 	addiu	a0,a0,9516
800120ec:	00602821 	move	a1,v1
800120f0:	00403021 	move	a2,v0
800120f4:	0c00413e 	jal	800104f8 <cprintf>
800120f8:	00000000 	nop
800120fc:	0800484b 	j	8001212c <trap_dispatch+0x1a0>
80012100:	00000000 	nop
80012104:	8fc40028 	lw	a0,40(s8)
80012108:	0c004787 	jal	80011e1c <print_trapframe>
8001210c:	00000000 	nop
80012110:	3c028002 	lui	v0,0x8002
80012114:	244424fc 	addiu	a0,v0,9468
80012118:	2405009b 	li	a1,155
8001211c:	3c028002 	lui	v0,0x8002
80012120:	24462540 	addiu	a2,v0,9536
80012124:	0c004544 	jal	80011510 <__panic>
80012128:	00000000 	nop
8001212c:	08004862 	j	80012188 <trap_dispatch+0x1fc>
80012130:	00000000 	nop
80012134:	8fc40028 	lw	a0,40(s8)
80012138:	0c004787 	jal	80011e1c <print_trapframe>
8001213c:	00000000 	nop
80012140:	3c028036 	lui	v0,0x8036
80012144:	8c420078 	lw	v0,120(v0)
80012148:	10400008 	beqz	v0,8001216c <trap_dispatch+0x1e0>
8001214c:	00000000 	nop
80012150:	3c028002 	lui	v0,0x8002
80012154:	24442550 	addiu	a0,v0,9552
80012158:	0c00413e 	jal	800104f8 <cprintf>
8001215c:	00000000 	nop
80012160:	2404fff7 	li	a0,-9
80012164:	0c007847 	jal	8001e11c <do_exit>
80012168:	00000000 	nop
8001216c:	3c028002 	lui	v0,0x8002
80012170:	244424fc 	addiu	a0,v0,9468
80012174:	240500a6 	li	a1,166
80012178:	3c028002 	lui	v0,0x8002
8001217c:	24462564 	addiu	a2,v0,9572
80012180:	0c004544 	jal	80011510 <__panic>
80012184:	00000000 	nop
80012188:	03c0e821 	move	sp,s8
8001218c:	8fbf0024 	lw	ra,36(sp)
80012190:	8fbe0020 	lw	s8,32(sp)
80012194:	27bd0028 	addiu	sp,sp,40
80012198:	03e00008 	jr	ra
8001219c:	00000000 	nop

800121a0 <trap>:
800121a0:	27bdffd8 	addiu	sp,sp,-40
800121a4:	afbf0024 	sw	ra,36(sp)
800121a8:	afbe0020 	sw	s8,32(sp)
800121ac:	03a0f021 	move	s8,sp
800121b0:	afc40028 	sw	a0,40(s8)
800121b4:	3c028036 	lui	v0,0x8036
800121b8:	8c420078 	lw	v0,120(v0)
800121bc:	14400006 	bnez	v0,800121d8 <trap+0x38>
800121c0:	00000000 	nop
800121c4:	8fc40028 	lw	a0,40(s8)
800121c8:	0c0047e3 	jal	80011f8c <trap_dispatch>
800121cc:	00000000 	nop
800121d0:	0800489c 	j	80012270 <trap+0xd0>
800121d4:	00000000 	nop
800121d8:	3c028036 	lui	v0,0x8036
800121dc:	8c420078 	lw	v0,120(v0)
800121e0:	8c42004c 	lw	v0,76(v0)
800121e4:	afc20018 	sw	v0,24(s8)
800121e8:	3c028036 	lui	v0,0x8036
800121ec:	8c420078 	lw	v0,120(v0)
800121f0:	8fc30028 	lw	v1,40(s8)
800121f4:	ac43004c 	sw	v1,76(v0)
800121f8:	8fc40028 	lw	a0,40(s8)
800121fc:	0c004779 	jal	80011de4 <trap_in_kernel>
80012200:	00000000 	nop
80012204:	afc2001c 	sw	v0,28(s8)
80012208:	8fc40028 	lw	a0,40(s8)
8001220c:	0c0047e3 	jal	80011f8c <trap_dispatch>
80012210:	00000000 	nop
80012214:	3c028036 	lui	v0,0x8036
80012218:	8c420078 	lw	v0,120(v0)
8001221c:	8fc30018 	lw	v1,24(s8)
80012220:	ac43004c 	sw	v1,76(v0)
80012224:	8fc2001c 	lw	v0,28(s8)
80012228:	14400011 	bnez	v0,80012270 <trap+0xd0>
8001222c:	00000000 	nop
80012230:	3c028036 	lui	v0,0x8036
80012234:	8c420078 	lw	v0,120(v0)
80012238:	8c420054 	lw	v0,84(v0)
8001223c:	30420001 	andi	v0,v0,0x1
80012240:	10400004 	beqz	v0,80012254 <trap+0xb4>
80012244:	00000000 	nop
80012248:	2404fff7 	li	a0,-9
8001224c:	0c007847 	jal	8001e11c <do_exit>
80012250:	00000000 	nop
80012254:	3c028036 	lui	v0,0x8036
80012258:	8c420078 	lw	v0,120(v0)
8001225c:	8c420010 	lw	v0,16(v0)
80012260:	10400003 	beqz	v0,80012270 <trap+0xd0>
80012264:	00000000 	nop
80012268:	0c007f9e 	jal	8001fe78 <schedule>
8001226c:	00000000 	nop
80012270:	03c0e821 	move	sp,s8
80012274:	8fbf0024 	lw	ra,36(sp)
80012278:	8fbe0020 	lw	s8,32(sp)
8001227c:	27bd0028 	addiu	sp,sp,40
80012280:	03e00008 	jr	ra
80012284:	00000000 	nop
	...

80012290 <__alltraps>:
80012290:	401a6000 335a0010 03a0d821 13400004     .`.@..Z3!.....@.
800122a0:	00000000 3c1d8036 27bd22a0 8fbd0000     ....6..<.".'....
800122b0:	27bdff60 afa10004 afa20008 afa3000c     `..'............
800122c0:	afa40010 afa50014 afa60018 afa7001c     ................
800122d0:	afa80020 afa90024 afaa0028 afab002c      ...$...(...,...
800122e0:	afac0030 afad0034 afae0038 afaf003c     0...4...8...<...
800122f0:	afb00040 afb10044 afb20048 afb3004c     @...D...H...L...
80012300:	afb40050 afb50054 afb60058 afb7005c     P...T...X...\...
80012310:	afb80060 afb90064 afbc0070 afbb0074     `...d...p...t...
80012320:	afbe0078 afbf007c 400c6000 afac0080     x...|....`.@....
80012330:	400d6800 afad0084 400e7000 afae0088     .h.@.....p.@....
80012340:	400f4000 afaf008c 00004012 afa80090     .@.@.....@......
80012350:	00004010 afa80094 2401ffec 01816024     .@.........$$`..
80012360:	408c6000 03a02021 27bdfff0 03a0f021     .`.@! .....'!...
80012370:	0c004868 00000000 03c0e821 27bd0010     hH......!......'

80012380 <__trapret>:
80012380:	8fa80080 40096000 2401ff00 01214824     .....`.@...$$H!.
80012390:	01094025 40886000 8fa20008 8fa3000c     %@...`.@........
800123a0:	8fa40010 8fa50014 8fa60018 8fa7001c     ................
800123b0:	8fa80020 8fa90024 8faa0028 8fab002c      ...$...(...,...
800123c0:	8fac0030 8fad0034 8fae0038 8faf003c     0...4...8...<...
800123d0:	8fb00040 8fb10044 8fb20048 8fb3004c     @...D...H...L...
800123e0:	8fb40050 8fb50054 8fb60058 8fb7005c     P...T...X...\...
800123f0:	8fb80060 8fb90064 8fbc0070 8fbb0074     `...d...p...t...
80012400:	8fbe0078 8fbf007c 8fba0090 03400013     x...|.........@.
80012410:	8fba0094 03400011 8fba0088 409a7000     ......@......p.@
80012420:	8fa10004 27bd00a0 401a6000 335a0010     .......'.`.@..Z3
80012430:	13400002 00000000 0360e821 42000018     ..@.....!.`....B

80012440 <forkrets>:
80012440:	0080e821 080048e0 00000000 00000000     !....H..........

80012450 <__intr_save>:
80012450:	27bdffd8 	addiu	sp,sp,-40
80012454:	afbf0024 	sw	ra,36(sp)
80012458:	afbe0020 	sw	s8,32(sp)
8001245c:	03a0f021 	move	s8,sp
80012460:	40026000 	mfc0	v0,c0_status
80012464:	afc20018 	sw	v0,24(s8)
80012468:	8fc20018 	lw	v0,24(s8)
8001246c:	30420001 	andi	v0,v0,0x1
80012470:	10400006 	beqz	v0,8001248c <__intr_save+0x3c>
80012474:	00000000 	nop
80012478:	0c0046d7 	jal	80011b5c <intr_disable>
8001247c:	00000000 	nop
80012480:	24020001 	li	v0,1
80012484:	08004924 	j	80012490 <__intr_save+0x40>
80012488:	00000000 	nop
8001248c:	00001021 	move	v0,zero
80012490:	03c0e821 	move	sp,s8
80012494:	8fbf0024 	lw	ra,36(sp)
80012498:	8fbe0020 	lw	s8,32(sp)
8001249c:	27bd0028 	addiu	sp,sp,40
800124a0:	03e00008 	jr	ra
800124a4:	00000000 	nop

800124a8 <__intr_restore>:
800124a8:	27bdffe0 	addiu	sp,sp,-32
800124ac:	afbf001c 	sw	ra,28(sp)
800124b0:	afbe0018 	sw	s8,24(sp)
800124b4:	03a0f021 	move	s8,sp
800124b8:	afc40020 	sw	a0,32(s8)
800124bc:	8fc20020 	lw	v0,32(s8)
800124c0:	10400003 	beqz	v0,800124d0 <__intr_restore+0x28>
800124c4:	00000000 	nop
800124c8:	0c0046c8 	jal	80011b20 <intr_enable>
800124cc:	00000000 	nop
800124d0:	03c0e821 	move	sp,s8
800124d4:	8fbf001c 	lw	ra,28(sp)
800124d8:	8fbe0018 	lw	s8,24(sp)
800124dc:	27bd0020 	addiu	sp,sp,32
800124e0:	03e00008 	jr	ra
800124e4:	00000000 	nop

800124e8 <page2ppn>:
800124e8:	27bdfff8 	addiu	sp,sp,-8
800124ec:	afbe0004 	sw	s8,4(sp)
800124f0:	03a0f021 	move	s8,sp
800124f4:	afc40008 	sw	a0,8(s8)
800124f8:	8fc30008 	lw	v1,8(s8)
800124fc:	3c028036 	lui	v0,0x8036
80012500:	8c4222a8 	lw	v0,8872(v0)
80012504:	00621023 	subu	v0,v1,v0
80012508:	00021143 	sra	v0,v0,0x5
8001250c:	03c0e821 	move	sp,s8
80012510:	8fbe0004 	lw	s8,4(sp)
80012514:	27bd0008 	addiu	sp,sp,8
80012518:	03e00008 	jr	ra
8001251c:	00000000 	nop

80012520 <page2pa>:
80012520:	27bdffe0 	addiu	sp,sp,-32
80012524:	afbf001c 	sw	ra,28(sp)
80012528:	afbe0018 	sw	s8,24(sp)
8001252c:	03a0f021 	move	s8,sp
80012530:	afc40020 	sw	a0,32(s8)
80012534:	8fc40020 	lw	a0,32(s8)
80012538:	0c00493a 	jal	800124e8 <page2ppn>
8001253c:	00000000 	nop
80012540:	00021300 	sll	v0,v0,0xc
80012544:	03c0e821 	move	sp,s8
80012548:	8fbf001c 	lw	ra,28(sp)
8001254c:	8fbe0018 	lw	s8,24(sp)
80012550:	27bd0020 	addiu	sp,sp,32
80012554:	03e00008 	jr	ra
80012558:	00000000 	nop

8001255c <page_ref>:
8001255c:	27bdfff8 	addiu	sp,sp,-8
80012560:	afbe0004 	sw	s8,4(sp)
80012564:	03a0f021 	move	s8,sp
80012568:	afc40008 	sw	a0,8(s8)
8001256c:	8fc20008 	lw	v0,8(s8)
80012570:	8c420000 	lw	v0,0(v0)
80012574:	03c0e821 	move	sp,s8
80012578:	8fbe0004 	lw	s8,4(sp)
8001257c:	27bd0008 	addiu	sp,sp,8
80012580:	03e00008 	jr	ra
80012584:	00000000 	nop

80012588 <set_page_ref>:
80012588:	27bdfff8 	addiu	sp,sp,-8
8001258c:	afbe0004 	sw	s8,4(sp)
80012590:	03a0f021 	move	s8,sp
80012594:	afc40008 	sw	a0,8(s8)
80012598:	afc5000c 	sw	a1,12(s8)
8001259c:	8fc20008 	lw	v0,8(s8)
800125a0:	8fc3000c 	lw	v1,12(s8)
800125a4:	ac430000 	sw	v1,0(v0)
800125a8:	03c0e821 	move	sp,s8
800125ac:	8fbe0004 	lw	s8,4(sp)
800125b0:	27bd0008 	addiu	sp,sp,8
800125b4:	03e00008 	jr	ra
800125b8:	00000000 	nop

800125bc <default_list_add>:
800125bc:	27bdffa8 	addiu	sp,sp,-88
800125c0:	afbf0054 	sw	ra,84(sp)
800125c4:	afbe0050 	sw	s8,80(sp)
800125c8:	03a0f021 	move	s8,sp
800125cc:	afc40058 	sw	a0,88(s8)
800125d0:	afc5005c 	sw	a1,92(s8)
800125d4:	8fc30058 	lw	v1,88(s8)
800125d8:	3c028036 	lui	v0,0x8036
800125dc:	244220f0 	addiu	v0,v0,8432
800125e0:	1062000a 	beq	v1,v0,8001260c <default_list_add+0x50>
800125e4:	00000000 	nop
800125e8:	3c028002 	lui	v0,0x8002
800125ec:	244426b0 	addiu	a0,v0,9904
800125f0:	24050040 	li	a1,64
800125f4:	3c028002 	lui	v0,0x8002
800125f8:	244626c8 	addiu	a2,v0,9928
800125fc:	3c028002 	lui	v0,0x8002
80012600:	244726e0 	addiu	a3,v0,9952
80012604:	0c004544 	jal	80011510 <__panic>
80012608:	00000000 	nop
8001260c:	8fc2005c 	lw	v0,92(s8)
80012610:	2442fff4 	addiu	v0,v0,-12
80012614:	afc20018 	sw	v0,24(s8)
80012618:	080049db 	j	8001276c <default_list_add+0x1b0>
8001261c:	00000000 	nop
80012620:	8fc20058 	lw	v0,88(s8)
80012624:	2442fff4 	addiu	v0,v0,-12
80012628:	afc2001c 	sw	v0,28(s8)
8001262c:	8fc30018 	lw	v1,24(s8)
80012630:	8fc2001c 	lw	v0,28(s8)
80012634:	1462000a 	bne	v1,v0,80012660 <default_list_add+0xa4>
80012638:	00000000 	nop
8001263c:	3c028002 	lui	v0,0x8002
80012640:	244426b0 	addiu	a0,v0,9904
80012644:	24050044 	li	a1,68
80012648:	3c028002 	lui	v0,0x8002
8001264c:	244626c8 	addiu	a2,v0,9928
80012650:	3c028002 	lui	v0,0x8002
80012654:	244726f8 	addiu	a3,v0,9976
80012658:	0c004544 	jal	80011510 <__panic>
8001265c:	00000000 	nop
80012660:	8fc30018 	lw	v1,24(s8)
80012664:	8fc2001c 	lw	v0,28(s8)
80012668:	0062102b 	sltu	v0,v1,v0
8001266c:	1040002d 	beqz	v0,80012724 <default_list_add+0x168>
80012670:	00000000 	nop
80012674:	8fc20018 	lw	v0,24(s8)
80012678:	8c420008 	lw	v0,8(v0)
8001267c:	00021140 	sll	v0,v0,0x5
80012680:	8fc30018 	lw	v1,24(s8)
80012684:	00621821 	addu	v1,v1,v0
80012688:	8fc2001c 	lw	v0,28(s8)
8001268c:	0043102b 	sltu	v0,v0,v1
80012690:	1040000a 	beqz	v0,800126bc <default_list_add+0x100>
80012694:	00000000 	nop
80012698:	3c028002 	lui	v0,0x8002
8001269c:	244426b0 	addiu	a0,v0,9904
800126a0:	24050046 	li	a1,70
800126a4:	3c028002 	lui	v0,0x8002
800126a8:	244626c8 	addiu	a2,v0,9928
800126ac:	3c028002 	lui	v0,0x8002
800126b0:	24472704 	addiu	a3,v0,9988
800126b4:	0c004544 	jal	80011510 <__panic>
800126b8:	00000000 	nop
800126bc:	8fc20058 	lw	v0,88(s8)
800126c0:	afc20020 	sw	v0,32(s8)
800126c4:	8fc2005c 	lw	v0,92(s8)
800126c8:	afc20024 	sw	v0,36(s8)
800126cc:	8fc20020 	lw	v0,32(s8)
800126d0:	8c420000 	lw	v0,0(v0)
800126d4:	8fc30024 	lw	v1,36(s8)
800126d8:	afc30028 	sw	v1,40(s8)
800126dc:	afc2002c 	sw	v0,44(s8)
800126e0:	8fc20020 	lw	v0,32(s8)
800126e4:	afc20030 	sw	v0,48(s8)
800126e8:	8fc20030 	lw	v0,48(s8)
800126ec:	8fc30028 	lw	v1,40(s8)
800126f0:	ac430000 	sw	v1,0(v0)
800126f4:	8fc20030 	lw	v0,48(s8)
800126f8:	8c430000 	lw	v1,0(v0)
800126fc:	8fc2002c 	lw	v0,44(s8)
80012700:	ac430004 	sw	v1,4(v0)
80012704:	8fc20028 	lw	v0,40(s8)
80012708:	8fc30030 	lw	v1,48(s8)
8001270c:	ac430004 	sw	v1,4(v0)
80012710:	8fc20028 	lw	v0,40(s8)
80012714:	8fc3002c 	lw	v1,44(s8)
80012718:	ac430000 	sw	v1,0(v0)
8001271c:	080049e5 	j	80012794 <default_list_add+0x1d8>
80012720:	00000000 	nop
80012724:	8fc2001c 	lw	v0,28(s8)
80012728:	8c420008 	lw	v0,8(v0)
8001272c:	00021140 	sll	v0,v0,0x5
80012730:	8fc3001c 	lw	v1,28(s8)
80012734:	00621821 	addu	v1,v1,v0
80012738:	8fc20018 	lw	v0,24(s8)
8001273c:	0043102b 	sltu	v0,v0,v1
80012740:	1040000a 	beqz	v0,8001276c <default_list_add+0x1b0>
80012744:	00000000 	nop
80012748:	3c028002 	lui	v0,0x8002
8001274c:	244426b0 	addiu	a0,v0,9904
80012750:	2405004a 	li	a1,74
80012754:	3c028002 	lui	v0,0x8002
80012758:	244626c8 	addiu	a2,v0,9928
8001275c:	3c028002 	lui	v0,0x8002
80012760:	24472720 	addiu	a3,v0,10016
80012764:	0c004544 	jal	80011510 <__panic>
80012768:	00000000 	nop
8001276c:	8fc20058 	lw	v0,88(s8)
80012770:	afc20034 	sw	v0,52(s8)
80012774:	8fc20034 	lw	v0,52(s8)
80012778:	8c420004 	lw	v0,4(v0)
8001277c:	afc20058 	sw	v0,88(s8)
80012780:	8fc30058 	lw	v1,88(s8)
80012784:	3c028036 	lui	v0,0x8036
80012788:	244220f0 	addiu	v0,v0,8432
8001278c:	1462ffa4 	bne	v1,v0,80012620 <default_list_add+0x64>
80012790:	00000000 	nop
80012794:	8fc30058 	lw	v1,88(s8)
80012798:	3c028036 	lui	v0,0x8036
8001279c:	244220f0 	addiu	v0,v0,8432
800127a0:	14620019 	bne	v1,v0,80012808 <default_list_add+0x24c>
800127a4:	00000000 	nop
800127a8:	8fc20058 	lw	v0,88(s8)
800127ac:	afc20038 	sw	v0,56(s8)
800127b0:	8fc2005c 	lw	v0,92(s8)
800127b4:	afc2003c 	sw	v0,60(s8)
800127b8:	8fc20038 	lw	v0,56(s8)
800127bc:	8c420000 	lw	v0,0(v0)
800127c0:	8fc3003c 	lw	v1,60(s8)
800127c4:	afc30040 	sw	v1,64(s8)
800127c8:	afc20044 	sw	v0,68(s8)
800127cc:	8fc20038 	lw	v0,56(s8)
800127d0:	afc20048 	sw	v0,72(s8)
800127d4:	8fc20048 	lw	v0,72(s8)
800127d8:	8fc30040 	lw	v1,64(s8)
800127dc:	ac430000 	sw	v1,0(v0)
800127e0:	8fc20048 	lw	v0,72(s8)
800127e4:	8c430000 	lw	v1,0(v0)
800127e8:	8fc20044 	lw	v0,68(s8)
800127ec:	ac430004 	sw	v1,4(v0)
800127f0:	8fc20040 	lw	v0,64(s8)
800127f4:	8fc30048 	lw	v1,72(s8)
800127f8:	ac430004 	sw	v1,4(v0)
800127fc:	8fc20040 	lw	v0,64(s8)
80012800:	8fc30044 	lw	v1,68(s8)
80012804:	ac430000 	sw	v1,0(v0)
80012808:	03c0e821 	move	sp,s8
8001280c:	8fbf0054 	lw	ra,84(sp)
80012810:	8fbe0050 	lw	s8,80(sp)
80012814:	27bd0058 	addiu	sp,sp,88
80012818:	03e00008 	jr	ra
8001281c:	00000000 	nop

80012820 <default_init>:
80012820:	27bdffe8 	addiu	sp,sp,-24
80012824:	afbe0014 	sw	s8,20(sp)
80012828:	03a0f021 	move	s8,sp
8001282c:	3c028036 	lui	v0,0x8036
80012830:	244220f0 	addiu	v0,v0,8432
80012834:	afc20008 	sw	v0,8(s8)
80012838:	8fc20008 	lw	v0,8(s8)
8001283c:	8fc30008 	lw	v1,8(s8)
80012840:	ac430004 	sw	v1,4(v0)
80012844:	8fc20008 	lw	v0,8(s8)
80012848:	8c430004 	lw	v1,4(v0)
8001284c:	8fc20008 	lw	v0,8(s8)
80012850:	ac430000 	sw	v1,0(v0)
80012854:	3c028036 	lui	v0,0x8036
80012858:	244220f0 	addiu	v0,v0,8432
8001285c:	ac400008 	sw	zero,8(v0)
80012860:	03c0e821 	move	sp,s8
80012864:	8fbe0014 	lw	s8,20(sp)
80012868:	27bd0018 	addiu	sp,sp,24
8001286c:	03e00008 	jr	ra
80012870:	00000000 	nop

80012874 <default_init_memmap>:
80012874:	27bdffc0 	addiu	sp,sp,-64
80012878:	afbf003c 	sw	ra,60(sp)
8001287c:	afbe0038 	sw	s8,56(sp)
80012880:	03a0f021 	move	s8,sp
80012884:	afc40040 	sw	a0,64(s8)
80012888:	afc50044 	sw	a1,68(s8)
8001288c:	8fc20044 	lw	v0,68(s8)
80012890:	1440000a 	bnez	v0,800128bc <default_init_memmap+0x48>
80012894:	00000000 	nop
80012898:	3c028002 	lui	v0,0x8002
8001289c:	244426b0 	addiu	a0,v0,9904
800128a0:	24050059 	li	a1,89
800128a4:	3c028002 	lui	v0,0x8002
800128a8:	244626c8 	addiu	a2,v0,9928
800128ac:	3c028002 	lui	v0,0x8002
800128b0:	24472738 	addiu	a3,v0,10040
800128b4:	0c004544 	jal	80011510 <__panic>
800128b8:	00000000 	nop
800128bc:	8fc20040 	lw	v0,64(s8)
800128c0:	afc20018 	sw	v0,24(s8)
800128c4:	08004a5f 	j	8001297c <default_init_memmap+0x108>
800128c8:	00000000 	nop
800128cc:	8fc20018 	lw	v0,24(s8)
800128d0:	24420004 	addiu	v0,v0,4
800128d4:	afc0001c 	sw	zero,28(s8)
800128d8:	afc20020 	sw	v0,32(s8)
800128dc:	0c004914 	jal	80012450 <__intr_save>
800128e0:	00000000 	nop
800128e4:	afc20024 	sw	v0,36(s8)
800128e8:	8fc20020 	lw	v0,32(s8)
800128ec:	8c430000 	lw	v1,0(v0)
800128f0:	24040001 	li	a0,1
800128f4:	8fc2001c 	lw	v0,28(s8)
800128f8:	00441004 	sllv	v0,a0,v0
800128fc:	00621024 	and	v0,v1,v0
80012900:	afc20028 	sw	v0,40(s8)
80012904:	8fc40024 	lw	a0,36(s8)
80012908:	0c00492a 	jal	800124a8 <__intr_restore>
8001290c:	00000000 	nop
80012910:	8fc20028 	lw	v0,40(s8)
80012914:	0002102b 	sltu	v0,zero,v0
80012918:	304200ff 	andi	v0,v0,0xff
8001291c:	1440000a 	bnez	v0,80012948 <default_init_memmap+0xd4>
80012920:	00000000 	nop
80012924:	3c028002 	lui	v0,0x8002
80012928:	244426b0 	addiu	a0,v0,9904
8001292c:	2405005c 	li	a1,92
80012930:	3c028002 	lui	v0,0x8002
80012934:	244626c8 	addiu	a2,v0,9928
80012938:	3c028002 	lui	v0,0x8002
8001293c:	24472740 	addiu	a3,v0,10048
80012940:	0c004544 	jal	80011510 <__panic>
80012944:	00000000 	nop
80012948:	8fc20018 	lw	v0,24(s8)
8001294c:	ac400008 	sw	zero,8(v0)
80012950:	8fc20018 	lw	v0,24(s8)
80012954:	8c430008 	lw	v1,8(v0)
80012958:	8fc20018 	lw	v0,24(s8)
8001295c:	ac430004 	sw	v1,4(v0)
80012960:	8fc40018 	lw	a0,24(s8)
80012964:	00002821 	move	a1,zero
80012968:	0c004962 	jal	80012588 <set_page_ref>
8001296c:	00000000 	nop
80012970:	8fc20018 	lw	v0,24(s8)
80012974:	24420020 	addiu	v0,v0,32
80012978:	afc20018 	sw	v0,24(s8)
8001297c:	8fc20044 	lw	v0,68(s8)
80012980:	00021140 	sll	v0,v0,0x5
80012984:	8fc30040 	lw	v1,64(s8)
80012988:	00621821 	addu	v1,v1,v0
8001298c:	8fc20018 	lw	v0,24(s8)
80012990:	1462ffce 	bne	v1,v0,800128cc <default_init_memmap+0x58>
80012994:	00000000 	nop
80012998:	8fc20040 	lw	v0,64(s8)
8001299c:	8fc30044 	lw	v1,68(s8)
800129a0:	ac430008 	sw	v1,8(v0)
800129a4:	8fc20040 	lw	v0,64(s8)
800129a8:	24420004 	addiu	v0,v0,4
800129ac:	24030001 	li	v1,1
800129b0:	afc3002c 	sw	v1,44(s8)
800129b4:	afc20030 	sw	v0,48(s8)
800129b8:	0c004914 	jal	80012450 <__intr_save>
800129bc:	00000000 	nop
800129c0:	afc20034 	sw	v0,52(s8)
800129c4:	8fc20030 	lw	v0,48(s8)
800129c8:	8c430000 	lw	v1,0(v0)
800129cc:	24040001 	li	a0,1
800129d0:	8fc2002c 	lw	v0,44(s8)
800129d4:	00441004 	sllv	v0,a0,v0
800129d8:	00621825 	or	v1,v1,v0
800129dc:	8fc20030 	lw	v0,48(s8)
800129e0:	ac430000 	sw	v1,0(v0)
800129e4:	8fc40034 	lw	a0,52(s8)
800129e8:	0c00492a 	jal	800124a8 <__intr_restore>
800129ec:	00000000 	nop
800129f0:	3c028036 	lui	v0,0x8036
800129f4:	244220f0 	addiu	v0,v0,8432
800129f8:	8c430008 	lw	v1,8(v0)
800129fc:	8fc20044 	lw	v0,68(s8)
80012a00:	00621821 	addu	v1,v1,v0
80012a04:	3c028036 	lui	v0,0x8036
80012a08:	244220f0 	addiu	v0,v0,8432
80012a0c:	ac430008 	sw	v1,8(v0)
80012a10:	8fc20040 	lw	v0,64(s8)
80012a14:	2442000c 	addiu	v0,v0,12
80012a18:	3c038036 	lui	v1,0x8036
80012a1c:	246420f0 	addiu	a0,v1,8432
80012a20:	00402821 	move	a1,v0
80012a24:	0c00496f 	jal	800125bc <default_list_add>
80012a28:	00000000 	nop
80012a2c:	03c0e821 	move	sp,s8
80012a30:	8fbf003c 	lw	ra,60(sp)
80012a34:	8fbe0038 	lw	s8,56(sp)
80012a38:	27bd0040 	addiu	sp,sp,64
80012a3c:	03e00008 	jr	ra
80012a40:	00000000 	nop

80012a44 <default_alloc_pages>:
80012a44:	27bdff88 	addiu	sp,sp,-120
80012a48:	afbf0074 	sw	ra,116(sp)
80012a4c:	afbe0070 	sw	s8,112(sp)
80012a50:	03a0f021 	move	s8,sp
80012a54:	afc40078 	sw	a0,120(s8)
80012a58:	8fc20078 	lw	v0,120(s8)
80012a5c:	1440000a 	bnez	v0,80012a88 <default_alloc_pages+0x44>
80012a60:	00000000 	nop
80012a64:	3c028002 	lui	v0,0x8002
80012a68:	244426b0 	addiu	a0,v0,9904
80012a6c:	24050068 	li	a1,104
80012a70:	3c028002 	lui	v0,0x8002
80012a74:	244626c8 	addiu	a2,v0,9928
80012a78:	3c028002 	lui	v0,0x8002
80012a7c:	24472738 	addiu	a3,v0,10040
80012a80:	0c004544 	jal	80011510 <__panic>
80012a84:	00000000 	nop
80012a88:	3c028036 	lui	v0,0x8036
80012a8c:	244220f0 	addiu	v0,v0,8432
80012a90:	8c430008 	lw	v1,8(v0)
80012a94:	8fc20078 	lw	v0,120(s8)
80012a98:	0062102b 	sltu	v0,v1,v0
80012a9c:	10400004 	beqz	v0,80012ab0 <default_alloc_pages+0x6c>
80012aa0:	00000000 	nop
80012aa4:	00001021 	move	v0,zero
80012aa8:	08004b3a 	j	80012ce8 <default_alloc_pages+0x2a4>
80012aac:	00000000 	nop
80012ab0:	afc00018 	sw	zero,24(s8)
80012ab4:	3c028036 	lui	v0,0x8036
80012ab8:	244220f0 	addiu	v0,v0,8432
80012abc:	afc2001c 	sw	v0,28(s8)
80012ac0:	08004abf 	j	80012afc <default_alloc_pages+0xb8>
80012ac4:	00000000 	nop
80012ac8:	8fc2001c 	lw	v0,28(s8)
80012acc:	2442fff4 	addiu	v0,v0,-12
80012ad0:	afc20020 	sw	v0,32(s8)
80012ad4:	8fc20020 	lw	v0,32(s8)
80012ad8:	8c430008 	lw	v1,8(v0)
80012adc:	8fc20078 	lw	v0,120(s8)
80012ae0:	0062102b 	sltu	v0,v1,v0
80012ae4:	14400005 	bnez	v0,80012afc <default_alloc_pages+0xb8>
80012ae8:	00000000 	nop
80012aec:	8fc20020 	lw	v0,32(s8)
80012af0:	afc20018 	sw	v0,24(s8)
80012af4:	08004ac9 	j	80012b24 <default_alloc_pages+0xe0>
80012af8:	00000000 	nop
80012afc:	8fc2001c 	lw	v0,28(s8)
80012b00:	afc20028 	sw	v0,40(s8)
80012b04:	8fc20028 	lw	v0,40(s8)
80012b08:	8c420004 	lw	v0,4(v0)
80012b0c:	afc2001c 	sw	v0,28(s8)
80012b10:	8fc3001c 	lw	v1,28(s8)
80012b14:	3c028036 	lui	v0,0x8036
80012b18:	244220f0 	addiu	v0,v0,8432
80012b1c:	1462ffea 	bne	v1,v0,80012ac8 <default_alloc_pages+0x84>
80012b20:	00000000 	nop
80012b24:	8fc20018 	lw	v0,24(s8)
80012b28:	1040006e 	beqz	v0,80012ce4 <default_alloc_pages+0x2a0>
80012b2c:	00000000 	nop
80012b30:	8fc20018 	lw	v0,24(s8)
80012b34:	2442000c 	addiu	v0,v0,12
80012b38:	afc2002c 	sw	v0,44(s8)
80012b3c:	8fc2002c 	lw	v0,44(s8)
80012b40:	8c430000 	lw	v1,0(v0)
80012b44:	8fc2002c 	lw	v0,44(s8)
80012b48:	8c420004 	lw	v0,4(v0)
80012b4c:	afc30030 	sw	v1,48(s8)
80012b50:	afc20034 	sw	v0,52(s8)
80012b54:	8fc20030 	lw	v0,48(s8)
80012b58:	8fc30034 	lw	v1,52(s8)
80012b5c:	ac430004 	sw	v1,4(v0)
80012b60:	8fc20034 	lw	v0,52(s8)
80012b64:	8fc30030 	lw	v1,48(s8)
80012b68:	ac430000 	sw	v1,0(v0)
80012b6c:	8fc20018 	lw	v0,24(s8)
80012b70:	8c430008 	lw	v1,8(v0)
80012b74:	8fc20078 	lw	v0,120(s8)
80012b78:	0043102b 	sltu	v0,v0,v1
80012b7c:	1040003d 	beqz	v0,80012c74 <default_alloc_pages+0x230>
80012b80:	00000000 	nop
80012b84:	8fc20078 	lw	v0,120(s8)
80012b88:	00021140 	sll	v0,v0,0x5
80012b8c:	8fc30018 	lw	v1,24(s8)
80012b90:	00621021 	addu	v0,v1,v0
80012b94:	afc20024 	sw	v0,36(s8)
80012b98:	8fc20018 	lw	v0,24(s8)
80012b9c:	8c430008 	lw	v1,8(v0)
80012ba0:	8fc20078 	lw	v0,120(s8)
80012ba4:	00621823 	subu	v1,v1,v0
80012ba8:	8fc20024 	lw	v0,36(s8)
80012bac:	ac430008 	sw	v1,8(v0)
80012bb0:	8fc20024 	lw	v0,36(s8)
80012bb4:	24420004 	addiu	v0,v0,4
80012bb8:	24030001 	li	v1,1
80012bbc:	afc30038 	sw	v1,56(s8)
80012bc0:	afc2003c 	sw	v0,60(s8)
80012bc4:	0c004914 	jal	80012450 <__intr_save>
80012bc8:	00000000 	nop
80012bcc:	afc20040 	sw	v0,64(s8)
80012bd0:	8fc2003c 	lw	v0,60(s8)
80012bd4:	8c430000 	lw	v1,0(v0)
80012bd8:	24040001 	li	a0,1
80012bdc:	8fc20038 	lw	v0,56(s8)
80012be0:	00441004 	sllv	v0,a0,v0
80012be4:	00621825 	or	v1,v1,v0
80012be8:	8fc2003c 	lw	v0,60(s8)
80012bec:	ac430000 	sw	v1,0(v0)
80012bf0:	8fc40040 	lw	a0,64(s8)
80012bf4:	0c00492a 	jal	800124a8 <__intr_restore>
80012bf8:	00000000 	nop
80012bfc:	8fc20018 	lw	v0,24(s8)
80012c00:	8c43000c 	lw	v1,12(v0)
80012c04:	8fc20024 	lw	v0,36(s8)
80012c08:	2442000c 	addiu	v0,v0,12
80012c0c:	afc30044 	sw	v1,68(s8)
80012c10:	afc20048 	sw	v0,72(s8)
80012c14:	8fc20044 	lw	v0,68(s8)
80012c18:	afc2004c 	sw	v0,76(s8)
80012c1c:	8fc20048 	lw	v0,72(s8)
80012c20:	afc20050 	sw	v0,80(s8)
80012c24:	8fc2004c 	lw	v0,76(s8)
80012c28:	8c420004 	lw	v0,4(v0)
80012c2c:	8fc30050 	lw	v1,80(s8)
80012c30:	afc30054 	sw	v1,84(s8)
80012c34:	8fc3004c 	lw	v1,76(s8)
80012c38:	afc30058 	sw	v1,88(s8)
80012c3c:	afc2005c 	sw	v0,92(s8)
80012c40:	8fc2005c 	lw	v0,92(s8)
80012c44:	8fc30054 	lw	v1,84(s8)
80012c48:	ac430000 	sw	v1,0(v0)
80012c4c:	8fc2005c 	lw	v0,92(s8)
80012c50:	8c430000 	lw	v1,0(v0)
80012c54:	8fc20058 	lw	v0,88(s8)
80012c58:	ac430004 	sw	v1,4(v0)
80012c5c:	8fc20054 	lw	v0,84(s8)
80012c60:	8fc3005c 	lw	v1,92(s8)
80012c64:	ac430004 	sw	v1,4(v0)
80012c68:	8fc20054 	lw	v0,84(s8)
80012c6c:	8fc30058 	lw	v1,88(s8)
80012c70:	ac430000 	sw	v1,0(v0)
80012c74:	3c028036 	lui	v0,0x8036
80012c78:	244220f0 	addiu	v0,v0,8432
80012c7c:	8c430008 	lw	v1,8(v0)
80012c80:	8fc20078 	lw	v0,120(s8)
80012c84:	00621823 	subu	v1,v1,v0
80012c88:	3c028036 	lui	v0,0x8036
80012c8c:	244220f0 	addiu	v0,v0,8432
80012c90:	ac430008 	sw	v1,8(v0)
80012c94:	8fc20018 	lw	v0,24(s8)
80012c98:	24420004 	addiu	v0,v0,4
80012c9c:	24030001 	li	v1,1
80012ca0:	afc30060 	sw	v1,96(s8)
80012ca4:	afc20064 	sw	v0,100(s8)
80012ca8:	0c004914 	jal	80012450 <__intr_save>
80012cac:	00000000 	nop
80012cb0:	afc20068 	sw	v0,104(s8)
80012cb4:	8fc20064 	lw	v0,100(s8)
80012cb8:	8c430000 	lw	v1,0(v0)
80012cbc:	24040001 	li	a0,1
80012cc0:	8fc20060 	lw	v0,96(s8)
80012cc4:	00441004 	sllv	v0,a0,v0
80012cc8:	00021027 	nor	v0,zero,v0
80012ccc:	00621824 	and	v1,v1,v0
80012cd0:	8fc20064 	lw	v0,100(s8)
80012cd4:	ac430000 	sw	v1,0(v0)
80012cd8:	8fc40068 	lw	a0,104(s8)
80012cdc:	0c00492a 	jal	800124a8 <__intr_restore>
80012ce0:	00000000 	nop
80012ce4:	8fc20018 	lw	v0,24(s8)
80012ce8:	03c0e821 	move	sp,s8
80012cec:	8fbf0074 	lw	ra,116(sp)
80012cf0:	8fbe0070 	lw	s8,112(sp)
80012cf4:	27bd0078 	addiu	sp,sp,120
80012cf8:	03e00008 	jr	ra
80012cfc:	00000000 	nop

80012d00 <default_free_pages>:
80012d00:	27bdff70 	addiu	sp,sp,-144
80012d04:	afbf008c 	sw	ra,140(sp)
80012d08:	afbe0088 	sw	s8,136(sp)
80012d0c:	03a0f021 	move	s8,sp
80012d10:	afc40090 	sw	a0,144(s8)
80012d14:	afc50094 	sw	a1,148(s8)
80012d18:	8fc20094 	lw	v0,148(s8)
80012d1c:	1440000a 	bnez	v0,80012d48 <default_free_pages+0x48>
80012d20:	00000000 	nop
80012d24:	3c028002 	lui	v0,0x8002
80012d28:	244426b0 	addiu	a0,v0,9904
80012d2c:	24050086 	li	a1,134
80012d30:	3c028002 	lui	v0,0x8002
80012d34:	244626c8 	addiu	a2,v0,9928
80012d38:	3c028002 	lui	v0,0x8002
80012d3c:	24472738 	addiu	a3,v0,10040
80012d40:	0c004544 	jal	80011510 <__panic>
80012d44:	00000000 	nop
80012d48:	8fc20090 	lw	v0,144(s8)
80012d4c:	afc20018 	sw	v0,24(s8)
80012d50:	08004b95 	j	80012e54 <default_free_pages+0x154>
80012d54:	00000000 	nop
80012d58:	8fc20018 	lw	v0,24(s8)
80012d5c:	24420004 	addiu	v0,v0,4
80012d60:	afc00020 	sw	zero,32(s8)
80012d64:	afc20024 	sw	v0,36(s8)
80012d68:	0c004914 	jal	80012450 <__intr_save>
80012d6c:	00000000 	nop
80012d70:	afc20028 	sw	v0,40(s8)
80012d74:	8fc20024 	lw	v0,36(s8)
80012d78:	8c430000 	lw	v1,0(v0)
80012d7c:	24040001 	li	a0,1
80012d80:	8fc20020 	lw	v0,32(s8)
80012d84:	00441004 	sllv	v0,a0,v0
80012d88:	00621024 	and	v0,v1,v0
80012d8c:	afc2002c 	sw	v0,44(s8)
80012d90:	8fc40028 	lw	a0,40(s8)
80012d94:	0c00492a 	jal	800124a8 <__intr_restore>
80012d98:	00000000 	nop
80012d9c:	8fc2002c 	lw	v0,44(s8)
80012da0:	0002102b 	sltu	v0,zero,v0
80012da4:	304200ff 	andi	v0,v0,0xff
80012da8:	14400018 	bnez	v0,80012e0c <default_free_pages+0x10c>
80012dac:	00000000 	nop
80012db0:	8fc20018 	lw	v0,24(s8)
80012db4:	24420004 	addiu	v0,v0,4
80012db8:	24030001 	li	v1,1
80012dbc:	afc30030 	sw	v1,48(s8)
80012dc0:	afc20034 	sw	v0,52(s8)
80012dc4:	0c004914 	jal	80012450 <__intr_save>
80012dc8:	00000000 	nop
80012dcc:	afc20038 	sw	v0,56(s8)
80012dd0:	8fc20034 	lw	v0,52(s8)
80012dd4:	8c430000 	lw	v1,0(v0)
80012dd8:	24040001 	li	a0,1
80012ddc:	8fc20030 	lw	v0,48(s8)
80012de0:	00441004 	sllv	v0,a0,v0
80012de4:	00621024 	and	v0,v1,v0
80012de8:	afc2003c 	sw	v0,60(s8)
80012dec:	8fc40038 	lw	a0,56(s8)
80012df0:	0c00492a 	jal	800124a8 <__intr_restore>
80012df4:	00000000 	nop
80012df8:	8fc2003c 	lw	v0,60(s8)
80012dfc:	0002102b 	sltu	v0,zero,v0
80012e00:	304200ff 	andi	v0,v0,0xff
80012e04:	1040000a 	beqz	v0,80012e30 <default_free_pages+0x130>
80012e08:	00000000 	nop
80012e0c:	3c028002 	lui	v0,0x8002
80012e10:	244426b0 	addiu	a0,v0,9904
80012e14:	24050089 	li	a1,137
80012e18:	3c028002 	lui	v0,0x8002
80012e1c:	244626c8 	addiu	a2,v0,9928
80012e20:	3c028002 	lui	v0,0x8002
80012e24:	24472750 	addiu	a3,v0,10064
80012e28:	0c004544 	jal	80011510 <__panic>
80012e2c:	00000000 	nop
80012e30:	8fc20018 	lw	v0,24(s8)
80012e34:	ac400004 	sw	zero,4(v0)
80012e38:	8fc40018 	lw	a0,24(s8)
80012e3c:	00002821 	move	a1,zero
80012e40:	0c004962 	jal	80012588 <set_page_ref>
80012e44:	00000000 	nop
80012e48:	8fc20018 	lw	v0,24(s8)
80012e4c:	24420020 	addiu	v0,v0,32
80012e50:	afc20018 	sw	v0,24(s8)
80012e54:	8fc20094 	lw	v0,148(s8)
80012e58:	00021140 	sll	v0,v0,0x5
80012e5c:	8fc30090 	lw	v1,144(s8)
80012e60:	00621821 	addu	v1,v1,v0
80012e64:	8fc20018 	lw	v0,24(s8)
80012e68:	1462ffbb 	bne	v1,v0,80012d58 <default_free_pages+0x58>
80012e6c:	00000000 	nop
80012e70:	8fc20090 	lw	v0,144(s8)
80012e74:	8fc30094 	lw	v1,148(s8)
80012e78:	ac430008 	sw	v1,8(v0)
80012e7c:	8fc20090 	lw	v0,144(s8)
80012e80:	24420004 	addiu	v0,v0,4
80012e84:	24030001 	li	v1,1
80012e88:	afc30040 	sw	v1,64(s8)
80012e8c:	afc20044 	sw	v0,68(s8)
80012e90:	0c004914 	jal	80012450 <__intr_save>
80012e94:	00000000 	nop
80012e98:	afc20048 	sw	v0,72(s8)
80012e9c:	8fc20044 	lw	v0,68(s8)
80012ea0:	8c430000 	lw	v1,0(v0)
80012ea4:	24040001 	li	a0,1
80012ea8:	8fc20040 	lw	v0,64(s8)
80012eac:	00441004 	sllv	v0,a0,v0
80012eb0:	00621825 	or	v1,v1,v0
80012eb4:	8fc20044 	lw	v0,68(s8)
80012eb8:	ac430000 	sw	v1,0(v0)
80012ebc:	8fc40048 	lw	a0,72(s8)
80012ec0:	0c00492a 	jal	800124a8 <__intr_restore>
80012ec4:	00000000 	nop
80012ec8:	3c028036 	lui	v0,0x8036
80012ecc:	244220f0 	addiu	v0,v0,8432
80012ed0:	afc2004c 	sw	v0,76(s8)
80012ed4:	8fc2004c 	lw	v0,76(s8)
80012ed8:	8c420004 	lw	v0,4(v0)
80012edc:	afc2001c 	sw	v0,28(s8)
80012ee0:	08004c2a 	j	800130a8 <default_free_pages+0x3a8>
80012ee4:	00000000 	nop
80012ee8:	8fc2001c 	lw	v0,28(s8)
80012eec:	2442fff4 	addiu	v0,v0,-12
80012ef0:	afc20018 	sw	v0,24(s8)
80012ef4:	8fc2001c 	lw	v0,28(s8)
80012ef8:	afc20050 	sw	v0,80(s8)
80012efc:	8fc20050 	lw	v0,80(s8)
80012f00:	8c420004 	lw	v0,4(v0)
80012f04:	afc2001c 	sw	v0,28(s8)
80012f08:	8fc20090 	lw	v0,144(s8)
80012f0c:	8c420008 	lw	v0,8(v0)
80012f10:	00021140 	sll	v0,v0,0x5
80012f14:	8fc30090 	lw	v1,144(s8)
80012f18:	00621821 	addu	v1,v1,v0
80012f1c:	8fc20018 	lw	v0,24(s8)
80012f20:	1462002d 	bne	v1,v0,80012fd8 <default_free_pages+0x2d8>
80012f24:	00000000 	nop
80012f28:	8fc20090 	lw	v0,144(s8)
80012f2c:	8c430008 	lw	v1,8(v0)
80012f30:	8fc20018 	lw	v0,24(s8)
80012f34:	8c420008 	lw	v0,8(v0)
80012f38:	00621821 	addu	v1,v1,v0
80012f3c:	8fc20090 	lw	v0,144(s8)
80012f40:	ac430008 	sw	v1,8(v0)
80012f44:	8fc20018 	lw	v0,24(s8)
80012f48:	24420004 	addiu	v0,v0,4
80012f4c:	24030001 	li	v1,1
80012f50:	afc30054 	sw	v1,84(s8)
80012f54:	afc20058 	sw	v0,88(s8)
80012f58:	0c004914 	jal	80012450 <__intr_save>
80012f5c:	00000000 	nop
80012f60:	afc2005c 	sw	v0,92(s8)
80012f64:	8fc20058 	lw	v0,88(s8)
80012f68:	8c430000 	lw	v1,0(v0)
80012f6c:	24040001 	li	a0,1
80012f70:	8fc20054 	lw	v0,84(s8)
80012f74:	00441004 	sllv	v0,a0,v0
80012f78:	00021027 	nor	v0,zero,v0
80012f7c:	00621824 	and	v1,v1,v0
80012f80:	8fc20058 	lw	v0,88(s8)
80012f84:	ac430000 	sw	v1,0(v0)
80012f88:	8fc4005c 	lw	a0,92(s8)
80012f8c:	0c00492a 	jal	800124a8 <__intr_restore>
80012f90:	00000000 	nop
80012f94:	8fc20018 	lw	v0,24(s8)
80012f98:	2442000c 	addiu	v0,v0,12
80012f9c:	afc20060 	sw	v0,96(s8)
80012fa0:	8fc20060 	lw	v0,96(s8)
80012fa4:	8c430000 	lw	v1,0(v0)
80012fa8:	8fc20060 	lw	v0,96(s8)
80012fac:	8c420004 	lw	v0,4(v0)
80012fb0:	afc30064 	sw	v1,100(s8)
80012fb4:	afc20068 	sw	v0,104(s8)
80012fb8:	8fc20064 	lw	v0,100(s8)
80012fbc:	8fc30068 	lw	v1,104(s8)
80012fc0:	ac430004 	sw	v1,4(v0)
80012fc4:	8fc20068 	lw	v0,104(s8)
80012fc8:	8fc30064 	lw	v1,100(s8)
80012fcc:	ac430000 	sw	v1,0(v0)
80012fd0:	08004c2a 	j	800130a8 <default_free_pages+0x3a8>
80012fd4:	00000000 	nop
80012fd8:	8fc20018 	lw	v0,24(s8)
80012fdc:	8c420008 	lw	v0,8(v0)
80012fe0:	00021140 	sll	v0,v0,0x5
80012fe4:	8fc30018 	lw	v1,24(s8)
80012fe8:	00621821 	addu	v1,v1,v0
80012fec:	8fc20090 	lw	v0,144(s8)
80012ff0:	1462002d 	bne	v1,v0,800130a8 <default_free_pages+0x3a8>
80012ff4:	00000000 	nop
80012ff8:	8fc20018 	lw	v0,24(s8)
80012ffc:	8c430008 	lw	v1,8(v0)
80013000:	8fc20090 	lw	v0,144(s8)
80013004:	8c420008 	lw	v0,8(v0)
80013008:	00621821 	addu	v1,v1,v0
8001300c:	8fc20018 	lw	v0,24(s8)
80013010:	ac430008 	sw	v1,8(v0)
80013014:	8fc20090 	lw	v0,144(s8)
80013018:	24420004 	addiu	v0,v0,4
8001301c:	24030001 	li	v1,1
80013020:	afc3006c 	sw	v1,108(s8)
80013024:	afc20070 	sw	v0,112(s8)
80013028:	0c004914 	jal	80012450 <__intr_save>
8001302c:	00000000 	nop
80013030:	afc20074 	sw	v0,116(s8)
80013034:	8fc20070 	lw	v0,112(s8)
80013038:	8c430000 	lw	v1,0(v0)
8001303c:	24040001 	li	a0,1
80013040:	8fc2006c 	lw	v0,108(s8)
80013044:	00441004 	sllv	v0,a0,v0
80013048:	00021027 	nor	v0,zero,v0
8001304c:	00621824 	and	v1,v1,v0
80013050:	8fc20070 	lw	v0,112(s8)
80013054:	ac430000 	sw	v1,0(v0)
80013058:	8fc40074 	lw	a0,116(s8)
8001305c:	0c00492a 	jal	800124a8 <__intr_restore>
80013060:	00000000 	nop
80013064:	8fc20018 	lw	v0,24(s8)
80013068:	afc20090 	sw	v0,144(s8)
8001306c:	8fc20018 	lw	v0,24(s8)
80013070:	2442000c 	addiu	v0,v0,12
80013074:	afc20078 	sw	v0,120(s8)
80013078:	8fc20078 	lw	v0,120(s8)
8001307c:	8c430000 	lw	v1,0(v0)
80013080:	8fc20078 	lw	v0,120(s8)
80013084:	8c420004 	lw	v0,4(v0)
80013088:	afc3007c 	sw	v1,124(s8)
8001308c:	afc20080 	sw	v0,128(s8)
80013090:	8fc2007c 	lw	v0,124(s8)
80013094:	8fc30080 	lw	v1,128(s8)
80013098:	ac430004 	sw	v1,4(v0)
8001309c:	8fc20080 	lw	v0,128(s8)
800130a0:	8fc3007c 	lw	v1,124(s8)
800130a4:	ac430000 	sw	v1,0(v0)
800130a8:	8fc3001c 	lw	v1,28(s8)
800130ac:	3c028036 	lui	v0,0x8036
800130b0:	244220f0 	addiu	v0,v0,8432
800130b4:	1462ff8c 	bne	v1,v0,80012ee8 <default_free_pages+0x1e8>
800130b8:	00000000 	nop
800130bc:	3c028036 	lui	v0,0x8036
800130c0:	244220f0 	addiu	v0,v0,8432
800130c4:	8c430008 	lw	v1,8(v0)
800130c8:	8fc20094 	lw	v0,148(s8)
800130cc:	00621821 	addu	v1,v1,v0
800130d0:	3c028036 	lui	v0,0x8036
800130d4:	244220f0 	addiu	v0,v0,8432
800130d8:	ac430008 	sw	v1,8(v0)
800130dc:	8fc20090 	lw	v0,144(s8)
800130e0:	2442000c 	addiu	v0,v0,12
800130e4:	3c038036 	lui	v1,0x8036
800130e8:	246420f0 	addiu	a0,v1,8432
800130ec:	00402821 	move	a1,v0
800130f0:	0c00496f 	jal	800125bc <default_list_add>
800130f4:	00000000 	nop
800130f8:	03c0e821 	move	sp,s8
800130fc:	8fbf008c 	lw	ra,140(sp)
80013100:	8fbe0088 	lw	s8,136(sp)
80013104:	27bd0090 	addiu	sp,sp,144
80013108:	03e00008 	jr	ra
8001310c:	00000000 	nop

80013110 <default_nr_free_pages>:
80013110:	27bdfff8 	addiu	sp,sp,-8
80013114:	afbe0004 	sw	s8,4(sp)
80013118:	03a0f021 	move	s8,sp
8001311c:	3c028036 	lui	v0,0x8036
80013120:	244220f0 	addiu	v0,v0,8432
80013124:	8c420008 	lw	v0,8(v0)
80013128:	03c0e821 	move	sp,s8
8001312c:	8fbe0004 	lw	s8,4(sp)
80013130:	27bd0008 	addiu	sp,sp,8
80013134:	03e00008 	jr	ra
80013138:	00000000 	nop

8001313c <basic_check>:
8001313c:	27bdffb8 	addiu	sp,sp,-72
80013140:	afbf0044 	sw	ra,68(sp)
80013144:	afbe0040 	sw	s8,64(sp)
80013148:	03a0f021 	move	s8,sp
8001314c:	afc00018 	sw	zero,24(s8)
80013150:	8fc20018 	lw	v0,24(s8)
80013154:	afc2001c 	sw	v0,28(s8)
80013158:	8fc2001c 	lw	v0,28(s8)
8001315c:	afc20020 	sw	v0,32(s8)
80013160:	24040001 	li	a0,1
80013164:	0c005462 	jal	80015188 <alloc_pages>
80013168:	00000000 	nop
8001316c:	afc20020 	sw	v0,32(s8)
80013170:	8fc20020 	lw	v0,32(s8)
80013174:	1440000a 	bnez	v0,800131a0 <basic_check+0x64>
80013178:	00000000 	nop
8001317c:	3c028002 	lui	v0,0x8002
80013180:	244426b0 	addiu	a0,v0,9904
80013184:	240500ae 	li	a1,174
80013188:	3c028002 	lui	v0,0x8002
8001318c:	244626c8 	addiu	a2,v0,9928
80013190:	3c028002 	lui	v0,0x8002
80013194:	24472778 	addiu	a3,v0,10104
80013198:	0c004544 	jal	80011510 <__panic>
8001319c:	00000000 	nop
800131a0:	24040001 	li	a0,1
800131a4:	0c005462 	jal	80015188 <alloc_pages>
800131a8:	00000000 	nop
800131ac:	afc2001c 	sw	v0,28(s8)
800131b0:	8fc2001c 	lw	v0,28(s8)
800131b4:	1440000a 	bnez	v0,800131e0 <basic_check+0xa4>
800131b8:	00000000 	nop
800131bc:	3c028002 	lui	v0,0x8002
800131c0:	244426b0 	addiu	a0,v0,9904
800131c4:	240500af 	li	a1,175
800131c8:	3c028002 	lui	v0,0x8002
800131cc:	244626c8 	addiu	a2,v0,9928
800131d0:	3c028002 	lui	v0,0x8002
800131d4:	24472794 	addiu	a3,v0,10132
800131d8:	0c004544 	jal	80011510 <__panic>
800131dc:	00000000 	nop
800131e0:	24040001 	li	a0,1
800131e4:	0c005462 	jal	80015188 <alloc_pages>
800131e8:	00000000 	nop
800131ec:	afc20018 	sw	v0,24(s8)
800131f0:	8fc20018 	lw	v0,24(s8)
800131f4:	1440000a 	bnez	v0,80013220 <basic_check+0xe4>
800131f8:	00000000 	nop
800131fc:	3c028002 	lui	v0,0x8002
80013200:	244426b0 	addiu	a0,v0,9904
80013204:	240500b0 	li	a1,176
80013208:	3c028002 	lui	v0,0x8002
8001320c:	244626c8 	addiu	a2,v0,9928
80013210:	3c028002 	lui	v0,0x8002
80013214:	244727b0 	addiu	a3,v0,10160
80013218:	0c004544 	jal	80011510 <__panic>
8001321c:	00000000 	nop
80013220:	8fc30020 	lw	v1,32(s8)
80013224:	8fc2001c 	lw	v0,28(s8)
80013228:	10620009 	beq	v1,v0,80013250 <basic_check+0x114>
8001322c:	00000000 	nop
80013230:	8fc30020 	lw	v1,32(s8)
80013234:	8fc20018 	lw	v0,24(s8)
80013238:	10620005 	beq	v1,v0,80013250 <basic_check+0x114>
8001323c:	00000000 	nop
80013240:	8fc3001c 	lw	v1,28(s8)
80013244:	8fc20018 	lw	v0,24(s8)
80013248:	1462000a 	bne	v1,v0,80013274 <basic_check+0x138>
8001324c:	00000000 	nop
80013250:	3c028002 	lui	v0,0x8002
80013254:	244426b0 	addiu	a0,v0,9904
80013258:	240500b2 	li	a1,178
8001325c:	3c028002 	lui	v0,0x8002
80013260:	244626c8 	addiu	a2,v0,9928
80013264:	3c028002 	lui	v0,0x8002
80013268:	244727cc 	addiu	a3,v0,10188
8001326c:	0c004544 	jal	80011510 <__panic>
80013270:	00000000 	nop
80013274:	8fc40020 	lw	a0,32(s8)
80013278:	0c004957 	jal	8001255c <page_ref>
8001327c:	00000000 	nop
80013280:	1440000b 	bnez	v0,800132b0 <basic_check+0x174>
80013284:	00000000 	nop
80013288:	8fc4001c 	lw	a0,28(s8)
8001328c:	0c004957 	jal	8001255c <page_ref>
80013290:	00000000 	nop
80013294:	14400006 	bnez	v0,800132b0 <basic_check+0x174>
80013298:	00000000 	nop
8001329c:	8fc40018 	lw	a0,24(s8)
800132a0:	0c004957 	jal	8001255c <page_ref>
800132a4:	00000000 	nop
800132a8:	1040000a 	beqz	v0,800132d4 <basic_check+0x198>
800132ac:	00000000 	nop
800132b0:	3c028002 	lui	v0,0x8002
800132b4:	244426b0 	addiu	a0,v0,9904
800132b8:	240500b3 	li	a1,179
800132bc:	3c028002 	lui	v0,0x8002
800132c0:	244626c8 	addiu	a2,v0,9928
800132c4:	3c028002 	lui	v0,0x8002
800132c8:	244727f0 	addiu	a3,v0,10224
800132cc:	0c004544 	jal	80011510 <__panic>
800132d0:	00000000 	nop
800132d4:	8fc40020 	lw	a0,32(s8)
800132d8:	0c004948 	jal	80012520 <page2pa>
800132dc:	00000000 	nop
800132e0:	00401821 	move	v1,v0
800132e4:	3c028036 	lui	v0,0x8036
800132e8:	8c420030 	lw	v0,48(v0)
800132ec:	00021300 	sll	v0,v0,0xc
800132f0:	0062102b 	sltu	v0,v1,v0
800132f4:	1440000a 	bnez	v0,80013320 <basic_check+0x1e4>
800132f8:	00000000 	nop
800132fc:	3c028002 	lui	v0,0x8002
80013300:	244426b0 	addiu	a0,v0,9904
80013304:	240500b5 	li	a1,181
80013308:	3c028002 	lui	v0,0x8002
8001330c:	244626c8 	addiu	a2,v0,9928
80013310:	3c028002 	lui	v0,0x8002
80013314:	2447282c 	addiu	a3,v0,10284
80013318:	0c004544 	jal	80011510 <__panic>
8001331c:	00000000 	nop
80013320:	8fc4001c 	lw	a0,28(s8)
80013324:	0c004948 	jal	80012520 <page2pa>
80013328:	00000000 	nop
8001332c:	00401821 	move	v1,v0
80013330:	3c028036 	lui	v0,0x8036
80013334:	8c420030 	lw	v0,48(v0)
80013338:	00021300 	sll	v0,v0,0xc
8001333c:	0062102b 	sltu	v0,v1,v0
80013340:	1440000a 	bnez	v0,8001336c <basic_check+0x230>
80013344:	00000000 	nop
80013348:	3c028002 	lui	v0,0x8002
8001334c:	244426b0 	addiu	a0,v0,9904
80013350:	240500b6 	li	a1,182
80013354:	3c028002 	lui	v0,0x8002
80013358:	244626c8 	addiu	a2,v0,9928
8001335c:	3c028002 	lui	v0,0x8002
80013360:	2447284c 	addiu	a3,v0,10316
80013364:	0c004544 	jal	80011510 <__panic>
80013368:	00000000 	nop
8001336c:	8fc40018 	lw	a0,24(s8)
80013370:	0c004948 	jal	80012520 <page2pa>
80013374:	00000000 	nop
80013378:	00401821 	move	v1,v0
8001337c:	3c028036 	lui	v0,0x8036
80013380:	8c420030 	lw	v0,48(v0)
80013384:	00021300 	sll	v0,v0,0xc
80013388:	0062102b 	sltu	v0,v1,v0
8001338c:	1440000a 	bnez	v0,800133b8 <basic_check+0x27c>
80013390:	00000000 	nop
80013394:	3c028002 	lui	v0,0x8002
80013398:	244426b0 	addiu	a0,v0,9904
8001339c:	240500b7 	li	a1,183
800133a0:	3c028002 	lui	v0,0x8002
800133a4:	244626c8 	addiu	a2,v0,9928
800133a8:	3c028002 	lui	v0,0x8002
800133ac:	2447286c 	addiu	a3,v0,10348
800133b0:	0c004544 	jal	80011510 <__panic>
800133b4:	00000000 	nop
800133b8:	3c028036 	lui	v0,0x8036
800133bc:	8c4320f0 	lw	v1,8432(v0)
800133c0:	244220f0 	addiu	v0,v0,8432
800133c4:	8c420004 	lw	v0,4(v0)
800133c8:	afc30038 	sw	v1,56(s8)
800133cc:	afc2003c 	sw	v0,60(s8)
800133d0:	3c028036 	lui	v0,0x8036
800133d4:	244220f0 	addiu	v0,v0,8432
800133d8:	afc2002c 	sw	v0,44(s8)
800133dc:	8fc2002c 	lw	v0,44(s8)
800133e0:	8fc3002c 	lw	v1,44(s8)
800133e4:	ac430004 	sw	v1,4(v0)
800133e8:	8fc2002c 	lw	v0,44(s8)
800133ec:	8c430004 	lw	v1,4(v0)
800133f0:	8fc2002c 	lw	v0,44(s8)
800133f4:	ac430000 	sw	v1,0(v0)
800133f8:	3c028036 	lui	v0,0x8036
800133fc:	244220f0 	addiu	v0,v0,8432
80013400:	afc20030 	sw	v0,48(s8)
80013404:	8fc20030 	lw	v0,48(s8)
80013408:	8c430004 	lw	v1,4(v0)
8001340c:	8fc20030 	lw	v0,48(s8)
80013410:	00621026 	xor	v0,v1,v0
80013414:	2c420001 	sltiu	v0,v0,1
80013418:	304200ff 	andi	v0,v0,0xff
8001341c:	1440000a 	bnez	v0,80013448 <basic_check+0x30c>
80013420:	00000000 	nop
80013424:	3c028002 	lui	v0,0x8002
80013428:	244426b0 	addiu	a0,v0,9904
8001342c:	240500bb 	li	a1,187
80013430:	3c028002 	lui	v0,0x8002
80013434:	244626c8 	addiu	a2,v0,9928
80013438:	3c028002 	lui	v0,0x8002
8001343c:	2447288c 	addiu	a3,v0,10380
80013440:	0c004544 	jal	80011510 <__panic>
80013444:	00000000 	nop
80013448:	3c028036 	lui	v0,0x8036
8001344c:	244220f0 	addiu	v0,v0,8432
80013450:	8c420008 	lw	v0,8(v0)
80013454:	afc20024 	sw	v0,36(s8)
80013458:	3c028036 	lui	v0,0x8036
8001345c:	244220f0 	addiu	v0,v0,8432
80013460:	ac400008 	sw	zero,8(v0)
80013464:	24040001 	li	a0,1
80013468:	0c005462 	jal	80015188 <alloc_pages>
8001346c:	00000000 	nop
80013470:	1040000a 	beqz	v0,8001349c <basic_check+0x360>
80013474:	00000000 	nop
80013478:	3c028002 	lui	v0,0x8002
8001347c:	244426b0 	addiu	a0,v0,9904
80013480:	240500c0 	li	a1,192
80013484:	3c028002 	lui	v0,0x8002
80013488:	244626c8 	addiu	a2,v0,9928
8001348c:	3c028002 	lui	v0,0x8002
80013490:	244728a4 	addiu	a3,v0,10404
80013494:	0c004544 	jal	80011510 <__panic>
80013498:	00000000 	nop
8001349c:	8fc40020 	lw	a0,32(s8)
800134a0:	24050001 	li	a1,1
800134a4:	0c005492 	jal	80015248 <free_pages>
800134a8:	00000000 	nop
800134ac:	8fc4001c 	lw	a0,28(s8)
800134b0:	24050001 	li	a1,1
800134b4:	0c005492 	jal	80015248 <free_pages>
800134b8:	00000000 	nop
800134bc:	8fc40018 	lw	a0,24(s8)
800134c0:	24050001 	li	a1,1
800134c4:	0c005492 	jal	80015248 <free_pages>
800134c8:	00000000 	nop
800134cc:	3c028036 	lui	v0,0x8036
800134d0:	244220f0 	addiu	v0,v0,8432
800134d4:	8c430008 	lw	v1,8(v0)
800134d8:	24020003 	li	v0,3
800134dc:	1062000a 	beq	v1,v0,80013508 <basic_check+0x3cc>
800134e0:	00000000 	nop
800134e4:	3c028002 	lui	v0,0x8002
800134e8:	244426b0 	addiu	a0,v0,9904
800134ec:	240500c5 	li	a1,197
800134f0:	3c028002 	lui	v0,0x8002
800134f4:	244626c8 	addiu	a2,v0,9928
800134f8:	3c028002 	lui	v0,0x8002
800134fc:	244728bc 	addiu	a3,v0,10428
80013500:	0c004544 	jal	80011510 <__panic>
80013504:	00000000 	nop
80013508:	24040001 	li	a0,1
8001350c:	0c005462 	jal	80015188 <alloc_pages>
80013510:	00000000 	nop
80013514:	afc20020 	sw	v0,32(s8)
80013518:	8fc20020 	lw	v0,32(s8)
8001351c:	1440000a 	bnez	v0,80013548 <basic_check+0x40c>
80013520:	00000000 	nop
80013524:	3c028002 	lui	v0,0x8002
80013528:	244426b0 	addiu	a0,v0,9904
8001352c:	240500c7 	li	a1,199
80013530:	3c028002 	lui	v0,0x8002
80013534:	244626c8 	addiu	a2,v0,9928
80013538:	3c028002 	lui	v0,0x8002
8001353c:	24472778 	addiu	a3,v0,10104
80013540:	0c004544 	jal	80011510 <__panic>
80013544:	00000000 	nop
80013548:	24040001 	li	a0,1
8001354c:	0c005462 	jal	80015188 <alloc_pages>
80013550:	00000000 	nop
80013554:	afc2001c 	sw	v0,28(s8)
80013558:	8fc2001c 	lw	v0,28(s8)
8001355c:	1440000a 	bnez	v0,80013588 <basic_check+0x44c>
80013560:	00000000 	nop
80013564:	3c028002 	lui	v0,0x8002
80013568:	244426b0 	addiu	a0,v0,9904
8001356c:	240500c8 	li	a1,200
80013570:	3c028002 	lui	v0,0x8002
80013574:	244626c8 	addiu	a2,v0,9928
80013578:	3c028002 	lui	v0,0x8002
8001357c:	24472794 	addiu	a3,v0,10132
80013580:	0c004544 	jal	80011510 <__panic>
80013584:	00000000 	nop
80013588:	24040001 	li	a0,1
8001358c:	0c005462 	jal	80015188 <alloc_pages>
80013590:	00000000 	nop
80013594:	afc20018 	sw	v0,24(s8)
80013598:	8fc20018 	lw	v0,24(s8)
8001359c:	1440000a 	bnez	v0,800135c8 <basic_check+0x48c>
800135a0:	00000000 	nop
800135a4:	3c028002 	lui	v0,0x8002
800135a8:	244426b0 	addiu	a0,v0,9904
800135ac:	240500c9 	li	a1,201
800135b0:	3c028002 	lui	v0,0x8002
800135b4:	244626c8 	addiu	a2,v0,9928
800135b8:	3c028002 	lui	v0,0x8002
800135bc:	244727b0 	addiu	a3,v0,10160
800135c0:	0c004544 	jal	80011510 <__panic>
800135c4:	00000000 	nop
800135c8:	24040001 	li	a0,1
800135cc:	0c005462 	jal	80015188 <alloc_pages>
800135d0:	00000000 	nop
800135d4:	1040000a 	beqz	v0,80013600 <basic_check+0x4c4>
800135d8:	00000000 	nop
800135dc:	3c028002 	lui	v0,0x8002
800135e0:	244426b0 	addiu	a0,v0,9904
800135e4:	240500cb 	li	a1,203
800135e8:	3c028002 	lui	v0,0x8002
800135ec:	244626c8 	addiu	a2,v0,9928
800135f0:	3c028002 	lui	v0,0x8002
800135f4:	244728a4 	addiu	a3,v0,10404
800135f8:	0c004544 	jal	80011510 <__panic>
800135fc:	00000000 	nop
80013600:	8fc40020 	lw	a0,32(s8)
80013604:	24050001 	li	a1,1
80013608:	0c005492 	jal	80015248 <free_pages>
8001360c:	00000000 	nop
80013610:	3c028036 	lui	v0,0x8036
80013614:	244220f0 	addiu	v0,v0,8432
80013618:	afc20034 	sw	v0,52(s8)
8001361c:	8fc20034 	lw	v0,52(s8)
80013620:	8c430004 	lw	v1,4(v0)
80013624:	8fc20034 	lw	v0,52(s8)
80013628:	00621026 	xor	v0,v1,v0
8001362c:	2c420001 	sltiu	v0,v0,1
80013630:	304200ff 	andi	v0,v0,0xff
80013634:	1040000a 	beqz	v0,80013660 <basic_check+0x524>
80013638:	00000000 	nop
8001363c:	3c028002 	lui	v0,0x8002
80013640:	244426b0 	addiu	a0,v0,9904
80013644:	240500ce 	li	a1,206
80013648:	3c028002 	lui	v0,0x8002
8001364c:	244626c8 	addiu	a2,v0,9928
80013650:	3c028002 	lui	v0,0x8002
80013654:	244728cc 	addiu	a3,v0,10444
80013658:	0c004544 	jal	80011510 <__panic>
8001365c:	00000000 	nop
80013660:	24040001 	li	a0,1
80013664:	0c005462 	jal	80015188 <alloc_pages>
80013668:	00000000 	nop
8001366c:	afc20028 	sw	v0,40(s8)
80013670:	8fc30028 	lw	v1,40(s8)
80013674:	8fc20020 	lw	v0,32(s8)
80013678:	1062000a 	beq	v1,v0,800136a4 <basic_check+0x568>
8001367c:	00000000 	nop
80013680:	3c028002 	lui	v0,0x8002
80013684:	244426b0 	addiu	a0,v0,9904
80013688:	240500d1 	li	a1,209
8001368c:	3c028002 	lui	v0,0x8002
80013690:	244626c8 	addiu	a2,v0,9928
80013694:	3c028002 	lui	v0,0x8002
80013698:	244728e4 	addiu	a3,v0,10468
8001369c:	0c004544 	jal	80011510 <__panic>
800136a0:	00000000 	nop
800136a4:	24040001 	li	a0,1
800136a8:	0c005462 	jal	80015188 <alloc_pages>
800136ac:	00000000 	nop
800136b0:	1040000a 	beqz	v0,800136dc <basic_check+0x5a0>
800136b4:	00000000 	nop
800136b8:	3c028002 	lui	v0,0x8002
800136bc:	244426b0 	addiu	a0,v0,9904
800136c0:	240500d2 	li	a1,210
800136c4:	3c028002 	lui	v0,0x8002
800136c8:	244626c8 	addiu	a2,v0,9928
800136cc:	3c028002 	lui	v0,0x8002
800136d0:	244728a4 	addiu	a3,v0,10404
800136d4:	0c004544 	jal	80011510 <__panic>
800136d8:	00000000 	nop
800136dc:	3c028036 	lui	v0,0x8036
800136e0:	244220f0 	addiu	v0,v0,8432
800136e4:	8c420008 	lw	v0,8(v0)
800136e8:	1040000a 	beqz	v0,80013714 <basic_check+0x5d8>
800136ec:	00000000 	nop
800136f0:	3c028002 	lui	v0,0x8002
800136f4:	244426b0 	addiu	a0,v0,9904
800136f8:	240500d4 	li	a1,212
800136fc:	3c028002 	lui	v0,0x8002
80013700:	244626c8 	addiu	a2,v0,9928
80013704:	3c028002 	lui	v0,0x8002
80013708:	24472900 	addiu	a3,v0,10496
8001370c:	0c004544 	jal	80011510 <__panic>
80013710:	00000000 	nop
80013714:	3c028036 	lui	v0,0x8036
80013718:	8fc40038 	lw	a0,56(s8)
8001371c:	8fc3003c 	lw	v1,60(s8)
80013720:	ac4420f0 	sw	a0,8432(v0)
80013724:	244220f0 	addiu	v0,v0,8432
80013728:	ac430004 	sw	v1,4(v0)
8001372c:	3c028036 	lui	v0,0x8036
80013730:	244220f0 	addiu	v0,v0,8432
80013734:	8fc30024 	lw	v1,36(s8)
80013738:	ac430008 	sw	v1,8(v0)
8001373c:	8fc40028 	lw	a0,40(s8)
80013740:	24050001 	li	a1,1
80013744:	0c005492 	jal	80015248 <free_pages>
80013748:	00000000 	nop
8001374c:	8fc4001c 	lw	a0,28(s8)
80013750:	24050001 	li	a1,1
80013754:	0c005492 	jal	80015248 <free_pages>
80013758:	00000000 	nop
8001375c:	8fc40018 	lw	a0,24(s8)
80013760:	24050001 	li	a1,1
80013764:	0c005492 	jal	80015248 <free_pages>
80013768:	00000000 	nop
8001376c:	03c0e821 	move	sp,s8
80013770:	8fbf0044 	lw	ra,68(sp)
80013774:	8fbe0040 	lw	s8,64(sp)
80013778:	27bd0048 	addiu	sp,sp,72
8001377c:	03e00008 	jr	ra
80013780:	00000000 	nop

80013784 <default_check>:
80013784:	27bdff48 	addiu	sp,sp,-184
80013788:	afbf00b4 	sw	ra,180(sp)
8001378c:	afbe00b0 	sw	s8,176(sp)
80013790:	afb000ac 	sw	s0,172(sp)
80013794:	03a0f021 	move	s8,sp
80013798:	afc00018 	sw	zero,24(s8)
8001379c:	afc0001c 	sw	zero,28(s8)
800137a0:	3c028036 	lui	v0,0x8036
800137a4:	244220f0 	addiu	v0,v0,8432
800137a8:	afc20020 	sw	v0,32(s8)
800137ac:	08004e18 	j	80013860 <default_check+0xdc>
800137b0:	00000000 	nop
800137b4:	8fc20020 	lw	v0,32(s8)
800137b8:	2442fff4 	addiu	v0,v0,-12
800137bc:	afc20024 	sw	v0,36(s8)
800137c0:	8fc20024 	lw	v0,36(s8)
800137c4:	24420004 	addiu	v0,v0,4
800137c8:	24030001 	li	v1,1
800137cc:	afc3003c 	sw	v1,60(s8)
800137d0:	afc20040 	sw	v0,64(s8)
800137d4:	0c004914 	jal	80012450 <__intr_save>
800137d8:	00000000 	nop
800137dc:	afc20044 	sw	v0,68(s8)
800137e0:	8fc20040 	lw	v0,64(s8)
800137e4:	8c430000 	lw	v1,0(v0)
800137e8:	24040001 	li	a0,1
800137ec:	8fc2003c 	lw	v0,60(s8)
800137f0:	00441004 	sllv	v0,a0,v0
800137f4:	00621024 	and	v0,v1,v0
800137f8:	afc20048 	sw	v0,72(s8)
800137fc:	8fc40044 	lw	a0,68(s8)
80013800:	0c00492a 	jal	800124a8 <__intr_restore>
80013804:	00000000 	nop
80013808:	8fc20048 	lw	v0,72(s8)
8001380c:	0002102b 	sltu	v0,zero,v0
80013810:	304200ff 	andi	v0,v0,0xff
80013814:	1440000a 	bnez	v0,80013840 <default_check+0xbc>
80013818:	00000000 	nop
8001381c:	3c028002 	lui	v0,0x8002
80013820:	244426b0 	addiu	a0,v0,9904
80013824:	240500e5 	li	a1,229
80013828:	3c028002 	lui	v0,0x8002
8001382c:	244626c8 	addiu	a2,v0,9928
80013830:	3c028002 	lui	v0,0x8002
80013834:	24472910 	addiu	a3,v0,10512
80013838:	0c004544 	jal	80011510 <__panic>
8001383c:	00000000 	nop
80013840:	8fc20018 	lw	v0,24(s8)
80013844:	24420001 	addiu	v0,v0,1
80013848:	afc20018 	sw	v0,24(s8)
8001384c:	8fc20024 	lw	v0,36(s8)
80013850:	8c430008 	lw	v1,8(v0)
80013854:	8fc2001c 	lw	v0,28(s8)
80013858:	00621021 	addu	v0,v1,v0
8001385c:	afc2001c 	sw	v0,28(s8)
80013860:	8fc20020 	lw	v0,32(s8)
80013864:	afc2004c 	sw	v0,76(s8)
80013868:	8fc2004c 	lw	v0,76(s8)
8001386c:	8c420004 	lw	v0,4(v0)
80013870:	afc20020 	sw	v0,32(s8)
80013874:	8fc30020 	lw	v1,32(s8)
80013878:	3c028036 	lui	v0,0x8036
8001387c:	244220f0 	addiu	v0,v0,8432
80013880:	1462ffcc 	bne	v1,v0,800137b4 <default_check+0x30>
80013884:	00000000 	nop
80013888:	8fd0001c 	lw	s0,28(s8)
8001388c:	0c0054ac 	jal	800152b0 <nr_free_pages>
80013890:	00000000 	nop
80013894:	1202000a 	beq	s0,v0,800138c0 <default_check+0x13c>
80013898:	00000000 	nop
8001389c:	3c028002 	lui	v0,0x8002
800138a0:	244426b0 	addiu	a0,v0,9904
800138a4:	240500e8 	li	a1,232
800138a8:	3c028002 	lui	v0,0x8002
800138ac:	244626c8 	addiu	a2,v0,9928
800138b0:	3c028002 	lui	v0,0x8002
800138b4:	24472920 	addiu	a3,v0,10528
800138b8:	0c004544 	jal	80011510 <__panic>
800138bc:	00000000 	nop
800138c0:	0c004c4f 	jal	8001313c <basic_check>
800138c4:	00000000 	nop
800138c8:	24040005 	li	a0,5
800138cc:	0c005462 	jal	80015188 <alloc_pages>
800138d0:	00000000 	nop
800138d4:	afc20028 	sw	v0,40(s8)
800138d8:	8fc20028 	lw	v0,40(s8)
800138dc:	1440000a 	bnez	v0,80013908 <default_check+0x184>
800138e0:	00000000 	nop
800138e4:	3c028002 	lui	v0,0x8002
800138e8:	244426b0 	addiu	a0,v0,9904
800138ec:	240500ed 	li	a1,237
800138f0:	3c028002 	lui	v0,0x8002
800138f4:	244626c8 	addiu	a2,v0,9928
800138f8:	3c028002 	lui	v0,0x8002
800138fc:	2447293c 	addiu	a3,v0,10556
80013900:	0c004544 	jal	80011510 <__panic>
80013904:	00000000 	nop
80013908:	8fc20028 	lw	v0,40(s8)
8001390c:	24420004 	addiu	v0,v0,4
80013910:	24030001 	li	v1,1
80013914:	afc30050 	sw	v1,80(s8)
80013918:	afc20054 	sw	v0,84(s8)
8001391c:	0c004914 	jal	80012450 <__intr_save>
80013920:	00000000 	nop
80013924:	afc20058 	sw	v0,88(s8)
80013928:	8fc20054 	lw	v0,84(s8)
8001392c:	8c430000 	lw	v1,0(v0)
80013930:	24040001 	li	a0,1
80013934:	8fc20050 	lw	v0,80(s8)
80013938:	00441004 	sllv	v0,a0,v0
8001393c:	00621024 	and	v0,v1,v0
80013940:	afc2005c 	sw	v0,92(s8)
80013944:	8fc40058 	lw	a0,88(s8)
80013948:	0c00492a 	jal	800124a8 <__intr_restore>
8001394c:	00000000 	nop
80013950:	8fc2005c 	lw	v0,92(s8)
80013954:	0002102b 	sltu	v0,zero,v0
80013958:	304200ff 	andi	v0,v0,0xff
8001395c:	1040000a 	beqz	v0,80013988 <default_check+0x204>
80013960:	00000000 	nop
80013964:	3c028002 	lui	v0,0x8002
80013968:	244426b0 	addiu	a0,v0,9904
8001396c:	240500ee 	li	a1,238
80013970:	3c028002 	lui	v0,0x8002
80013974:	244626c8 	addiu	a2,v0,9928
80013978:	3c028002 	lui	v0,0x8002
8001397c:	24472948 	addiu	a3,v0,10568
80013980:	0c004544 	jal	80011510 <__panic>
80013984:	00000000 	nop
80013988:	3c028036 	lui	v0,0x8036
8001398c:	8c4320f0 	lw	v1,8432(v0)
80013990:	244220f0 	addiu	v0,v0,8432
80013994:	8c420004 	lw	v0,4(v0)
80013998:	afc3009c 	sw	v1,156(s8)
8001399c:	afc200a0 	sw	v0,160(s8)
800139a0:	3c028036 	lui	v0,0x8036
800139a4:	244220f0 	addiu	v0,v0,8432
800139a8:	afc20060 	sw	v0,96(s8)
800139ac:	8fc20060 	lw	v0,96(s8)
800139b0:	8fc30060 	lw	v1,96(s8)
800139b4:	ac430004 	sw	v1,4(v0)
800139b8:	8fc20060 	lw	v0,96(s8)
800139bc:	8c430004 	lw	v1,4(v0)
800139c0:	8fc20060 	lw	v0,96(s8)
800139c4:	ac430000 	sw	v1,0(v0)
800139c8:	3c028036 	lui	v0,0x8036
800139cc:	244220f0 	addiu	v0,v0,8432
800139d0:	afc20064 	sw	v0,100(s8)
800139d4:	8fc20064 	lw	v0,100(s8)
800139d8:	8c430004 	lw	v1,4(v0)
800139dc:	8fc20064 	lw	v0,100(s8)
800139e0:	00621026 	xor	v0,v1,v0
800139e4:	2c420001 	sltiu	v0,v0,1
800139e8:	304200ff 	andi	v0,v0,0xff
800139ec:	1440000a 	bnez	v0,80013a18 <default_check+0x294>
800139f0:	00000000 	nop
800139f4:	3c028002 	lui	v0,0x8002
800139f8:	244426b0 	addiu	a0,v0,9904
800139fc:	240500f2 	li	a1,242
80013a00:	3c028002 	lui	v0,0x8002
80013a04:	244626c8 	addiu	a2,v0,9928
80013a08:	3c028002 	lui	v0,0x8002
80013a0c:	2447288c 	addiu	a3,v0,10380
80013a10:	0c004544 	jal	80011510 <__panic>
80013a14:	00000000 	nop
80013a18:	24040001 	li	a0,1
80013a1c:	0c005462 	jal	80015188 <alloc_pages>
80013a20:	00000000 	nop
80013a24:	1040000a 	beqz	v0,80013a50 <default_check+0x2cc>
80013a28:	00000000 	nop
80013a2c:	3c028002 	lui	v0,0x8002
80013a30:	244426b0 	addiu	a0,v0,9904
80013a34:	240500f3 	li	a1,243
80013a38:	3c028002 	lui	v0,0x8002
80013a3c:	244626c8 	addiu	a2,v0,9928
80013a40:	3c028002 	lui	v0,0x8002
80013a44:	244728a4 	addiu	a3,v0,10404
80013a48:	0c004544 	jal	80011510 <__panic>
80013a4c:	00000000 	nop
80013a50:	3c028036 	lui	v0,0x8036
80013a54:	244220f0 	addiu	v0,v0,8432
80013a58:	8c420008 	lw	v0,8(v0)
80013a5c:	afc2002c 	sw	v0,44(s8)
80013a60:	3c028036 	lui	v0,0x8036
80013a64:	244220f0 	addiu	v0,v0,8432
80013a68:	ac400008 	sw	zero,8(v0)
80013a6c:	8fc20028 	lw	v0,40(s8)
80013a70:	24420040 	addiu	v0,v0,64
80013a74:	00402021 	move	a0,v0
80013a78:	24050003 	li	a1,3
80013a7c:	0c005492 	jal	80015248 <free_pages>
80013a80:	00000000 	nop
80013a84:	24040004 	li	a0,4
80013a88:	0c005462 	jal	80015188 <alloc_pages>
80013a8c:	00000000 	nop
80013a90:	1040000a 	beqz	v0,80013abc <default_check+0x338>
80013a94:	00000000 	nop
80013a98:	3c028002 	lui	v0,0x8002
80013a9c:	244426b0 	addiu	a0,v0,9904
80013aa0:	240500f9 	li	a1,249
80013aa4:	3c028002 	lui	v0,0x8002
80013aa8:	244626c8 	addiu	a2,v0,9928
80013aac:	3c028002 	lui	v0,0x8002
80013ab0:	2447295c 	addiu	a3,v0,10588
80013ab4:	0c004544 	jal	80011510 <__panic>
80013ab8:	00000000 	nop
80013abc:	8fc20028 	lw	v0,40(s8)
80013ac0:	24420040 	addiu	v0,v0,64
80013ac4:	24420004 	addiu	v0,v0,4
80013ac8:	24030001 	li	v1,1
80013acc:	afc30068 	sw	v1,104(s8)
80013ad0:	afc2006c 	sw	v0,108(s8)
80013ad4:	0c004914 	jal	80012450 <__intr_save>
80013ad8:	00000000 	nop
80013adc:	afc20070 	sw	v0,112(s8)
80013ae0:	8fc2006c 	lw	v0,108(s8)
80013ae4:	8c430000 	lw	v1,0(v0)
80013ae8:	24040001 	li	a0,1
80013aec:	8fc20068 	lw	v0,104(s8)
80013af0:	00441004 	sllv	v0,a0,v0
80013af4:	00621024 	and	v0,v1,v0
80013af8:	afc20074 	sw	v0,116(s8)
80013afc:	8fc40070 	lw	a0,112(s8)
80013b00:	0c00492a 	jal	800124a8 <__intr_restore>
80013b04:	00000000 	nop
80013b08:	8fc20074 	lw	v0,116(s8)
80013b0c:	0002102b 	sltu	v0,zero,v0
80013b10:	304200ff 	andi	v0,v0,0xff
80013b14:	10400007 	beqz	v0,80013b34 <default_check+0x3b0>
80013b18:	00000000 	nop
80013b1c:	8fc20028 	lw	v0,40(s8)
80013b20:	24420040 	addiu	v0,v0,64
80013b24:	8c430008 	lw	v1,8(v0)
80013b28:	24020003 	li	v0,3
80013b2c:	1062000a 	beq	v1,v0,80013b58 <default_check+0x3d4>
80013b30:	00000000 	nop
80013b34:	3c028002 	lui	v0,0x8002
80013b38:	244426b0 	addiu	a0,v0,9904
80013b3c:	240500fa 	li	a1,250
80013b40:	3c028002 	lui	v0,0x8002
80013b44:	244626c8 	addiu	a2,v0,9928
80013b48:	3c028002 	lui	v0,0x8002
80013b4c:	24472974 	addiu	a3,v0,10612
80013b50:	0c004544 	jal	80011510 <__panic>
80013b54:	00000000 	nop
80013b58:	24040003 	li	a0,3
80013b5c:	0c005462 	jal	80015188 <alloc_pages>
80013b60:	00000000 	nop
80013b64:	afc20030 	sw	v0,48(s8)
80013b68:	8fc20030 	lw	v0,48(s8)
80013b6c:	1440000a 	bnez	v0,80013b98 <default_check+0x414>
80013b70:	00000000 	nop
80013b74:	3c028002 	lui	v0,0x8002
80013b78:	244426b0 	addiu	a0,v0,9904
80013b7c:	240500fb 	li	a1,251
80013b80:	3c028002 	lui	v0,0x8002
80013b84:	244626c8 	addiu	a2,v0,9928
80013b88:	3c028002 	lui	v0,0x8002
80013b8c:	244729a0 	addiu	a3,v0,10656
80013b90:	0c004544 	jal	80011510 <__panic>
80013b94:	00000000 	nop
80013b98:	24040001 	li	a0,1
80013b9c:	0c005462 	jal	80015188 <alloc_pages>
80013ba0:	00000000 	nop
80013ba4:	1040000a 	beqz	v0,80013bd0 <default_check+0x44c>
80013ba8:	00000000 	nop
80013bac:	3c028002 	lui	v0,0x8002
80013bb0:	244426b0 	addiu	a0,v0,9904
80013bb4:	240500fc 	li	a1,252
80013bb8:	3c028002 	lui	v0,0x8002
80013bbc:	244626c8 	addiu	a2,v0,9928
80013bc0:	3c028002 	lui	v0,0x8002
80013bc4:	244728a4 	addiu	a3,v0,10404
80013bc8:	0c004544 	jal	80011510 <__panic>
80013bcc:	00000000 	nop
80013bd0:	8fc20028 	lw	v0,40(s8)
80013bd4:	24430040 	addiu	v1,v0,64
80013bd8:	8fc20030 	lw	v0,48(s8)
80013bdc:	1062000a 	beq	v1,v0,80013c08 <default_check+0x484>
80013be0:	00000000 	nop
80013be4:	3c028002 	lui	v0,0x8002
80013be8:	244426b0 	addiu	a0,v0,9904
80013bec:	240500fd 	li	a1,253
80013bf0:	3c028002 	lui	v0,0x8002
80013bf4:	244626c8 	addiu	a2,v0,9928
80013bf8:	3c028002 	lui	v0,0x8002
80013bfc:	244729c0 	addiu	a3,v0,10688
80013c00:	0c004544 	jal	80011510 <__panic>
80013c04:	00000000 	nop
80013c08:	8fc20028 	lw	v0,40(s8)
80013c0c:	24420020 	addiu	v0,v0,32
80013c10:	afc20034 	sw	v0,52(s8)
80013c14:	8fc40028 	lw	a0,40(s8)
80013c18:	24050001 	li	a1,1
80013c1c:	0c005492 	jal	80015248 <free_pages>
80013c20:	00000000 	nop
80013c24:	8fc40030 	lw	a0,48(s8)
80013c28:	24050003 	li	a1,3
80013c2c:	0c005492 	jal	80015248 <free_pages>
80013c30:	00000000 	nop
80013c34:	8fc20028 	lw	v0,40(s8)
80013c38:	24420004 	addiu	v0,v0,4
80013c3c:	24030001 	li	v1,1
80013c40:	afc30078 	sw	v1,120(s8)
80013c44:	afc2007c 	sw	v0,124(s8)
80013c48:	0c004914 	jal	80012450 <__intr_save>
80013c4c:	00000000 	nop
80013c50:	afc20080 	sw	v0,128(s8)
80013c54:	8fc2007c 	lw	v0,124(s8)
80013c58:	8c430000 	lw	v1,0(v0)
80013c5c:	24040001 	li	a0,1
80013c60:	8fc20078 	lw	v0,120(s8)
80013c64:	00441004 	sllv	v0,a0,v0
80013c68:	00621024 	and	v0,v1,v0
80013c6c:	afc20084 	sw	v0,132(s8)
80013c70:	8fc40080 	lw	a0,128(s8)
80013c74:	0c00492a 	jal	800124a8 <__intr_restore>
80013c78:	00000000 	nop
80013c7c:	8fc20084 	lw	v0,132(s8)
80013c80:	0002102b 	sltu	v0,zero,v0
80013c84:	304200ff 	andi	v0,v0,0xff
80013c88:	10400006 	beqz	v0,80013ca4 <default_check+0x520>
80013c8c:	00000000 	nop
80013c90:	8fc20028 	lw	v0,40(s8)
80013c94:	8c430008 	lw	v1,8(v0)
80013c98:	24020001 	li	v0,1
80013c9c:	1062000a 	beq	v1,v0,80013cc8 <default_check+0x544>
80013ca0:	00000000 	nop
80013ca4:	3c028002 	lui	v0,0x8002
80013ca8:	244426b0 	addiu	a0,v0,9904
80013cac:	24050102 	li	a1,258
80013cb0:	3c028002 	lui	v0,0x8002
80013cb4:	244626c8 	addiu	a2,v0,9928
80013cb8:	3c028002 	lui	v0,0x8002
80013cbc:	244729d0 	addiu	a3,v0,10704
80013cc0:	0c004544 	jal	80011510 <__panic>
80013cc4:	00000000 	nop
80013cc8:	8fc20030 	lw	v0,48(s8)
80013ccc:	24420004 	addiu	v0,v0,4
80013cd0:	24030001 	li	v1,1
80013cd4:	afc30088 	sw	v1,136(s8)
80013cd8:	afc2008c 	sw	v0,140(s8)
80013cdc:	0c004914 	jal	80012450 <__intr_save>
80013ce0:	00000000 	nop
80013ce4:	afc20090 	sw	v0,144(s8)
80013ce8:	8fc2008c 	lw	v0,140(s8)
80013cec:	8c430000 	lw	v1,0(v0)
80013cf0:	24040001 	li	a0,1
80013cf4:	8fc20088 	lw	v0,136(s8)
80013cf8:	00441004 	sllv	v0,a0,v0
80013cfc:	00621024 	and	v0,v1,v0
80013d00:	afc20094 	sw	v0,148(s8)
80013d04:	8fc40090 	lw	a0,144(s8)
80013d08:	0c00492a 	jal	800124a8 <__intr_restore>
80013d0c:	00000000 	nop
80013d10:	8fc20094 	lw	v0,148(s8)
80013d14:	0002102b 	sltu	v0,zero,v0
80013d18:	304200ff 	andi	v0,v0,0xff
80013d1c:	10400006 	beqz	v0,80013d38 <default_check+0x5b4>
80013d20:	00000000 	nop
80013d24:	8fc20030 	lw	v0,48(s8)
80013d28:	8c430008 	lw	v1,8(v0)
80013d2c:	24020003 	li	v0,3
80013d30:	1062000a 	beq	v1,v0,80013d5c <default_check+0x5d8>
80013d34:	00000000 	nop
80013d38:	3c028002 	lui	v0,0x8002
80013d3c:	244426b0 	addiu	a0,v0,9904
80013d40:	24050103 	li	a1,259
80013d44:	3c028002 	lui	v0,0x8002
80013d48:	244626c8 	addiu	a2,v0,9928
80013d4c:	3c028002 	lui	v0,0x8002
80013d50:	244729f8 	addiu	a3,v0,10744
80013d54:	0c004544 	jal	80011510 <__panic>
80013d58:	00000000 	nop
80013d5c:	24040001 	li	a0,1
80013d60:	0c005462 	jal	80015188 <alloc_pages>
80013d64:	00000000 	nop
80013d68:	afc20028 	sw	v0,40(s8)
80013d6c:	8fc20034 	lw	v0,52(s8)
80013d70:	2442ffe0 	addiu	v0,v0,-32
80013d74:	8fc30028 	lw	v1,40(s8)
80013d78:	1062000a 	beq	v1,v0,80013da4 <default_check+0x620>
80013d7c:	00000000 	nop
80013d80:	3c028002 	lui	v0,0x8002
80013d84:	244426b0 	addiu	a0,v0,9904
80013d88:	24050105 	li	a1,261
80013d8c:	3c028002 	lui	v0,0x8002
80013d90:	244626c8 	addiu	a2,v0,9928
80013d94:	3c028002 	lui	v0,0x8002
80013d98:	24472a20 	addiu	a3,v0,10784
80013d9c:	0c004544 	jal	80011510 <__panic>
80013da0:	00000000 	nop
80013da4:	8fc40028 	lw	a0,40(s8)
80013da8:	24050001 	li	a1,1
80013dac:	0c005492 	jal	80015248 <free_pages>
80013db0:	00000000 	nop
80013db4:	24040002 	li	a0,2
80013db8:	0c005462 	jal	80015188 <alloc_pages>
80013dbc:	00000000 	nop
80013dc0:	afc20028 	sw	v0,40(s8)
80013dc4:	8fc20034 	lw	v0,52(s8)
80013dc8:	24420020 	addiu	v0,v0,32
80013dcc:	8fc30028 	lw	v1,40(s8)
80013dd0:	1062000a 	beq	v1,v0,80013dfc <default_check+0x678>
80013dd4:	00000000 	nop
80013dd8:	3c028002 	lui	v0,0x8002
80013ddc:	244426b0 	addiu	a0,v0,9904
80013de0:	24050107 	li	a1,263
80013de4:	3c028002 	lui	v0,0x8002
80013de8:	244626c8 	addiu	a2,v0,9928
80013dec:	3c028002 	lui	v0,0x8002
80013df0:	24472a40 	addiu	a3,v0,10816
80013df4:	0c004544 	jal	80011510 <__panic>
80013df8:	00000000 	nop
80013dfc:	8fc40028 	lw	a0,40(s8)
80013e00:	24050002 	li	a1,2
80013e04:	0c005492 	jal	80015248 <free_pages>
80013e08:	00000000 	nop
80013e0c:	8fc40034 	lw	a0,52(s8)
80013e10:	24050001 	li	a1,1
80013e14:	0c005492 	jal	80015248 <free_pages>
80013e18:	00000000 	nop
80013e1c:	24040005 	li	a0,5
80013e20:	0c005462 	jal	80015188 <alloc_pages>
80013e24:	00000000 	nop
80013e28:	afc20028 	sw	v0,40(s8)
80013e2c:	8fc20028 	lw	v0,40(s8)
80013e30:	1440000a 	bnez	v0,80013e5c <default_check+0x6d8>
80013e34:	00000000 	nop
80013e38:	3c028002 	lui	v0,0x8002
80013e3c:	244426b0 	addiu	a0,v0,9904
80013e40:	2405010c 	li	a1,268
80013e44:	3c028002 	lui	v0,0x8002
80013e48:	244626c8 	addiu	a2,v0,9928
80013e4c:	3c028002 	lui	v0,0x8002
80013e50:	24472a60 	addiu	a3,v0,10848
80013e54:	0c004544 	jal	80011510 <__panic>
80013e58:	00000000 	nop
80013e5c:	24040001 	li	a0,1
80013e60:	0c005462 	jal	80015188 <alloc_pages>
80013e64:	00000000 	nop
80013e68:	1040000a 	beqz	v0,80013e94 <default_check+0x710>
80013e6c:	00000000 	nop
80013e70:	3c028002 	lui	v0,0x8002
80013e74:	244426b0 	addiu	a0,v0,9904
80013e78:	2405010d 	li	a1,269
80013e7c:	3c028002 	lui	v0,0x8002
80013e80:	244626c8 	addiu	a2,v0,9928
80013e84:	3c028002 	lui	v0,0x8002
80013e88:	244728a4 	addiu	a3,v0,10404
80013e8c:	0c004544 	jal	80011510 <__panic>
80013e90:	00000000 	nop
80013e94:	3c028036 	lui	v0,0x8036
80013e98:	244220f0 	addiu	v0,v0,8432
80013e9c:	8c420008 	lw	v0,8(v0)
80013ea0:	1040000a 	beqz	v0,80013ecc <default_check+0x748>
80013ea4:	00000000 	nop
80013ea8:	3c028002 	lui	v0,0x8002
80013eac:	244426b0 	addiu	a0,v0,9904
80013eb0:	2405010f 	li	a1,271
80013eb4:	3c028002 	lui	v0,0x8002
80013eb8:	244626c8 	addiu	a2,v0,9928
80013ebc:	3c028002 	lui	v0,0x8002
80013ec0:	24472900 	addiu	a3,v0,10496
80013ec4:	0c004544 	jal	80011510 <__panic>
80013ec8:	00000000 	nop
80013ecc:	3c028036 	lui	v0,0x8036
80013ed0:	244220f0 	addiu	v0,v0,8432
80013ed4:	8fc3002c 	lw	v1,44(s8)
80013ed8:	ac430008 	sw	v1,8(v0)
80013edc:	3c028036 	lui	v0,0x8036
80013ee0:	8fc4009c 	lw	a0,156(s8)
80013ee4:	8fc300a0 	lw	v1,160(s8)
80013ee8:	ac4420f0 	sw	a0,8432(v0)
80013eec:	244220f0 	addiu	v0,v0,8432
80013ef0:	ac430004 	sw	v1,4(v0)
80013ef4:	8fc40028 	lw	a0,40(s8)
80013ef8:	24050005 	li	a1,5
80013efc:	0c005492 	jal	80015248 <free_pages>
80013f00:	00000000 	nop
80013f04:	3c028036 	lui	v0,0x8036
80013f08:	244220f0 	addiu	v0,v0,8432
80013f0c:	afc20020 	sw	v0,32(s8)
80013f10:	08004fd1 	j	80013f44 <default_check+0x7c0>
80013f14:	00000000 	nop
80013f18:	8fc20020 	lw	v0,32(s8)
80013f1c:	2442fff4 	addiu	v0,v0,-12
80013f20:	afc20038 	sw	v0,56(s8)
80013f24:	8fc20018 	lw	v0,24(s8)
80013f28:	2442ffff 	addiu	v0,v0,-1
80013f2c:	afc20018 	sw	v0,24(s8)
80013f30:	8fc3001c 	lw	v1,28(s8)
80013f34:	8fc20038 	lw	v0,56(s8)
80013f38:	8c420008 	lw	v0,8(v0)
80013f3c:	00621023 	subu	v0,v1,v0
80013f40:	afc2001c 	sw	v0,28(s8)
80013f44:	8fc20020 	lw	v0,32(s8)
80013f48:	afc20098 	sw	v0,152(s8)
80013f4c:	8fc20098 	lw	v0,152(s8)
80013f50:	8c420004 	lw	v0,4(v0)
80013f54:	afc20020 	sw	v0,32(s8)
80013f58:	8fc30020 	lw	v1,32(s8)
80013f5c:	3c028036 	lui	v0,0x8036
80013f60:	244220f0 	addiu	v0,v0,8432
80013f64:	1462ffec 	bne	v1,v0,80013f18 <default_check+0x794>
80013f68:	00000000 	nop
80013f6c:	8fc20018 	lw	v0,24(s8)
80013f70:	1040000a 	beqz	v0,80013f9c <default_check+0x818>
80013f74:	00000000 	nop
80013f78:	3c028002 	lui	v0,0x8002
80013f7c:	244426b0 	addiu	a0,v0,9904
80013f80:	2405011a 	li	a1,282
80013f84:	3c028002 	lui	v0,0x8002
80013f88:	244626c8 	addiu	a2,v0,9928
80013f8c:	3c028002 	lui	v0,0x8002
80013f90:	24472a80 	addiu	a3,v0,10880
80013f94:	0c004544 	jal	80011510 <__panic>
80013f98:	00000000 	nop
80013f9c:	8fc2001c 	lw	v0,28(s8)
80013fa0:	1040000a 	beqz	v0,80013fcc <default_check+0x848>
80013fa4:	00000000 	nop
80013fa8:	3c028002 	lui	v0,0x8002
80013fac:	244426b0 	addiu	a0,v0,9904
80013fb0:	2405011b 	li	a1,283
80013fb4:	3c028002 	lui	v0,0x8002
80013fb8:	244626c8 	addiu	a2,v0,9928
80013fbc:	3c028002 	lui	v0,0x8002
80013fc0:	24472a8c 	addiu	a3,v0,10892
80013fc4:	0c004544 	jal	80011510 <__panic>
80013fc8:	00000000 	nop
80013fcc:	03c0e821 	move	sp,s8
80013fd0:	8fbf00b4 	lw	ra,180(sp)
80013fd4:	8fbe00b0 	lw	s8,176(sp)
80013fd8:	8fb000ac 	lw	s0,172(sp)
80013fdc:	27bd00b8 	addiu	sp,sp,184
80013fe0:	03e00008 	jr	ra
80013fe4:	00000000 	nop
	...

80013ff0 <__intr_save>:
80013ff0:	27bdffd8 	addiu	sp,sp,-40
80013ff4:	afbf0024 	sw	ra,36(sp)
80013ff8:	afbe0020 	sw	s8,32(sp)
80013ffc:	03a0f021 	move	s8,sp
80014000:	40026000 	mfc0	v0,c0_status
80014004:	afc20018 	sw	v0,24(s8)
80014008:	8fc20018 	lw	v0,24(s8)
8001400c:	30420001 	andi	v0,v0,0x1
80014010:	10400006 	beqz	v0,8001402c <__intr_save+0x3c>
80014014:	00000000 	nop
80014018:	0c0046d7 	jal	80011b5c <intr_disable>
8001401c:	00000000 	nop
80014020:	24020001 	li	v0,1
80014024:	0800500c 	j	80014030 <__intr_save+0x40>
80014028:	00000000 	nop
8001402c:	00001021 	move	v0,zero
80014030:	03c0e821 	move	sp,s8
80014034:	8fbf0024 	lw	ra,36(sp)
80014038:	8fbe0020 	lw	s8,32(sp)
8001403c:	27bd0028 	addiu	sp,sp,40
80014040:	03e00008 	jr	ra
80014044:	00000000 	nop

80014048 <__intr_restore>:
80014048:	27bdffe0 	addiu	sp,sp,-32
8001404c:	afbf001c 	sw	ra,28(sp)
80014050:	afbe0018 	sw	s8,24(sp)
80014054:	03a0f021 	move	s8,sp
80014058:	afc40020 	sw	a0,32(s8)
8001405c:	8fc20020 	lw	v0,32(s8)
80014060:	10400003 	beqz	v0,80014070 <__intr_restore+0x28>
80014064:	00000000 	nop
80014068:	0c0046c8 	jal	80011b20 <intr_enable>
8001406c:	00000000 	nop
80014070:	03c0e821 	move	sp,s8
80014074:	8fbf001c 	lw	ra,28(sp)
80014078:	8fbe0018 	lw	s8,24(sp)
8001407c:	27bd0020 	addiu	sp,sp,32
80014080:	03e00008 	jr	ra
80014084:	00000000 	nop

80014088 <page2ppn>:
80014088:	27bdfff8 	addiu	sp,sp,-8
8001408c:	afbe0004 	sw	s8,4(sp)
80014090:	03a0f021 	move	s8,sp
80014094:	afc40008 	sw	a0,8(s8)
80014098:	8fc30008 	lw	v1,8(s8)
8001409c:	3c028036 	lui	v0,0x8036
800140a0:	8c4222a8 	lw	v0,8872(v0)
800140a4:	00621023 	subu	v0,v1,v0
800140a8:	00021143 	sra	v0,v0,0x5
800140ac:	03c0e821 	move	sp,s8
800140b0:	8fbe0004 	lw	s8,4(sp)
800140b4:	27bd0008 	addiu	sp,sp,8
800140b8:	03e00008 	jr	ra
800140bc:	00000000 	nop

800140c0 <page2pa>:
800140c0:	27bdffe0 	addiu	sp,sp,-32
800140c4:	afbf001c 	sw	ra,28(sp)
800140c8:	afbe0018 	sw	s8,24(sp)
800140cc:	03a0f021 	move	s8,sp
800140d0:	afc40020 	sw	a0,32(s8)
800140d4:	8fc40020 	lw	a0,32(s8)
800140d8:	0c005022 	jal	80014088 <page2ppn>
800140dc:	00000000 	nop
800140e0:	00021300 	sll	v0,v0,0xc
800140e4:	03c0e821 	move	sp,s8
800140e8:	8fbf001c 	lw	ra,28(sp)
800140ec:	8fbe0018 	lw	s8,24(sp)
800140f0:	27bd0020 	addiu	sp,sp,32
800140f4:	03e00008 	jr	ra
800140f8:	00000000 	nop

800140fc <pa2page>:
800140fc:	27bdffe0 	addiu	sp,sp,-32
80014100:	afbf001c 	sw	ra,28(sp)
80014104:	afbe0018 	sw	s8,24(sp)
80014108:	03a0f021 	move	s8,sp
8001410c:	afc40020 	sw	a0,32(s8)
80014110:	8fc20020 	lw	v0,32(s8)
80014114:	00021b02 	srl	v1,v0,0xc
80014118:	3c028036 	lui	v0,0x8036
8001411c:	8c420030 	lw	v0,48(v0)
80014120:	0062102b 	sltu	v0,v1,v0
80014124:	14400008 	bnez	v0,80014148 <pa2page+0x4c>
80014128:	00000000 	nop
8001412c:	3c028002 	lui	v0,0x8002
80014130:	24442ad0 	addiu	a0,v0,10960
80014134:	2405005c 	li	a1,92
80014138:	3c028002 	lui	v0,0x8002
8001413c:	24462ae0 	addiu	a2,v0,10976
80014140:	0c004544 	jal	80011510 <__panic>
80014144:	00000000 	nop
80014148:	3c028036 	lui	v0,0x8036
8001414c:	8c4322a8 	lw	v1,8872(v0)
80014150:	8fc20020 	lw	v0,32(s8)
80014154:	00021302 	srl	v0,v0,0xc
80014158:	00021140 	sll	v0,v0,0x5
8001415c:	00621021 	addu	v0,v1,v0
80014160:	03c0e821 	move	sp,s8
80014164:	8fbf001c 	lw	ra,28(sp)
80014168:	8fbe0018 	lw	s8,24(sp)
8001416c:	27bd0020 	addiu	sp,sp,32
80014170:	03e00008 	jr	ra
80014174:	00000000 	nop

80014178 <page2kva>:
80014178:	27bdffd8 	addiu	sp,sp,-40
8001417c:	afbf0024 	sw	ra,36(sp)
80014180:	afbe0020 	sw	s8,32(sp)
80014184:	03a0f021 	move	s8,sp
80014188:	afc40028 	sw	a0,40(s8)
8001418c:	8fc40028 	lw	a0,40(s8)
80014190:	0c005030 	jal	800140c0 <page2pa>
80014194:	00000000 	nop
80014198:	afc20018 	sw	v0,24(s8)
8001419c:	8fc20018 	lw	v0,24(s8)
800141a0:	00021302 	srl	v0,v0,0xc
800141a4:	afc2001c 	sw	v0,28(s8)
800141a8:	3c028036 	lui	v0,0x8036
800141ac:	8c420030 	lw	v0,48(v0)
800141b0:	8fc3001c 	lw	v1,28(s8)
800141b4:	0062102b 	sltu	v0,v1,v0
800141b8:	14400009 	bnez	v0,800141e0 <page2kva+0x68>
800141bc:	00000000 	nop
800141c0:	3c028002 	lui	v0,0x8002
800141c4:	24442ad0 	addiu	a0,v0,10960
800141c8:	24050063 	li	a1,99
800141cc:	3c028002 	lui	v0,0x8002
800141d0:	24462b00 	addiu	a2,v0,11008
800141d4:	8fc70018 	lw	a3,24(s8)
800141d8:	0c004544 	jal	80011510 <__panic>
800141dc:	00000000 	nop
800141e0:	8fc30018 	lw	v1,24(s8)
800141e4:	3c028000 	lui	v0,0x8000
800141e8:	00621021 	addu	v0,v1,v0
800141ec:	03c0e821 	move	sp,s8
800141f0:	8fbf0024 	lw	ra,36(sp)
800141f4:	8fbe0020 	lw	s8,32(sp)
800141f8:	27bd0028 	addiu	sp,sp,40
800141fc:	03e00008 	jr	ra
80014200:	00000000 	nop

80014204 <kva2page>:
80014204:	27bdffd8 	addiu	sp,sp,-40
80014208:	afbf0024 	sw	ra,36(sp)
8001420c:	afbe0020 	sw	s8,32(sp)
80014210:	03a0f021 	move	s8,sp
80014214:	afc40028 	sw	a0,40(s8)
80014218:	8fc20028 	lw	v0,40(s8)
8001421c:	afc20018 	sw	v0,24(s8)
80014220:	8fc20018 	lw	v0,24(s8)
80014224:	04400009 	bltz	v0,8001424c <kva2page+0x48>
80014228:	00000000 	nop
8001422c:	3c028002 	lui	v0,0x8002
80014230:	24442ad0 	addiu	a0,v0,10960
80014234:	24050068 	li	a1,104
80014238:	3c028002 	lui	v0,0x8002
8001423c:	24462b24 	addiu	a2,v0,11044
80014240:	8fc70018 	lw	a3,24(s8)
80014244:	0c004544 	jal	80011510 <__panic>
80014248:	00000000 	nop
8001424c:	8fc30018 	lw	v1,24(s8)
80014250:	3c028000 	lui	v0,0x8000
80014254:	00621021 	addu	v0,v1,v0
80014258:	00402021 	move	a0,v0
8001425c:	0c00503f 	jal	800140fc <pa2page>
80014260:	00000000 	nop
80014264:	03c0e821 	move	sp,s8
80014268:	8fbf0024 	lw	ra,36(sp)
8001426c:	8fbe0020 	lw	s8,32(sp)
80014270:	27bd0028 	addiu	sp,sp,40
80014274:	03e00008 	jr	ra
80014278:	00000000 	nop

8001427c <__slob_get_free_pages>:
8001427c:	27bdffd8 	addiu	sp,sp,-40
80014280:	afbf0024 	sw	ra,36(sp)
80014284:	afbe0020 	sw	s8,32(sp)
80014288:	03a0f021 	move	s8,sp
8001428c:	afc40028 	sw	a0,40(s8)
80014290:	afc5002c 	sw	a1,44(s8)
80014294:	24030001 	li	v1,1
80014298:	8fc2002c 	lw	v0,44(s8)
8001429c:	00431004 	sllv	v0,v1,v0
800142a0:	00402021 	move	a0,v0
800142a4:	0c005462 	jal	80015188 <alloc_pages>
800142a8:	00000000 	nop
800142ac:	afc20018 	sw	v0,24(s8)
800142b0:	8fc20018 	lw	v0,24(s8)
800142b4:	14400004 	bnez	v0,800142c8 <__slob_get_free_pages+0x4c>
800142b8:	00000000 	nop
800142bc:	00001021 	move	v0,zero
800142c0:	080050b5 	j	800142d4 <__slob_get_free_pages+0x58>
800142c4:	00000000 	nop
800142c8:	8fc40018 	lw	a0,24(s8)
800142cc:	0c00505e 	jal	80014178 <page2kva>
800142d0:	00000000 	nop
800142d4:	03c0e821 	move	sp,s8
800142d8:	8fbf0024 	lw	ra,36(sp)
800142dc:	8fbe0020 	lw	s8,32(sp)
800142e0:	27bd0028 	addiu	sp,sp,40
800142e4:	03e00008 	jr	ra
800142e8:	00000000 	nop

800142ec <__slob_free_pages>:
800142ec:	27bdffe0 	addiu	sp,sp,-32
800142f0:	afbf001c 	sw	ra,28(sp)
800142f4:	afbe0018 	sw	s8,24(sp)
800142f8:	03a0f021 	move	s8,sp
800142fc:	afc40020 	sw	a0,32(s8)
80014300:	afc50024 	sw	a1,36(s8)
80014304:	8fc20020 	lw	v0,32(s8)
80014308:	00402021 	move	a0,v0
8001430c:	0c005081 	jal	80014204 <kva2page>
80014310:	00000000 	nop
80014314:	00401821 	move	v1,v0
80014318:	24040001 	li	a0,1
8001431c:	8fc20024 	lw	v0,36(s8)
80014320:	00441004 	sllv	v0,a0,v0
80014324:	00602021 	move	a0,v1
80014328:	00402821 	move	a1,v0
8001432c:	0c005492 	jal	80015248 <free_pages>
80014330:	00000000 	nop
80014334:	03c0e821 	move	sp,s8
80014338:	8fbf001c 	lw	ra,28(sp)
8001433c:	8fbe0018 	lw	s8,24(sp)
80014340:	27bd0020 	addiu	sp,sp,32
80014344:	03e00008 	jr	ra
80014348:	00000000 	nop

8001434c <slob_alloc>:
8001434c:	27bdffc8 	addiu	sp,sp,-56
80014350:	afbf0034 	sw	ra,52(sp)
80014354:	afbe0030 	sw	s8,48(sp)
80014358:	03a0f021 	move	s8,sp
8001435c:	afc40038 	sw	a0,56(s8)
80014360:	afc5003c 	sw	a1,60(s8)
80014364:	afc60040 	sw	a2,64(s8)
80014368:	8fc20038 	lw	v0,56(s8)
8001436c:	24420008 	addiu	v0,v0,8
80014370:	2c421000 	sltiu	v0,v0,4096
80014374:	1440000a 	bnez	v0,800143a0 <slob_alloc+0x54>
80014378:	00000000 	nop
8001437c:	3c028002 	lui	v0,0x8002
80014380:	24442b48 	addiu	a0,v0,11080
80014384:	24050064 	li	a1,100
80014388:	3c028002 	lui	v0,0x8002
8001438c:	24462b5c 	addiu	a2,v0,11100
80014390:	3c028002 	lui	v0,0x8002
80014394:	24472b74 	addiu	a3,v0,11124
80014398:	0c004544 	jal	80011510 <__panic>
8001439c:	00000000 	nop
800143a0:	afc00020 	sw	zero,32(s8)
800143a4:	afc00024 	sw	zero,36(s8)
800143a8:	8fc20038 	lw	v0,56(s8)
800143ac:	24420007 	addiu	v0,v0,7
800143b0:	000210c2 	srl	v0,v0,0x3
800143b4:	afc2002c 	sw	v0,44(s8)
800143b8:	0c004ffc 	jal	80013ff0 <__intr_save>
800143bc:	00000000 	nop
800143c0:	afc20028 	sw	v0,40(s8)
800143c4:	3c028036 	lui	v0,0x8036
800143c8:	8c42f548 	lw	v0,-2744(v0)
800143cc:	afc20018 	sw	v0,24(s8)
800143d0:	8fc20018 	lw	v0,24(s8)
800143d4:	8c420004 	lw	v0,4(v0)
800143d8:	afc2001c 	sw	v0,28(s8)
800143dc:	8fc20040 	lw	v0,64(s8)
800143e0:	1040000e 	beqz	v0,8001441c <slob_alloc+0xd0>
800143e4:	00000000 	nop
800143e8:	8fc3001c 	lw	v1,28(s8)
800143ec:	8fc20040 	lw	v0,64(s8)
800143f0:	00621021 	addu	v0,v1,v0
800143f4:	2443ffff 	addiu	v1,v0,-1
800143f8:	8fc20040 	lw	v0,64(s8)
800143fc:	00021023 	negu	v0,v0
80014400:	00621024 	and	v0,v1,v0
80014404:	afc20020 	sw	v0,32(s8)
80014408:	8fc30020 	lw	v1,32(s8)
8001440c:	8fc2001c 	lw	v0,28(s8)
80014410:	00621023 	subu	v0,v1,v0
80014414:	000210c3 	sra	v0,v0,0x3
80014418:	afc20024 	sw	v0,36(s8)
8001441c:	8fc2001c 	lw	v0,28(s8)
80014420:	8c430000 	lw	v1,0(v0)
80014424:	8fc4002c 	lw	a0,44(s8)
80014428:	8fc20024 	lw	v0,36(s8)
8001442c:	00821021 	addu	v0,a0,v0
80014430:	0062102a 	slt	v0,v1,v0
80014434:	14400042 	bnez	v0,80014540 <slob_alloc+0x1f4>
80014438:	00000000 	nop
8001443c:	8fc20024 	lw	v0,36(s8)
80014440:	10400015 	beqz	v0,80014498 <slob_alloc+0x14c>
80014444:	00000000 	nop
80014448:	8fc2001c 	lw	v0,28(s8)
8001444c:	8c430000 	lw	v1,0(v0)
80014450:	8fc20024 	lw	v0,36(s8)
80014454:	00621823 	subu	v1,v1,v0
80014458:	8fc20020 	lw	v0,32(s8)
8001445c:	ac430000 	sw	v1,0(v0)
80014460:	8fc2001c 	lw	v0,28(s8)
80014464:	8c430004 	lw	v1,4(v0)
80014468:	8fc20020 	lw	v0,32(s8)
8001446c:	ac430004 	sw	v1,4(v0)
80014470:	8fc2001c 	lw	v0,28(s8)
80014474:	8fc30020 	lw	v1,32(s8)
80014478:	ac430004 	sw	v1,4(v0)
8001447c:	8fc2001c 	lw	v0,28(s8)
80014480:	8fc30024 	lw	v1,36(s8)
80014484:	ac430000 	sw	v1,0(v0)
80014488:	8fc2001c 	lw	v0,28(s8)
8001448c:	afc20018 	sw	v0,24(s8)
80014490:	8fc20020 	lw	v0,32(s8)
80014494:	afc2001c 	sw	v0,28(s8)
80014498:	8fc2001c 	lw	v0,28(s8)
8001449c:	8c430000 	lw	v1,0(v0)
800144a0:	8fc2002c 	lw	v0,44(s8)
800144a4:	14620007 	bne	v1,v0,800144c4 <slob_alloc+0x178>
800144a8:	00000000 	nop
800144ac:	8fc2001c 	lw	v0,28(s8)
800144b0:	8c430004 	lw	v1,4(v0)
800144b4:	8fc20018 	lw	v0,24(s8)
800144b8:	ac430004 	sw	v1,4(v0)
800144bc:	08005146 	j	80014518 <slob_alloc+0x1cc>
800144c0:	00000000 	nop
800144c4:	8fc2002c 	lw	v0,44(s8)
800144c8:	000210c0 	sll	v0,v0,0x3
800144cc:	8fc3001c 	lw	v1,28(s8)
800144d0:	00621821 	addu	v1,v1,v0
800144d4:	8fc20018 	lw	v0,24(s8)
800144d8:	ac430004 	sw	v1,4(v0)
800144dc:	8fc20018 	lw	v0,24(s8)
800144e0:	8c420004 	lw	v0,4(v0)
800144e4:	8fc3001c 	lw	v1,28(s8)
800144e8:	8c640000 	lw	a0,0(v1)
800144ec:	8fc3002c 	lw	v1,44(s8)
800144f0:	00831823 	subu	v1,a0,v1
800144f4:	ac430000 	sw	v1,0(v0)
800144f8:	8fc20018 	lw	v0,24(s8)
800144fc:	8c420004 	lw	v0,4(v0)
80014500:	8fc3001c 	lw	v1,28(s8)
80014504:	8c630004 	lw	v1,4(v1)
80014508:	ac430004 	sw	v1,4(v0)
8001450c:	8fc2001c 	lw	v0,28(s8)
80014510:	8fc3002c 	lw	v1,44(s8)
80014514:	ac430000 	sw	v1,0(v0)
80014518:	3c028036 	lui	v0,0x8036
8001451c:	8fc30018 	lw	v1,24(s8)
80014520:	ac43f548 	sw	v1,-2744(v0)
80014524:	8fc20028 	lw	v0,40(s8)
80014528:	00402021 	move	a0,v0
8001452c:	0c005012 	jal	80014048 <__intr_restore>
80014530:	00000000 	nop
80014534:	8fc2001c 	lw	v0,28(s8)
80014538:	0800517c 	j	800145f0 <slob_alloc+0x2a4>
8001453c:	00000000 	nop
80014540:	3c028036 	lui	v0,0x8036
80014544:	8c42f548 	lw	v0,-2744(v0)
80014548:	8fc3001c 	lw	v1,28(s8)
8001454c:	14620021 	bne	v1,v0,800145d4 <slob_alloc+0x288>
80014550:	00000000 	nop
80014554:	8fc20028 	lw	v0,40(s8)
80014558:	00402021 	move	a0,v0
8001455c:	0c005012 	jal	80014048 <__intr_restore>
80014560:	00000000 	nop
80014564:	8fc30038 	lw	v1,56(s8)
80014568:	24021000 	li	v0,4096
8001456c:	14620004 	bne	v1,v0,80014580 <slob_alloc+0x234>
80014570:	00000000 	nop
80014574:	00001021 	move	v0,zero
80014578:	0800517c 	j	800145f0 <slob_alloc+0x2a4>
8001457c:	00000000 	nop
80014580:	8fc4003c 	lw	a0,60(s8)
80014584:	00002821 	move	a1,zero
80014588:	0c00509f 	jal	8001427c <__slob_get_free_pages>
8001458c:	00000000 	nop
80014590:	afc2001c 	sw	v0,28(s8)
80014594:	8fc2001c 	lw	v0,28(s8)
80014598:	14400004 	bnez	v0,800145ac <slob_alloc+0x260>
8001459c:	00000000 	nop
800145a0:	00001021 	move	v0,zero
800145a4:	0800517c 	j	800145f0 <slob_alloc+0x2a4>
800145a8:	00000000 	nop
800145ac:	8fc4001c 	lw	a0,28(s8)
800145b0:	24051000 	li	a1,4096
800145b4:	0c005182 	jal	80014608 <slob_free>
800145b8:	00000000 	nop
800145bc:	0c004ffc 	jal	80013ff0 <__intr_save>
800145c0:	00000000 	nop
800145c4:	afc20028 	sw	v0,40(s8)
800145c8:	3c028036 	lui	v0,0x8036
800145cc:	8c42f548 	lw	v0,-2744(v0)
800145d0:	afc2001c 	sw	v0,28(s8)
800145d4:	8fc2001c 	lw	v0,28(s8)
800145d8:	afc20018 	sw	v0,24(s8)
800145dc:	8fc2001c 	lw	v0,28(s8)
800145e0:	8c420004 	lw	v0,4(v0)
800145e4:	afc2001c 	sw	v0,28(s8)
800145e8:	080050f7 	j	800143dc <slob_alloc+0x90>
800145ec:	00000000 	nop
800145f0:	03c0e821 	move	sp,s8
800145f4:	8fbf0034 	lw	ra,52(sp)
800145f8:	8fbe0030 	lw	s8,48(sp)
800145fc:	27bd0038 	addiu	sp,sp,56
80014600:	03e00008 	jr	ra
80014604:	00000000 	nop

80014608 <slob_free>:
80014608:	27bdffd0 	addiu	sp,sp,-48
8001460c:	afbf002c 	sw	ra,44(sp)
80014610:	afbe0028 	sw	s8,40(sp)
80014614:	03a0f021 	move	s8,sp
80014618:	afc40030 	sw	a0,48(s8)
8001461c:	afc50034 	sw	a1,52(s8)
80014620:	8fc20030 	lw	v0,48(s8)
80014624:	afc2001c 	sw	v0,28(s8)
80014628:	8fc20030 	lw	v0,48(s8)
8001462c:	14400003 	bnez	v0,8001463c <slob_free+0x34>
80014630:	00000000 	nop
80014634:	080051fa 	j	800147e8 <slob_free+0x1e0>
80014638:	00000000 	nop
8001463c:	8fc20034 	lw	v0,52(s8)
80014640:	10400007 	beqz	v0,80014660 <slob_free+0x58>
80014644:	00000000 	nop
80014648:	8fc20034 	lw	v0,52(s8)
8001464c:	24420007 	addiu	v0,v0,7
80014650:	000210c2 	srl	v0,v0,0x3
80014654:	00401821 	move	v1,v0
80014658:	8fc2001c 	lw	v0,28(s8)
8001465c:	ac430000 	sw	v1,0(v0)
80014660:	0c004ffc 	jal	80013ff0 <__intr_save>
80014664:	00000000 	nop
80014668:	afc20020 	sw	v0,32(s8)
8001466c:	3c028036 	lui	v0,0x8036
80014670:	8c42f548 	lw	v0,-2744(v0)
80014674:	afc20018 	sw	v0,24(s8)
80014678:	080051b4 	j	800146d0 <slob_free+0xc8>
8001467c:	00000000 	nop
80014680:	8fc20018 	lw	v0,24(s8)
80014684:	8c430004 	lw	v1,4(v0)
80014688:	8fc20018 	lw	v0,24(s8)
8001468c:	0043102b 	sltu	v0,v0,v1
80014690:	1440000c 	bnez	v0,800146c4 <slob_free+0xbc>
80014694:	00000000 	nop
80014698:	8fc3001c 	lw	v1,28(s8)
8001469c:	8fc20018 	lw	v0,24(s8)
800146a0:	0043102b 	sltu	v0,v0,v1
800146a4:	14400015 	bnez	v0,800146fc <slob_free+0xf4>
800146a8:	00000000 	nop
800146ac:	8fc20018 	lw	v0,24(s8)
800146b0:	8c430004 	lw	v1,4(v0)
800146b4:	8fc2001c 	lw	v0,28(s8)
800146b8:	0043102b 	sltu	v0,v0,v1
800146bc:	1440000f 	bnez	v0,800146fc <slob_free+0xf4>
800146c0:	00000000 	nop
800146c4:	8fc20018 	lw	v0,24(s8)
800146c8:	8c420004 	lw	v0,4(v0)
800146cc:	afc20018 	sw	v0,24(s8)
800146d0:	8fc3001c 	lw	v1,28(s8)
800146d4:	8fc20018 	lw	v0,24(s8)
800146d8:	0043102b 	sltu	v0,v0,v1
800146dc:	1040ffe8 	beqz	v0,80014680 <slob_free+0x78>
800146e0:	00000000 	nop
800146e4:	8fc20018 	lw	v0,24(s8)
800146e8:	8c430004 	lw	v1,4(v0)
800146ec:	8fc2001c 	lw	v0,28(s8)
800146f0:	0043102b 	sltu	v0,v0,v1
800146f4:	1040ffe2 	beqz	v0,80014680 <slob_free+0x78>
800146f8:	00000000 	nop
800146fc:	8fc2001c 	lw	v0,28(s8)
80014700:	8c420000 	lw	v0,0(v0)
80014704:	000210c0 	sll	v0,v0,0x3
80014708:	8fc3001c 	lw	v1,28(s8)
8001470c:	00621821 	addu	v1,v1,v0
80014710:	8fc20018 	lw	v0,24(s8)
80014714:	8c420004 	lw	v0,4(v0)
80014718:	14620010 	bne	v1,v0,8001475c <slob_free+0x154>
8001471c:	00000000 	nop
80014720:	8fc2001c 	lw	v0,28(s8)
80014724:	8c430000 	lw	v1,0(v0)
80014728:	8fc20018 	lw	v0,24(s8)
8001472c:	8c420004 	lw	v0,4(v0)
80014730:	8c420000 	lw	v0,0(v0)
80014734:	00621821 	addu	v1,v1,v0
80014738:	8fc2001c 	lw	v0,28(s8)
8001473c:	ac430000 	sw	v1,0(v0)
80014740:	8fc20018 	lw	v0,24(s8)
80014744:	8c420004 	lw	v0,4(v0)
80014748:	8c430004 	lw	v1,4(v0)
8001474c:	8fc2001c 	lw	v0,28(s8)
80014750:	ac430004 	sw	v1,4(v0)
80014754:	080051db 	j	8001476c <slob_free+0x164>
80014758:	00000000 	nop
8001475c:	8fc20018 	lw	v0,24(s8)
80014760:	8c430004 	lw	v1,4(v0)
80014764:	8fc2001c 	lw	v0,28(s8)
80014768:	ac430004 	sw	v1,4(v0)
8001476c:	8fc20018 	lw	v0,24(s8)
80014770:	8c420000 	lw	v0,0(v0)
80014774:	000210c0 	sll	v0,v0,0x3
80014778:	8fc30018 	lw	v1,24(s8)
8001477c:	00621821 	addu	v1,v1,v0
80014780:	8fc2001c 	lw	v0,28(s8)
80014784:	1462000e 	bne	v1,v0,800147c0 <slob_free+0x1b8>
80014788:	00000000 	nop
8001478c:	8fc20018 	lw	v0,24(s8)
80014790:	8c430000 	lw	v1,0(v0)
80014794:	8fc2001c 	lw	v0,28(s8)
80014798:	8c420000 	lw	v0,0(v0)
8001479c:	00621821 	addu	v1,v1,v0
800147a0:	8fc20018 	lw	v0,24(s8)
800147a4:	ac430000 	sw	v1,0(v0)
800147a8:	8fc2001c 	lw	v0,28(s8)
800147ac:	8c430004 	lw	v1,4(v0)
800147b0:	8fc20018 	lw	v0,24(s8)
800147b4:	ac430004 	sw	v1,4(v0)
800147b8:	080051f3 	j	800147cc <slob_free+0x1c4>
800147bc:	00000000 	nop
800147c0:	8fc20018 	lw	v0,24(s8)
800147c4:	8fc3001c 	lw	v1,28(s8)
800147c8:	ac430004 	sw	v1,4(v0)
800147cc:	3c028036 	lui	v0,0x8036
800147d0:	8fc30018 	lw	v1,24(s8)
800147d4:	ac43f548 	sw	v1,-2744(v0)
800147d8:	8fc20020 	lw	v0,32(s8)
800147dc:	00402021 	move	a0,v0
800147e0:	0c005012 	jal	80014048 <__intr_restore>
800147e4:	00000000 	nop
800147e8:	03c0e821 	move	sp,s8
800147ec:	8fbf002c 	lw	ra,44(sp)
800147f0:	8fbe0028 	lw	s8,40(sp)
800147f4:	27bd0030 	addiu	sp,sp,48
800147f8:	03e00008 	jr	ra
800147fc:	00000000 	nop

80014800 <slob_init>:
80014800:	27bdffe0 	addiu	sp,sp,-32
80014804:	afbf001c 	sw	ra,28(sp)
80014808:	afbe0018 	sw	s8,24(sp)
8001480c:	03a0f021 	move	s8,sp
80014810:	3c028002 	lui	v0,0x8002
80014814:	24442b94 	addiu	a0,v0,11156
80014818:	0c00413e 	jal	800104f8 <cprintf>
8001481c:	00000000 	nop
80014820:	03c0e821 	move	sp,s8
80014824:	8fbf001c 	lw	ra,28(sp)
80014828:	8fbe0018 	lw	s8,24(sp)
8001482c:	27bd0020 	addiu	sp,sp,32
80014830:	03e00008 	jr	ra
80014834:	00000000 	nop

80014838 <kmalloc_init>:
80014838:	27bdffe0 	addiu	sp,sp,-32
8001483c:	afbf001c 	sw	ra,28(sp)
80014840:	afbe0018 	sw	s8,24(sp)
80014844:	03a0f021 	move	s8,sp
80014848:	0c005200 	jal	80014800 <slob_init>
8001484c:	00000000 	nop
80014850:	3c028002 	lui	v0,0x8002
80014854:	24442ba8 	addiu	a0,v0,11176
80014858:	0c00413e 	jal	800104f8 <cprintf>
8001485c:	00000000 	nop
80014860:	03c0e821 	move	sp,s8
80014864:	8fbf001c 	lw	ra,28(sp)
80014868:	8fbe0018 	lw	s8,24(sp)
8001486c:	27bd0020 	addiu	sp,sp,32
80014870:	03e00008 	jr	ra
80014874:	00000000 	nop

80014878 <slob_allocated>:
80014878:	27bdfff8 	addiu	sp,sp,-8
8001487c:	afbe0004 	sw	s8,4(sp)
80014880:	03a0f021 	move	s8,sp
80014884:	00001021 	move	v0,zero
80014888:	03c0e821 	move	sp,s8
8001488c:	8fbe0004 	lw	s8,4(sp)
80014890:	27bd0008 	addiu	sp,sp,8
80014894:	03e00008 	jr	ra
80014898:	00000000 	nop

8001489c <kallocated>:
8001489c:	27bdffe0 	addiu	sp,sp,-32
800148a0:	afbf001c 	sw	ra,28(sp)
800148a4:	afbe0018 	sw	s8,24(sp)
800148a8:	03a0f021 	move	s8,sp
800148ac:	0c00521e 	jal	80014878 <slob_allocated>
800148b0:	00000000 	nop
800148b4:	03c0e821 	move	sp,s8
800148b8:	8fbf001c 	lw	ra,28(sp)
800148bc:	8fbe0018 	lw	s8,24(sp)
800148c0:	27bd0020 	addiu	sp,sp,32
800148c4:	03e00008 	jr	ra
800148c8:	00000000 	nop

800148cc <find_order>:
800148cc:	27bdffe8 	addiu	sp,sp,-24
800148d0:	afbe0014 	sw	s8,20(sp)
800148d4:	03a0f021 	move	s8,sp
800148d8:	afc40018 	sw	a0,24(s8)
800148dc:	afc00008 	sw	zero,8(s8)
800148e0:	08005240 	j	80014900 <find_order+0x34>
800148e4:	00000000 	nop
800148e8:	8fc20008 	lw	v0,8(s8)
800148ec:	24420001 	addiu	v0,v0,1
800148f0:	afc20008 	sw	v0,8(s8)
800148f4:	8fc20018 	lw	v0,24(s8)
800148f8:	00021043 	sra	v0,v0,0x1
800148fc:	afc20018 	sw	v0,24(s8)
80014900:	8fc20018 	lw	v0,24(s8)
80014904:	28421001 	slti	v0,v0,4097
80014908:	1040fff7 	beqz	v0,800148e8 <find_order+0x1c>
8001490c:	00000000 	nop
80014910:	8fc20008 	lw	v0,8(s8)
80014914:	03c0e821 	move	sp,s8
80014918:	8fbe0014 	lw	s8,20(sp)
8001491c:	27bd0018 	addiu	sp,sp,24
80014920:	03e00008 	jr	ra
80014924:	00000000 	nop

80014928 <__kmalloc>:
80014928:	27bdffd0 	addiu	sp,sp,-48
8001492c:	afbf002c 	sw	ra,44(sp)
80014930:	afbe0028 	sw	s8,40(sp)
80014934:	03a0f021 	move	s8,sp
80014938:	afc40030 	sw	a0,48(s8)
8001493c:	afc50034 	sw	a1,52(s8)
80014940:	8fc20030 	lw	v0,48(s8)
80014944:	2c420ff8 	sltiu	v0,v0,4088
80014948:	10400013 	beqz	v0,80014998 <__kmalloc+0x70>
8001494c:	00000000 	nop
80014950:	8fc20030 	lw	v0,48(s8)
80014954:	24420008 	addiu	v0,v0,8
80014958:	00402021 	move	a0,v0
8001495c:	8fc50034 	lw	a1,52(s8)
80014960:	00003021 	move	a2,zero
80014964:	0c0050d3 	jal	8001434c <slob_alloc>
80014968:	00000000 	nop
8001496c:	afc20018 	sw	v0,24(s8)
80014970:	8fc20018 	lw	v0,24(s8)
80014974:	10400005 	beqz	v0,8001498c <__kmalloc+0x64>
80014978:	00000000 	nop
8001497c:	8fc20018 	lw	v0,24(s8)
80014980:	24420008 	addiu	v0,v0,8
80014984:	08005264 	j	80014990 <__kmalloc+0x68>
80014988:	00000000 	nop
8001498c:	00001021 	move	v0,zero
80014990:	0800529d 	j	80014a74 <__kmalloc+0x14c>
80014994:	00000000 	nop
80014998:	2404000c 	li	a0,12
8001499c:	8fc50034 	lw	a1,52(s8)
800149a0:	00003021 	move	a2,zero
800149a4:	0c0050d3 	jal	8001434c <slob_alloc>
800149a8:	00000000 	nop
800149ac:	afc2001c 	sw	v0,28(s8)
800149b0:	8fc2001c 	lw	v0,28(s8)
800149b4:	14400004 	bnez	v0,800149c8 <__kmalloc+0xa0>
800149b8:	00000000 	nop
800149bc:	00001021 	move	v0,zero
800149c0:	0800529d 	j	80014a74 <__kmalloc+0x14c>
800149c4:	00000000 	nop
800149c8:	8fc20030 	lw	v0,48(s8)
800149cc:	00402021 	move	a0,v0
800149d0:	0c005233 	jal	800148cc <find_order>
800149d4:	00000000 	nop
800149d8:	00401821 	move	v1,v0
800149dc:	8fc2001c 	lw	v0,28(s8)
800149e0:	ac430000 	sw	v1,0(v0)
800149e4:	8fc2001c 	lw	v0,28(s8)
800149e8:	8c420000 	lw	v0,0(v0)
800149ec:	8fc40034 	lw	a0,52(s8)
800149f0:	00402821 	move	a1,v0
800149f4:	0c00509f 	jal	8001427c <__slob_get_free_pages>
800149f8:	00000000 	nop
800149fc:	00401821 	move	v1,v0
80014a00:	8fc2001c 	lw	v0,28(s8)
80014a04:	ac430004 	sw	v1,4(v0)
80014a08:	8fc2001c 	lw	v0,28(s8)
80014a0c:	8c420004 	lw	v0,4(v0)
80014a10:	10400013 	beqz	v0,80014a60 <__kmalloc+0x138>
80014a14:	00000000 	nop
80014a18:	0c004ffc 	jal	80013ff0 <__intr_save>
80014a1c:	00000000 	nop
80014a20:	afc20020 	sw	v0,32(s8)
80014a24:	3c028036 	lui	v0,0x8036
80014a28:	8c430020 	lw	v1,32(v0)
80014a2c:	8fc2001c 	lw	v0,28(s8)
80014a30:	ac430008 	sw	v1,8(v0)
80014a34:	3c028036 	lui	v0,0x8036
80014a38:	8fc3001c 	lw	v1,28(s8)
80014a3c:	ac430020 	sw	v1,32(v0)
80014a40:	8fc20020 	lw	v0,32(s8)
80014a44:	00402021 	move	a0,v0
80014a48:	0c005012 	jal	80014048 <__intr_restore>
80014a4c:	00000000 	nop
80014a50:	8fc2001c 	lw	v0,28(s8)
80014a54:	8c420004 	lw	v0,4(v0)
80014a58:	0800529d 	j	80014a74 <__kmalloc+0x14c>
80014a5c:	00000000 	nop
80014a60:	8fc4001c 	lw	a0,28(s8)
80014a64:	2405000c 	li	a1,12
80014a68:	0c005182 	jal	80014608 <slob_free>
80014a6c:	00000000 	nop
80014a70:	00001021 	move	v0,zero
80014a74:	03c0e821 	move	sp,s8
80014a78:	8fbf002c 	lw	ra,44(sp)
80014a7c:	8fbe0028 	lw	s8,40(sp)
80014a80:	27bd0030 	addiu	sp,sp,48
80014a84:	03e00008 	jr	ra
80014a88:	00000000 	nop

80014a8c <kmalloc>:
80014a8c:	27bdffe0 	addiu	sp,sp,-32
80014a90:	afbf001c 	sw	ra,28(sp)
80014a94:	afbe0018 	sw	s8,24(sp)
80014a98:	03a0f021 	move	s8,sp
80014a9c:	afc40020 	sw	a0,32(s8)
80014aa0:	8fc40020 	lw	a0,32(s8)
80014aa4:	00002821 	move	a1,zero
80014aa8:	0c00524a 	jal	80014928 <__kmalloc>
80014aac:	00000000 	nop
80014ab0:	03c0e821 	move	sp,s8
80014ab4:	8fbf001c 	lw	ra,28(sp)
80014ab8:	8fbe0018 	lw	s8,24(sp)
80014abc:	27bd0020 	addiu	sp,sp,32
80014ac0:	03e00008 	jr	ra
80014ac4:	00000000 	nop

80014ac8 <kfree>:
80014ac8:	27bdffd0 	addiu	sp,sp,-48
80014acc:	afbf002c 	sw	ra,44(sp)
80014ad0:	afbe0028 	sw	s8,40(sp)
80014ad4:	03a0f021 	move	s8,sp
80014ad8:	afc40030 	sw	a0,48(s8)
80014adc:	3c028036 	lui	v0,0x8036
80014ae0:	24420020 	addiu	v0,v0,32
80014ae4:	afc2001c 	sw	v0,28(s8)
80014ae8:	8fc20030 	lw	v0,48(s8)
80014aec:	14400003 	bnez	v0,80014afc <kfree+0x34>
80014af0:	00000000 	nop
80014af4:	080052f9 	j	80014be4 <kfree+0x11c>
80014af8:	00000000 	nop
80014afc:	8fc20030 	lw	v0,48(s8)
80014b00:	30420fff 	andi	v0,v0,0xfff
80014b04:	14400030 	bnez	v0,80014bc8 <kfree+0x100>
80014b08:	00000000 	nop
80014b0c:	0c004ffc 	jal	80013ff0 <__intr_save>
80014b10:	00000000 	nop
80014b14:	afc20020 	sw	v0,32(s8)
80014b18:	3c028036 	lui	v0,0x8036
80014b1c:	8c420020 	lw	v0,32(v0)
80014b20:	afc20018 	sw	v0,24(s8)
80014b24:	080052eb 	j	80014bac <kfree+0xe4>
80014b28:	00000000 	nop
80014b2c:	8fc20018 	lw	v0,24(s8)
80014b30:	8c430004 	lw	v1,4(v0)
80014b34:	8fc20030 	lw	v0,48(s8)
80014b38:	14620016 	bne	v1,v0,80014b94 <kfree+0xcc>
80014b3c:	00000000 	nop
80014b40:	8fc20018 	lw	v0,24(s8)
80014b44:	8c430008 	lw	v1,8(v0)
80014b48:	8fc2001c 	lw	v0,28(s8)
80014b4c:	ac430000 	sw	v1,0(v0)
80014b50:	8fc20020 	lw	v0,32(s8)
80014b54:	00402021 	move	a0,v0
80014b58:	0c005012 	jal	80014048 <__intr_restore>
80014b5c:	00000000 	nop
80014b60:	8fc30030 	lw	v1,48(s8)
80014b64:	8fc20018 	lw	v0,24(s8)
80014b68:	8c420000 	lw	v0,0(v0)
80014b6c:	00602021 	move	a0,v1
80014b70:	00402821 	move	a1,v0
80014b74:	0c0050bb 	jal	800142ec <__slob_free_pages>
80014b78:	00000000 	nop
80014b7c:	8fc40018 	lw	a0,24(s8)
80014b80:	2405000c 	li	a1,12
80014b84:	0c005182 	jal	80014608 <slob_free>
80014b88:	00000000 	nop
80014b8c:	080052f9 	j	80014be4 <kfree+0x11c>
80014b90:	00000000 	nop
80014b94:	8fc20018 	lw	v0,24(s8)
80014b98:	24420008 	addiu	v0,v0,8
80014b9c:	afc2001c 	sw	v0,28(s8)
80014ba0:	8fc20018 	lw	v0,24(s8)
80014ba4:	8c420008 	lw	v0,8(v0)
80014ba8:	afc20018 	sw	v0,24(s8)
80014bac:	8fc20018 	lw	v0,24(s8)
80014bb0:	1440ffde 	bnez	v0,80014b2c <kfree+0x64>
80014bb4:	00000000 	nop
80014bb8:	8fc20020 	lw	v0,32(s8)
80014bbc:	00402021 	move	a0,v0
80014bc0:	0c005012 	jal	80014048 <__intr_restore>
80014bc4:	00000000 	nop
80014bc8:	8fc20030 	lw	v0,48(s8)
80014bcc:	2442fff8 	addiu	v0,v0,-8
80014bd0:	00402021 	move	a0,v0
80014bd4:	00002821 	move	a1,zero
80014bd8:	0c005182 	jal	80014608 <slob_free>
80014bdc:	00000000 	nop
80014be0:	00000000 	nop
80014be4:	03c0e821 	move	sp,s8
80014be8:	8fbf002c 	lw	ra,44(sp)
80014bec:	8fbe0028 	lw	s8,40(sp)
80014bf0:	27bd0030 	addiu	sp,sp,48
80014bf4:	03e00008 	jr	ra
80014bf8:	00000000 	nop

80014bfc <ksize>:
80014bfc:	27bdffd8 	addiu	sp,sp,-40
80014c00:	afbf0024 	sw	ra,36(sp)
80014c04:	afbe0020 	sw	s8,32(sp)
80014c08:	03a0f021 	move	s8,sp
80014c0c:	afc40028 	sw	a0,40(s8)
80014c10:	8fc20028 	lw	v0,40(s8)
80014c14:	14400004 	bnez	v0,80014c28 <ksize+0x2c>
80014c18:	00000000 	nop
80014c1c:	00001021 	move	v0,zero
80014c20:	08005333 	j	80014ccc <ksize+0xd0>
80014c24:	00000000 	nop
80014c28:	8fc20028 	lw	v0,40(s8)
80014c2c:	30420fff 	andi	v0,v0,0xfff
80014c30:	14400022 	bnez	v0,80014cbc <ksize+0xc0>
80014c34:	00000000 	nop
80014c38:	0c004ffc 	jal	80013ff0 <__intr_save>
80014c3c:	00000000 	nop
80014c40:	afc2001c 	sw	v0,28(s8)
80014c44:	3c028036 	lui	v0,0x8036
80014c48:	8c420020 	lw	v0,32(v0)
80014c4c:	afc20018 	sw	v0,24(s8)
80014c50:	08005328 	j	80014ca0 <ksize+0xa4>
80014c54:	00000000 	nop
80014c58:	8fc20018 	lw	v0,24(s8)
80014c5c:	8c430004 	lw	v1,4(v0)
80014c60:	8fc20028 	lw	v0,40(s8)
80014c64:	1462000b 	bne	v1,v0,80014c94 <ksize+0x98>
80014c68:	00000000 	nop
80014c6c:	8fc2001c 	lw	v0,28(s8)
80014c70:	00402021 	move	a0,v0
80014c74:	0c005012 	jal	80014048 <__intr_restore>
80014c78:	00000000 	nop
80014c7c:	8fc20018 	lw	v0,24(s8)
80014c80:	8c420000 	lw	v0,0(v0)
80014c84:	24031000 	li	v1,4096
80014c88:	00431004 	sllv	v0,v1,v0
80014c8c:	08005333 	j	80014ccc <ksize+0xd0>
80014c90:	00000000 	nop
80014c94:	8fc20018 	lw	v0,24(s8)
80014c98:	8c420008 	lw	v0,8(v0)
80014c9c:	afc20018 	sw	v0,24(s8)
80014ca0:	8fc20018 	lw	v0,24(s8)
80014ca4:	1440ffec 	bnez	v0,80014c58 <ksize+0x5c>
80014ca8:	00000000 	nop
80014cac:	8fc2001c 	lw	v0,28(s8)
80014cb0:	00402021 	move	a0,v0
80014cb4:	0c005012 	jal	80014048 <__intr_restore>
80014cb8:	00000000 	nop
80014cbc:	8fc20028 	lw	v0,40(s8)
80014cc0:	2442fff8 	addiu	v0,v0,-8
80014cc4:	8c420000 	lw	v0,0(v0)
80014cc8:	000210c0 	sll	v0,v0,0x3
80014ccc:	03c0e821 	move	sp,s8
80014cd0:	8fbf0024 	lw	ra,36(sp)
80014cd4:	8fbe0020 	lw	s8,32(sp)
80014cd8:	27bd0028 	addiu	sp,sp,40
80014cdc:	03e00008 	jr	ra
80014ce0:	00000000 	nop
	...

80014cf0 <__intr_save>:
80014cf0:	27bdffd8 	addiu	sp,sp,-40
80014cf4:	afbf0024 	sw	ra,36(sp)
80014cf8:	afbe0020 	sw	s8,32(sp)
80014cfc:	03a0f021 	move	s8,sp
80014d00:	40026000 	mfc0	v0,c0_status
80014d04:	afc20018 	sw	v0,24(s8)
80014d08:	8fc20018 	lw	v0,24(s8)
80014d0c:	30420001 	andi	v0,v0,0x1
80014d10:	10400006 	beqz	v0,80014d2c <__intr_save+0x3c>
80014d14:	00000000 	nop
80014d18:	0c0046d7 	jal	80011b5c <intr_disable>
80014d1c:	00000000 	nop
80014d20:	24020001 	li	v0,1
80014d24:	0800534c 	j	80014d30 <__intr_save+0x40>
80014d28:	00000000 	nop
80014d2c:	00001021 	move	v0,zero
80014d30:	03c0e821 	move	sp,s8
80014d34:	8fbf0024 	lw	ra,36(sp)
80014d38:	8fbe0020 	lw	s8,32(sp)
80014d3c:	27bd0028 	addiu	sp,sp,40
80014d40:	03e00008 	jr	ra
80014d44:	00000000 	nop

80014d48 <__intr_restore>:
80014d48:	27bdffe0 	addiu	sp,sp,-32
80014d4c:	afbf001c 	sw	ra,28(sp)
80014d50:	afbe0018 	sw	s8,24(sp)
80014d54:	03a0f021 	move	s8,sp
80014d58:	afc40020 	sw	a0,32(s8)
80014d5c:	8fc20020 	lw	v0,32(s8)
80014d60:	10400003 	beqz	v0,80014d70 <__intr_restore+0x28>
80014d64:	00000000 	nop
80014d68:	0c0046c8 	jal	80011b20 <intr_enable>
80014d6c:	00000000 	nop
80014d70:	03c0e821 	move	sp,s8
80014d74:	8fbf001c 	lw	ra,28(sp)
80014d78:	8fbe0018 	lw	s8,24(sp)
80014d7c:	27bd0020 	addiu	sp,sp,32
80014d80:	03e00008 	jr	ra
80014d84:	00000000 	nop

80014d88 <page2ppn>:
80014d88:	27bdfff8 	addiu	sp,sp,-8
80014d8c:	afbe0004 	sw	s8,4(sp)
80014d90:	03a0f021 	move	s8,sp
80014d94:	afc40008 	sw	a0,8(s8)
80014d98:	8fc30008 	lw	v1,8(s8)
80014d9c:	3c028036 	lui	v0,0x8036
80014da0:	8c4222a8 	lw	v0,8872(v0)
80014da4:	00621023 	subu	v0,v1,v0
80014da8:	00021143 	sra	v0,v0,0x5
80014dac:	03c0e821 	move	sp,s8
80014db0:	8fbe0004 	lw	s8,4(sp)
80014db4:	27bd0008 	addiu	sp,sp,8
80014db8:	03e00008 	jr	ra
80014dbc:	00000000 	nop

80014dc0 <page2pa>:
80014dc0:	27bdffe0 	addiu	sp,sp,-32
80014dc4:	afbf001c 	sw	ra,28(sp)
80014dc8:	afbe0018 	sw	s8,24(sp)
80014dcc:	03a0f021 	move	s8,sp
80014dd0:	afc40020 	sw	a0,32(s8)
80014dd4:	8fc40020 	lw	a0,32(s8)
80014dd8:	0c005362 	jal	80014d88 <page2ppn>
80014ddc:	00000000 	nop
80014de0:	00021300 	sll	v0,v0,0xc
80014de4:	03c0e821 	move	sp,s8
80014de8:	8fbf001c 	lw	ra,28(sp)
80014dec:	8fbe0018 	lw	s8,24(sp)
80014df0:	27bd0020 	addiu	sp,sp,32
80014df4:	03e00008 	jr	ra
80014df8:	00000000 	nop

80014dfc <pa2page>:
80014dfc:	27bdffe0 	addiu	sp,sp,-32
80014e00:	afbf001c 	sw	ra,28(sp)
80014e04:	afbe0018 	sw	s8,24(sp)
80014e08:	03a0f021 	move	s8,sp
80014e0c:	afc40020 	sw	a0,32(s8)
80014e10:	8fc20020 	lw	v0,32(s8)
80014e14:	00021b02 	srl	v1,v0,0xc
80014e18:	3c028036 	lui	v0,0x8036
80014e1c:	8c420030 	lw	v0,48(v0)
80014e20:	0062102b 	sltu	v0,v1,v0
80014e24:	14400008 	bnez	v0,80014e48 <pa2page+0x4c>
80014e28:	00000000 	nop
80014e2c:	3c028002 	lui	v0,0x8002
80014e30:	24442bd0 	addiu	a0,v0,11216
80014e34:	2405005c 	li	a1,92
80014e38:	3c028002 	lui	v0,0x8002
80014e3c:	24462be0 	addiu	a2,v0,11232
80014e40:	0c004544 	jal	80011510 <__panic>
80014e44:	00000000 	nop
80014e48:	3c028036 	lui	v0,0x8036
80014e4c:	8c4322a8 	lw	v1,8872(v0)
80014e50:	8fc20020 	lw	v0,32(s8)
80014e54:	00021302 	srl	v0,v0,0xc
80014e58:	00021140 	sll	v0,v0,0x5
80014e5c:	00621021 	addu	v0,v1,v0
80014e60:	03c0e821 	move	sp,s8
80014e64:	8fbf001c 	lw	ra,28(sp)
80014e68:	8fbe0018 	lw	s8,24(sp)
80014e6c:	27bd0020 	addiu	sp,sp,32
80014e70:	03e00008 	jr	ra
80014e74:	00000000 	nop

80014e78 <page2kva>:
80014e78:	27bdffd8 	addiu	sp,sp,-40
80014e7c:	afbf0024 	sw	ra,36(sp)
80014e80:	afbe0020 	sw	s8,32(sp)
80014e84:	03a0f021 	move	s8,sp
80014e88:	afc40028 	sw	a0,40(s8)
80014e8c:	8fc40028 	lw	a0,40(s8)
80014e90:	0c005370 	jal	80014dc0 <page2pa>
80014e94:	00000000 	nop
80014e98:	afc20018 	sw	v0,24(s8)
80014e9c:	8fc20018 	lw	v0,24(s8)
80014ea0:	00021302 	srl	v0,v0,0xc
80014ea4:	afc2001c 	sw	v0,28(s8)
80014ea8:	3c028036 	lui	v0,0x8036
80014eac:	8c420030 	lw	v0,48(v0)
80014eb0:	8fc3001c 	lw	v1,28(s8)
80014eb4:	0062102b 	sltu	v0,v1,v0
80014eb8:	14400009 	bnez	v0,80014ee0 <page2kva+0x68>
80014ebc:	00000000 	nop
80014ec0:	3c028002 	lui	v0,0x8002
80014ec4:	24442bd0 	addiu	a0,v0,11216
80014ec8:	24050063 	li	a1,99
80014ecc:	3c028002 	lui	v0,0x8002
80014ed0:	24462c00 	addiu	a2,v0,11264
80014ed4:	8fc70018 	lw	a3,24(s8)
80014ed8:	0c004544 	jal	80011510 <__panic>
80014edc:	00000000 	nop
80014ee0:	8fc30018 	lw	v1,24(s8)
80014ee4:	3c028000 	lui	v0,0x8000
80014ee8:	00621021 	addu	v0,v1,v0
80014eec:	03c0e821 	move	sp,s8
80014ef0:	8fbf0024 	lw	ra,36(sp)
80014ef4:	8fbe0020 	lw	s8,32(sp)
80014ef8:	27bd0028 	addiu	sp,sp,40
80014efc:	03e00008 	jr	ra
80014f00:	00000000 	nop

80014f04 <pte2page>:
80014f04:	27bdffe0 	addiu	sp,sp,-32
80014f08:	afbf001c 	sw	ra,28(sp)
80014f0c:	afbe0018 	sw	s8,24(sp)
80014f10:	03a0f021 	move	s8,sp
80014f14:	afc40020 	sw	a0,32(s8)
80014f18:	8fc20020 	lw	v0,32(s8)
80014f1c:	30420001 	andi	v0,v0,0x1
80014f20:	14400008 	bnez	v0,80014f44 <pte2page+0x40>
80014f24:	00000000 	nop
80014f28:	3c028002 	lui	v0,0x8002
80014f2c:	24442bd0 	addiu	a0,v0,11216
80014f30:	2405006e 	li	a1,110
80014f34:	3c028002 	lui	v0,0x8002
80014f38:	24462c24 	addiu	a2,v0,11300
80014f3c:	0c004544 	jal	80011510 <__panic>
80014f40:	00000000 	nop
80014f44:	8fc30020 	lw	v1,32(s8)
80014f48:	2402f000 	li	v0,-4096
80014f4c:	00621024 	and	v0,v1,v0
80014f50:	00402021 	move	a0,v0
80014f54:	0c00537f 	jal	80014dfc <pa2page>
80014f58:	00000000 	nop
80014f5c:	03c0e821 	move	sp,s8
80014f60:	8fbf001c 	lw	ra,28(sp)
80014f64:	8fbe0018 	lw	s8,24(sp)
80014f68:	27bd0020 	addiu	sp,sp,32
80014f6c:	03e00008 	jr	ra
80014f70:	00000000 	nop

80014f74 <pde2page>:
80014f74:	27bdffe0 	addiu	sp,sp,-32
80014f78:	afbf001c 	sw	ra,28(sp)
80014f7c:	afbe0018 	sw	s8,24(sp)
80014f80:	03a0f021 	move	s8,sp
80014f84:	afc40020 	sw	a0,32(s8)
80014f88:	8fc30020 	lw	v1,32(s8)
80014f8c:	2402f000 	li	v0,-4096
80014f90:	00621024 	and	v0,v1,v0
80014f94:	00402021 	move	a0,v0
80014f98:	0c00537f 	jal	80014dfc <pa2page>
80014f9c:	00000000 	nop
80014fa0:	03c0e821 	move	sp,s8
80014fa4:	8fbf001c 	lw	ra,28(sp)
80014fa8:	8fbe0018 	lw	s8,24(sp)
80014fac:	27bd0020 	addiu	sp,sp,32
80014fb0:	03e00008 	jr	ra
80014fb4:	00000000 	nop

80014fb8 <page_ref>:
80014fb8:	27bdfff8 	addiu	sp,sp,-8
80014fbc:	afbe0004 	sw	s8,4(sp)
80014fc0:	03a0f021 	move	s8,sp
80014fc4:	afc40008 	sw	a0,8(s8)
80014fc8:	8fc20008 	lw	v0,8(s8)
80014fcc:	8c420000 	lw	v0,0(v0)
80014fd0:	03c0e821 	move	sp,s8
80014fd4:	8fbe0004 	lw	s8,4(sp)
80014fd8:	27bd0008 	addiu	sp,sp,8
80014fdc:	03e00008 	jr	ra
80014fe0:	00000000 	nop

80014fe4 <set_page_ref>:
80014fe4:	27bdfff8 	addiu	sp,sp,-8
80014fe8:	afbe0004 	sw	s8,4(sp)
80014fec:	03a0f021 	move	s8,sp
80014ff0:	afc40008 	sw	a0,8(s8)
80014ff4:	afc5000c 	sw	a1,12(s8)
80014ff8:	8fc20008 	lw	v0,8(s8)
80014ffc:	8fc3000c 	lw	v1,12(s8)
80015000:	ac430000 	sw	v1,0(v0)
80015004:	03c0e821 	move	sp,s8
80015008:	8fbe0004 	lw	s8,4(sp)
8001500c:	27bd0008 	addiu	sp,sp,8
80015010:	03e00008 	jr	ra
80015014:	00000000 	nop

80015018 <page_ref_inc>:
80015018:	27bdfff8 	addiu	sp,sp,-8
8001501c:	afbe0004 	sw	s8,4(sp)
80015020:	03a0f021 	move	s8,sp
80015024:	afc40008 	sw	a0,8(s8)
80015028:	8fc20008 	lw	v0,8(s8)
8001502c:	8c420000 	lw	v0,0(v0)
80015030:	24430001 	addiu	v1,v0,1
80015034:	8fc20008 	lw	v0,8(s8)
80015038:	ac430000 	sw	v1,0(v0)
8001503c:	8fc20008 	lw	v0,8(s8)
80015040:	8c420000 	lw	v0,0(v0)
80015044:	03c0e821 	move	sp,s8
80015048:	8fbe0004 	lw	s8,4(sp)
8001504c:	27bd0008 	addiu	sp,sp,8
80015050:	03e00008 	jr	ra
80015054:	00000000 	nop

80015058 <page_ref_dec>:
80015058:	27bdfff8 	addiu	sp,sp,-8
8001505c:	afbe0004 	sw	s8,4(sp)
80015060:	03a0f021 	move	s8,sp
80015064:	afc40008 	sw	a0,8(s8)
80015068:	8fc20008 	lw	v0,8(s8)
8001506c:	8c420000 	lw	v0,0(v0)
80015070:	2443ffff 	addiu	v1,v0,-1
80015074:	8fc20008 	lw	v0,8(s8)
80015078:	ac430000 	sw	v1,0(v0)
8001507c:	8fc20008 	lw	v0,8(s8)
80015080:	8c420000 	lw	v0,0(v0)
80015084:	03c0e821 	move	sp,s8
80015088:	8fbe0004 	lw	s8,4(sp)
8001508c:	27bd0008 	addiu	sp,sp,8
80015090:	03e00008 	jr	ra
80015094:	00000000 	nop

80015098 <load_ksp>:
80015098:	27bdfff8 	addiu	sp,sp,-8
8001509c:	afbe0004 	sw	s8,4(sp)
800150a0:	03a0f021 	move	s8,sp
800150a4:	afc40008 	sw	a0,8(s8)
800150a8:	3c028036 	lui	v0,0x8036
800150ac:	8fc30008 	lw	v1,8(s8)
800150b0:	ac4322a0 	sw	v1,8864(v0)
800150b4:	03c0e821 	move	sp,s8
800150b8:	8fbe0004 	lw	s8,4(sp)
800150bc:	27bd0008 	addiu	sp,sp,8
800150c0:	03e00008 	jr	ra
800150c4:	00000000 	nop

800150c8 <init_pmm_manager>:
800150c8:	27bdffe0 	addiu	sp,sp,-32
800150cc:	afbf001c 	sw	ra,28(sp)
800150d0:	afbe0018 	sw	s8,24(sp)
800150d4:	03a0f021 	move	s8,sp
800150d8:	3c028036 	lui	v0,0x8036
800150dc:	3c038002 	lui	v1,0x8002
800150e0:	24632aac 	addiu	v1,v1,10924
800150e4:	ac4322a4 	sw	v1,8868(v0)
800150e8:	3c028036 	lui	v0,0x8036
800150ec:	8c4222a4 	lw	v0,8868(v0)
800150f0:	8c420000 	lw	v0,0(v0)
800150f4:	3c038002 	lui	v1,0x8002
800150f8:	24642c50 	addiu	a0,v1,11344
800150fc:	00402821 	move	a1,v0
80015100:	0c00413e 	jal	800104f8 <cprintf>
80015104:	00000000 	nop
80015108:	3c028036 	lui	v0,0x8036
8001510c:	8c4222a4 	lw	v0,8868(v0)
80015110:	8c420004 	lw	v0,4(v0)
80015114:	0040c821 	move	t9,v0
80015118:	0320f809 	jalr	t9
8001511c:	00000000 	nop
80015120:	03c0e821 	move	sp,s8
80015124:	8fbf001c 	lw	ra,28(sp)
80015128:	8fbe0018 	lw	s8,24(sp)
8001512c:	27bd0020 	addiu	sp,sp,32
80015130:	03e00008 	jr	ra
80015134:	00000000 	nop

80015138 <init_memmap>:
80015138:	27bdffe0 	addiu	sp,sp,-32
8001513c:	afbf001c 	sw	ra,28(sp)
80015140:	afbe0018 	sw	s8,24(sp)
80015144:	03a0f021 	move	s8,sp
80015148:	afc40020 	sw	a0,32(s8)
8001514c:	afc50024 	sw	a1,36(s8)
80015150:	3c028036 	lui	v0,0x8036
80015154:	8c4222a4 	lw	v0,8868(v0)
80015158:	8c420008 	lw	v0,8(v0)
8001515c:	8fc40020 	lw	a0,32(s8)
80015160:	8fc50024 	lw	a1,36(s8)
80015164:	0040c821 	move	t9,v0
80015168:	0320f809 	jalr	t9
8001516c:	00000000 	nop
80015170:	03c0e821 	move	sp,s8
80015174:	8fbf001c 	lw	ra,28(sp)
80015178:	8fbe0018 	lw	s8,24(sp)
8001517c:	27bd0020 	addiu	sp,sp,32
80015180:	03e00008 	jr	ra
80015184:	00000000 	nop

80015188 <alloc_pages>:
80015188:	27bdffd8 	addiu	sp,sp,-40
8001518c:	afbf0024 	sw	ra,36(sp)
80015190:	afbe0020 	sw	s8,32(sp)
80015194:	03a0f021 	move	s8,sp
80015198:	afc40028 	sw	a0,40(s8)
8001519c:	afc00018 	sw	zero,24(s8)
800151a0:	0c00533c 	jal	80014cf0 <__intr_save>
800151a4:	00000000 	nop
800151a8:	afc2001c 	sw	v0,28(s8)
800151ac:	3c028036 	lui	v0,0x8036
800151b0:	8c4222a4 	lw	v0,8868(v0)
800151b4:	8c42000c 	lw	v0,12(v0)
800151b8:	8fc40028 	lw	a0,40(s8)
800151bc:	0040c821 	move	t9,v0
800151c0:	0320f809 	jalr	t9
800151c4:	00000000 	nop
800151c8:	afc20018 	sw	v0,24(s8)
800151cc:	8fc4001c 	lw	a0,28(s8)
800151d0:	0c005352 	jal	80014d48 <__intr_restore>
800151d4:	00000000 	nop
800151d8:	8fc20018 	lw	v0,24(s8)
800151dc:	14400013 	bnez	v0,8001522c <alloc_pages+0xa4>
800151e0:	00000000 	nop
800151e4:	8fc20028 	lw	v0,40(s8)
800151e8:	2c420002 	sltiu	v0,v0,2
800151ec:	1040000f 	beqz	v0,8001522c <alloc_pages+0xa4>
800151f0:	00000000 	nop
800151f4:	3c028036 	lui	v0,0x8036
800151f8:	8c420040 	lw	v0,64(v0)
800151fc:	1040000b 	beqz	v0,8001522c <alloc_pages+0xa4>
80015200:	00000000 	nop
80015204:	3c028036 	lui	v0,0x8036
80015208:	8c4322bc 	lw	v1,8892(v0)
8001520c:	8fc20028 	lw	v0,40(s8)
80015210:	00602021 	move	a0,v1
80015214:	00402821 	move	a1,v0
80015218:	00003021 	move	a2,zero
8001521c:	0c005dae 	jal	800176b8 <swap_out>
80015220:	00000000 	nop
80015224:	08005468 	j	800151a0 <alloc_pages+0x18>
80015228:	00000000 	nop
8001522c:	8fc20018 	lw	v0,24(s8)
80015230:	03c0e821 	move	sp,s8
80015234:	8fbf0024 	lw	ra,36(sp)
80015238:	8fbe0020 	lw	s8,32(sp)
8001523c:	27bd0028 	addiu	sp,sp,40
80015240:	03e00008 	jr	ra
80015244:	00000000 	nop

80015248 <free_pages>:
80015248:	27bdffd8 	addiu	sp,sp,-40
8001524c:	afbf0024 	sw	ra,36(sp)
80015250:	afbe0020 	sw	s8,32(sp)
80015254:	03a0f021 	move	s8,sp
80015258:	afc40028 	sw	a0,40(s8)
8001525c:	afc5002c 	sw	a1,44(s8)
80015260:	0c00533c 	jal	80014cf0 <__intr_save>
80015264:	00000000 	nop
80015268:	afc20018 	sw	v0,24(s8)
8001526c:	3c028036 	lui	v0,0x8036
80015270:	8c4222a4 	lw	v0,8868(v0)
80015274:	8c420010 	lw	v0,16(v0)
80015278:	8fc40028 	lw	a0,40(s8)
8001527c:	8fc5002c 	lw	a1,44(s8)
80015280:	0040c821 	move	t9,v0
80015284:	0320f809 	jalr	t9
80015288:	00000000 	nop
8001528c:	8fc40018 	lw	a0,24(s8)
80015290:	0c005352 	jal	80014d48 <__intr_restore>
80015294:	00000000 	nop
80015298:	03c0e821 	move	sp,s8
8001529c:	8fbf0024 	lw	ra,36(sp)
800152a0:	8fbe0020 	lw	s8,32(sp)
800152a4:	27bd0028 	addiu	sp,sp,40
800152a8:	03e00008 	jr	ra
800152ac:	00000000 	nop

800152b0 <nr_free_pages>:
800152b0:	27bdffd8 	addiu	sp,sp,-40
800152b4:	afbf0024 	sw	ra,36(sp)
800152b8:	afbe0020 	sw	s8,32(sp)
800152bc:	03a0f021 	move	s8,sp
800152c0:	0c00533c 	jal	80014cf0 <__intr_save>
800152c4:	00000000 	nop
800152c8:	afc20018 	sw	v0,24(s8)
800152cc:	3c028036 	lui	v0,0x8036
800152d0:	8c4222a4 	lw	v0,8868(v0)
800152d4:	8c420014 	lw	v0,20(v0)
800152d8:	0040c821 	move	t9,v0
800152dc:	0320f809 	jalr	t9
800152e0:	00000000 	nop
800152e4:	afc2001c 	sw	v0,28(s8)
800152e8:	8fc40018 	lw	a0,24(s8)
800152ec:	0c005352 	jal	80014d48 <__intr_restore>
800152f0:	00000000 	nop
800152f4:	8fc2001c 	lw	v0,28(s8)
800152f8:	03c0e821 	move	sp,s8
800152fc:	8fbf0024 	lw	ra,36(sp)
80015300:	8fbe0020 	lw	s8,32(sp)
80015304:	27bd0028 	addiu	sp,sp,40
80015308:	03e00008 	jr	ra
8001530c:	00000000 	nop

80015310 <page_init>:
80015310:	27bdff90 	addiu	sp,sp,-112
80015314:	afbf006c 	sw	ra,108(sp)
80015318:	afbe0068 	sw	s8,104(sp)
8001531c:	afb10064 	sw	s1,100(sp)
80015320:	afb00060 	sw	s0,96(sp)
80015324:	03a0f021 	move	s8,sp
80015328:	3c020080 	lui	v0,0x80
8001532c:	00001821 	move	v1,zero
80015330:	00400013 	mtlo	v0
80015334:	00600011 	mthi	v1
80015338:	00001012 	mflo	v0
8001533c:	00001810 	mfhi	v1
80015340:	afc20020 	sw	v0,32(s8)
80015344:	afc30024 	sw	v1,36(s8)
80015348:	8fc40020 	lw	a0,32(s8)
8001534c:	8fc50024 	lw	a1,36(s8)
80015350:	00053500 	sll	a2,a1,0x14
80015354:	00041302 	srl	v0,a0,0xc
80015358:	00c21025 	or	v0,a2,v0
8001535c:	00051b02 	srl	v1,a1,0xc
80015360:	00401821 	move	v1,v0
80015364:	3c028036 	lui	v0,0x8036
80015368:	ac430030 	sw	v1,48(v0)
8001536c:	3c028036 	lui	v0,0x8036
80015370:	2442229c 	addiu	v0,v0,8860
80015374:	24420fff 	addiu	v0,v0,4095
80015378:	afc20028 	sw	v0,40(s8)
8001537c:	8fc30028 	lw	v1,40(s8)
80015380:	2402f000 	li	v0,-4096
80015384:	00621024 	and	v0,v1,v0
80015388:	00401821 	move	v1,v0
8001538c:	3c028036 	lui	v0,0x8036
80015390:	ac4322a8 	sw	v1,8872(v0)
80015394:	afc00018 	sw	zero,24(s8)
80015398:	08005501 	j	80015404 <page_init+0xf4>
8001539c:	00000000 	nop
800153a0:	3c028036 	lui	v0,0x8036
800153a4:	8c4322a8 	lw	v1,8872(v0)
800153a8:	8fc20018 	lw	v0,24(s8)
800153ac:	00021140 	sll	v0,v0,0x5
800153b0:	00621021 	addu	v0,v1,v0
800153b4:	24420004 	addiu	v0,v0,4
800153b8:	afc00050 	sw	zero,80(s8)
800153bc:	afc20054 	sw	v0,84(s8)
800153c0:	0c00533c 	jal	80014cf0 <__intr_save>
800153c4:	00000000 	nop
800153c8:	afc20058 	sw	v0,88(s8)
800153cc:	8fc20054 	lw	v0,84(s8)
800153d0:	8c430000 	lw	v1,0(v0)
800153d4:	24040001 	li	a0,1
800153d8:	8fc20050 	lw	v0,80(s8)
800153dc:	00441004 	sllv	v0,a0,v0
800153e0:	00621825 	or	v1,v1,v0
800153e4:	8fc20054 	lw	v0,84(s8)
800153e8:	ac430000 	sw	v1,0(v0)
800153ec:	8fc40058 	lw	a0,88(s8)
800153f0:	0c005352 	jal	80014d48 <__intr_restore>
800153f4:	00000000 	nop
800153f8:	8fc20018 	lw	v0,24(s8)
800153fc:	24420001 	addiu	v0,v0,1
80015400:	afc20018 	sw	v0,24(s8)
80015404:	8fc30018 	lw	v1,24(s8)
80015408:	3c028036 	lui	v0,0x8036
8001540c:	8c420030 	lw	v0,48(v0)
80015410:	0062102b 	sltu	v0,v1,v0
80015414:	1440ffe2 	bnez	v0,800153a0 <page_init+0x90>
80015418:	00000000 	nop
8001541c:	3c028036 	lui	v0,0x8036
80015420:	8c420030 	lw	v0,48(v0)
80015424:	00021940 	sll	v1,v0,0x5
80015428:	3c028036 	lui	v0,0x8036
8001542c:	8c4222a8 	lw	v0,8872(v0)
80015430:	00621021 	addu	v0,v1,v0
80015434:	afc2002c 	sw	v0,44(s8)
80015438:	8fc2002c 	lw	v0,44(s8)
8001543c:	04400009 	bltz	v0,80015464 <page_init+0x154>
80015440:	00000000 	nop
80015444:	3c028002 	lui	v0,0x8002
80015448:	24442c68 	addiu	a0,v0,11368
8001544c:	2405008c 	li	a1,140
80015450:	3c028002 	lui	v0,0x8002
80015454:	24462c78 	addiu	a2,v0,11384
80015458:	8fc7002c 	lw	a3,44(s8)
8001545c:	0c004544 	jal	80011510 <__panic>
80015460:	00000000 	nop
80015464:	8fc3002c 	lw	v1,44(s8)
80015468:	3c028000 	lui	v0,0x8000
8001546c:	00621021 	addu	v0,v1,v0
80015470:	afc20030 	sw	v0,48(s8)
80015474:	8fc20030 	lw	v0,48(s8)
80015478:	24420fff 	addiu	v0,v0,4095
8001547c:	afc20034 	sw	v0,52(s8)
80015480:	8fc30034 	lw	v1,52(s8)
80015484:	2402f000 	li	v0,-4096
80015488:	00621024 	and	v0,v1,v0
8001548c:	afc20038 	sw	v0,56(s8)
80015490:	afc0003c 	sw	zero,60(s8)
80015494:	3c020080 	lui	v0,0x80
80015498:	afc20040 	sw	v0,64(s8)
8001549c:	8fc30040 	lw	v1,64(s8)
800154a0:	2402f000 	li	v0,-4096
800154a4:	00621024 	and	v0,v1,v0
800154a8:	afc20048 	sw	v0,72(s8)
800154ac:	000217c3 	sra	v0,v0,0x1f
800154b0:	afc2004c 	sw	v0,76(s8)
800154b4:	8fc3004c 	lw	v1,76(s8)
800154b8:	8fc2003c 	lw	v0,60(s8)
800154bc:	0043102b 	sltu	v0,v0,v1
800154c0:	1440000a 	bnez	v0,800154ec <page_init+0x1dc>
800154c4:	00000000 	nop
800154c8:	8fc3004c 	lw	v1,76(s8)
800154cc:	8fc2003c 	lw	v0,60(s8)
800154d0:	1462001d 	bne	v1,v0,80015548 <page_init+0x238>
800154d4:	00000000 	nop
800154d8:	8fc30048 	lw	v1,72(s8)
800154dc:	8fc20038 	lw	v0,56(s8)
800154e0:	0043102b 	sltu	v0,v0,v1
800154e4:	10400018 	beqz	v0,80015548 <page_init+0x238>
800154e8:	00000000 	nop
800154ec:	8fc20038 	lw	v0,56(s8)
800154f0:	00402021 	move	a0,v0
800154f4:	0c00537f 	jal	80014dfc <pa2page>
800154f8:	00000000 	nop
800154fc:	00404021 	move	t0,v0
80015500:	8fc40048 	lw	a0,72(s8)
80015504:	8fc5004c 	lw	a1,76(s8)
80015508:	8fc60038 	lw	a2,56(s8)
8001550c:	8fc7003c 	lw	a3,60(s8)
80015510:	00861023 	subu	v0,a0,a2
80015514:	0082482b 	sltu	t1,a0,v0
80015518:	00a71823 	subu	v1,a1,a3
8001551c:	00692023 	subu	a0,v1,t1
80015520:	00801821 	move	v1,a0
80015524:	00032500 	sll	a0,v1,0x14
80015528:	00028302 	srl	s0,v0,0xc
8001552c:	00908025 	or	s0,a0,s0
80015530:	00038b02 	srl	s1,v1,0xc
80015534:	02001021 	move	v0,s0
80015538:	01002021 	move	a0,t0
8001553c:	00402821 	move	a1,v0
80015540:	0c00544e 	jal	80015138 <init_memmap>
80015544:	00000000 	nop
80015548:	03c0e821 	move	sp,s8
8001554c:	8fbf006c 	lw	ra,108(sp)
80015550:	8fbe0068 	lw	s8,104(sp)
80015554:	8fb10064 	lw	s1,100(sp)
80015558:	8fb00060 	lw	s0,96(sp)
8001555c:	27bd0070 	addiu	sp,sp,112
80015560:	03e00008 	jr	ra
80015564:	00000000 	nop

80015568 <enable_paging>:
80015568:	27bdffe0 	addiu	sp,sp,-32
8001556c:	afbf001c 	sw	ra,28(sp)
80015570:	afbe0018 	sw	s8,24(sp)
80015574:	03a0f021 	move	s8,sp
80015578:	0c006310 	jal	80018c40 <tlb_init>
8001557c:	00000000 	nop
80015580:	3c028036 	lui	v0,0x8036
80015584:	8c420034 	lw	v0,52(v0)
80015588:	00402021 	move	a0,v0
8001558c:	0c00643c 	jal	800190f0 <load_pgdir>
80015590:	00000000 	nop
80015594:	03c0e821 	move	sp,s8
80015598:	8fbf001c 	lw	ra,28(sp)
8001559c:	8fbe0018 	lw	s8,24(sp)
800155a0:	27bd0020 	addiu	sp,sp,32
800155a4:	03e00008 	jr	ra
800155a8:	00000000 	nop

800155ac <boot_map_segment>:
800155ac:	27bdffc8 	addiu	sp,sp,-56
800155b0:	afbf0034 	sw	ra,52(sp)
800155b4:	afbe0030 	sw	s8,48(sp)
800155b8:	03a0f021 	move	s8,sp
800155bc:	afc40038 	sw	a0,56(s8)
800155c0:	afc5003c 	sw	a1,60(s8)
800155c4:	afc60040 	sw	a2,64(s8)
800155c8:	afc70044 	sw	a3,68(s8)
800155cc:	8fc3003c 	lw	v1,60(s8)
800155d0:	8fc20044 	lw	v0,68(s8)
800155d4:	00621026 	xor	v0,v1,v0
800155d8:	30420fff 	andi	v0,v0,0xfff
800155dc:	1040000a 	beqz	v0,80015608 <boot_map_segment+0x5c>
800155e0:	00000000 	nop
800155e4:	3c028002 	lui	v0,0x8002
800155e8:	24442c68 	addiu	a0,v0,11368
800155ec:	240500a4 	li	a1,164
800155f0:	3c028002 	lui	v0,0x8002
800155f4:	24462c9c 	addiu	a2,v0,11420
800155f8:	3c028002 	lui	v0,0x8002
800155fc:	24472cb4 	addiu	a3,v0,11444
80015600:	0c004544 	jal	80011510 <__panic>
80015604:	00000000 	nop
80015608:	8fc2003c 	lw	v0,60(s8)
8001560c:	30430fff 	andi	v1,v0,0xfff
80015610:	8fc20040 	lw	v0,64(s8)
80015614:	00621021 	addu	v0,v1,v0
80015618:	24420fff 	addiu	v0,v0,4095
8001561c:	afc2001c 	sw	v0,28(s8)
80015620:	8fc3001c 	lw	v1,28(s8)
80015624:	2402f000 	li	v0,-4096
80015628:	00621024 	and	v0,v1,v0
8001562c:	00021302 	srl	v0,v0,0xc
80015630:	afc20018 	sw	v0,24(s8)
80015634:	8fc2003c 	lw	v0,60(s8)
80015638:	afc20020 	sw	v0,32(s8)
8001563c:	8fc30020 	lw	v1,32(s8)
80015640:	2402f000 	li	v0,-4096
80015644:	00621024 	and	v0,v1,v0
80015648:	afc2003c 	sw	v0,60(s8)
8001564c:	8fc20044 	lw	v0,68(s8)
80015650:	afc20024 	sw	v0,36(s8)
80015654:	8fc30024 	lw	v1,36(s8)
80015658:	2402f000 	li	v0,-4096
8001565c:	00621024 	and	v0,v1,v0
80015660:	afc20044 	sw	v0,68(s8)
80015664:	080055bc 	j	800156f0 <boot_map_segment+0x144>
80015668:	00000000 	nop
8001566c:	8fc40038 	lw	a0,56(s8)
80015670:	8fc5003c 	lw	a1,60(s8)
80015674:	24060001 	li	a2,1
80015678:	0c005621 	jal	80015884 <get_pte>
8001567c:	00000000 	nop
80015680:	afc20028 	sw	v0,40(s8)
80015684:	8fc20028 	lw	v0,40(s8)
80015688:	1440000a 	bnez	v0,800156b4 <boot_map_segment+0x108>
8001568c:	00000000 	nop
80015690:	3c028002 	lui	v0,0x8002
80015694:	24442c68 	addiu	a0,v0,11368
80015698:	240500aa 	li	a1,170
8001569c:	3c028002 	lui	v0,0x8002
800156a0:	24462c9c 	addiu	a2,v0,11420
800156a4:	3c028002 	lui	v0,0x8002
800156a8:	24472ccc 	addiu	a3,v0,11468
800156ac:	0c004544 	jal	80011510 <__panic>
800156b0:	00000000 	nop
800156b4:	8fc30044 	lw	v1,68(s8)
800156b8:	8fc20048 	lw	v0,72(s8)
800156bc:	00621025 	or	v0,v1,v0
800156c0:	34430001 	ori	v1,v0,0x1
800156c4:	8fc20028 	lw	v0,40(s8)
800156c8:	ac430000 	sw	v1,0(v0)
800156cc:	8fc20018 	lw	v0,24(s8)
800156d0:	2442ffff 	addiu	v0,v0,-1
800156d4:	afc20018 	sw	v0,24(s8)
800156d8:	8fc2003c 	lw	v0,60(s8)
800156dc:	24421000 	addiu	v0,v0,4096
800156e0:	afc2003c 	sw	v0,60(s8)
800156e4:	8fc20044 	lw	v0,68(s8)
800156e8:	24421000 	addiu	v0,v0,4096
800156ec:	afc20044 	sw	v0,68(s8)
800156f0:	8fc20018 	lw	v0,24(s8)
800156f4:	1440ffdd 	bnez	v0,8001566c <boot_map_segment+0xc0>
800156f8:	00000000 	nop
800156fc:	03c0e821 	move	sp,s8
80015700:	8fbf0034 	lw	ra,52(sp)
80015704:	8fbe0030 	lw	s8,48(sp)
80015708:	27bd0038 	addiu	sp,sp,56
8001570c:	03e00008 	jr	ra
80015710:	00000000 	nop

80015714 <boot_alloc_page>:
80015714:	27bdffd8 	addiu	sp,sp,-40
80015718:	afbf0024 	sw	ra,36(sp)
8001571c:	afbe0020 	sw	s8,32(sp)
80015720:	03a0f021 	move	s8,sp
80015724:	24040001 	li	a0,1
80015728:	0c005462 	jal	80015188 <alloc_pages>
8001572c:	00000000 	nop
80015730:	afc20018 	sw	v0,24(s8)
80015734:	8fc20018 	lw	v0,24(s8)
80015738:	14400008 	bnez	v0,8001575c <boot_alloc_page+0x48>
8001573c:	00000000 	nop
80015740:	3c028002 	lui	v0,0x8002
80015744:	24442c68 	addiu	a0,v0,11368
80015748:	240500b6 	li	a1,182
8001574c:	3c028002 	lui	v0,0x8002
80015750:	24462cdc 	addiu	a2,v0,11484
80015754:	0c004544 	jal	80011510 <__panic>
80015758:	00000000 	nop
8001575c:	8fc40018 	lw	a0,24(s8)
80015760:	0c00539e 	jal	80014e78 <page2kva>
80015764:	00000000 	nop
80015768:	03c0e821 	move	sp,s8
8001576c:	8fbf0024 	lw	ra,36(sp)
80015770:	8fbe0020 	lw	s8,32(sp)
80015774:	27bd0028 	addiu	sp,sp,40
80015778:	03e00008 	jr	ra
8001577c:	00000000 	nop

80015780 <pmm_init>:
80015780:	27bdffd8 	addiu	sp,sp,-40
80015784:	afbf0024 	sw	ra,36(sp)
80015788:	afbe0020 	sw	s8,32(sp)
8001578c:	03a0f021 	move	s8,sp
80015790:	0c005432 	jal	800150c8 <init_pmm_manager>
80015794:	00000000 	nop
80015798:	0c0054c4 	jal	80015310 <page_init>
8001579c:	00000000 	nop
800157a0:	0c0058f6 	jal	800163d8 <check_alloc_page>
800157a4:	00000000 	nop
800157a8:	0c0055c5 	jal	80015714 <boot_alloc_page>
800157ac:	00000000 	nop
800157b0:	00401821 	move	v1,v0
800157b4:	3c028036 	lui	v0,0x8036
800157b8:	ac430034 	sw	v1,52(v0)
800157bc:	3c028036 	lui	v0,0x8036
800157c0:	8c420034 	lw	v0,52(v0)
800157c4:	00402021 	move	a0,v0
800157c8:	00002821 	move	a1,zero
800157cc:	24061000 	li	a2,4096
800157d0:	0c00877d 	jal	80021df4 <memset>
800157d4:	00000000 	nop
800157d8:	0c00590a 	jal	80016428 <check_pgdir>
800157dc:	00000000 	nop
800157e0:	3c028036 	lui	v0,0x8036
800157e4:	8c420034 	lw	v0,52(v0)
800157e8:	24420fac 	addiu	v0,v0,4012
800157ec:	3c038036 	lui	v1,0x8036
800157f0:	8c630034 	lw	v1,52(v1)
800157f4:	afc30018 	sw	v1,24(s8)
800157f8:	8fc30018 	lw	v1,24(s8)
800157fc:	04600009 	bltz	v1,80015824 <pmm_init+0xa4>
80015800:	00000000 	nop
80015804:	3c028002 	lui	v0,0x8002
80015808:	24442c68 	addiu	a0,v0,11368
8001580c:	240500d7 	li	a1,215
80015810:	3c028002 	lui	v0,0x8002
80015814:	24462c78 	addiu	a2,v0,11384
80015818:	8fc70018 	lw	a3,24(s8)
8001581c:	0c004544 	jal	80011510 <__panic>
80015820:	00000000 	nop
80015824:	8fc40018 	lw	a0,24(s8)
80015828:	3c038000 	lui	v1,0x8000
8001582c:	00831821 	addu	v1,a0,v1
80015830:	34630003 	ori	v1,v1,0x3
80015834:	ac430000 	sw	v1,0(v0)
80015838:	0c00555a 	jal	80015568 <enable_paging>
8001583c:	00000000 	nop
80015840:	3c028036 	lui	v0,0x8036
80015844:	8c42f550 	lw	v0,-2736(v0)
80015848:	00402021 	move	a0,v0
8001584c:	0c005426 	jal	80015098 <load_ksp>
80015850:	00000000 	nop
80015854:	0c005afb 	jal	80016bec <check_boot_pgdir>
80015858:	00000000 	nop
8001585c:	0c005c49 	jal	80017124 <print_pgdir>
80015860:	00000000 	nop
80015864:	0c00520e 	jal	80014838 <kmalloc_init>
80015868:	00000000 	nop
8001586c:	03c0e821 	move	sp,s8
80015870:	8fbf0024 	lw	ra,36(sp)
80015874:	8fbe0020 	lw	s8,32(sp)
80015878:	27bd0028 	addiu	sp,sp,40
8001587c:	03e00008 	jr	ra
80015880:	00000000 	nop

80015884 <get_pte>:
80015884:	27bdffc0 	addiu	sp,sp,-64
80015888:	afbf003c 	sw	ra,60(sp)
8001588c:	afbe0038 	sw	s8,56(sp)
80015890:	03a0f021 	move	s8,sp
80015894:	afc40040 	sw	a0,64(s8)
80015898:	afc50044 	sw	a1,68(s8)
8001589c:	afc60048 	sw	a2,72(s8)
800158a0:	8fc20044 	lw	v0,68(s8)
800158a4:	00021582 	srl	v0,v0,0x16
800158a8:	00021080 	sll	v0,v0,0x2
800158ac:	8fc30040 	lw	v1,64(s8)
800158b0:	00621021 	addu	v0,v1,v0
800158b4:	afc20018 	sw	v0,24(s8)
800158b8:	8fc20018 	lw	v0,24(s8)
800158bc:	8c420000 	lw	v0,0(v0)
800158c0:	30420001 	andi	v0,v0,0x1
800158c4:	14400032 	bnez	v0,80015990 <get_pte+0x10c>
800158c8:	00000000 	nop
800158cc:	8fc20048 	lw	v0,72(s8)
800158d0:	14400004 	bnez	v0,800158e4 <get_pte+0x60>
800158d4:	00000000 	nop
800158d8:	00001021 	move	v0,zero
800158dc:	08005687 	j	80015a1c <get_pte+0x198>
800158e0:	00000000 	nop
800158e4:	24040001 	li	a0,1
800158e8:	0c005462 	jal	80015188 <alloc_pages>
800158ec:	00000000 	nop
800158f0:	afc2001c 	sw	v0,28(s8)
800158f4:	8fc4001c 	lw	a0,28(s8)
800158f8:	24050001 	li	a1,1
800158fc:	0c0053f9 	jal	80014fe4 <set_page_ref>
80015900:	00000000 	nop
80015904:	8fc4001c 	lw	a0,28(s8)
80015908:	0c005370 	jal	80014dc0 <page2pa>
8001590c:	00000000 	nop
80015910:	34430007 	ori	v1,v0,0x7
80015914:	8fc20018 	lw	v0,24(s8)
80015918:	ac430000 	sw	v1,0(v0)
8001591c:	8fc4001c 	lw	a0,28(s8)
80015920:	0c005370 	jal	80014dc0 <page2pa>
80015924:	00000000 	nop
80015928:	afc20020 	sw	v0,32(s8)
8001592c:	8fc20020 	lw	v0,32(s8)
80015930:	00021302 	srl	v0,v0,0xc
80015934:	afc20024 	sw	v0,36(s8)
80015938:	3c028036 	lui	v0,0x8036
8001593c:	8c420030 	lw	v0,48(v0)
80015940:	8fc30024 	lw	v1,36(s8)
80015944:	0062102b 	sltu	v0,v1,v0
80015948:	14400009 	bnez	v0,80015970 <get_pte+0xec>
8001594c:	00000000 	nop
80015950:	3c028002 	lui	v0,0x8002
80015954:	24442c68 	addiu	a0,v0,11368
80015958:	2405011f 	li	a1,287
8001595c:	3c028002 	lui	v0,0x8002
80015960:	24462c00 	addiu	a2,v0,11264
80015964:	8fc70020 	lw	a3,32(s8)
80015968:	0c004544 	jal	80011510 <__panic>
8001596c:	00000000 	nop
80015970:	8fc30020 	lw	v1,32(s8)
80015974:	3c028000 	lui	v0,0x8000
80015978:	00621021 	addu	v0,v1,v0
8001597c:	00402021 	move	a0,v0
80015980:	00002821 	move	a1,zero
80015984:	24061000 	li	a2,4096
80015988:	0c00877d 	jal	80021df4 <memset>
8001598c:	00000000 	nop
80015990:	8fc20018 	lw	v0,24(s8)
80015994:	8c430000 	lw	v1,0(v0)
80015998:	2402f000 	li	v0,-4096
8001599c:	00621024 	and	v0,v1,v0
800159a0:	afc20028 	sw	v0,40(s8)
800159a4:	8fc20028 	lw	v0,40(s8)
800159a8:	00021302 	srl	v0,v0,0xc
800159ac:	afc2002c 	sw	v0,44(s8)
800159b0:	3c028036 	lui	v0,0x8036
800159b4:	8c420030 	lw	v0,48(v0)
800159b8:	8fc3002c 	lw	v1,44(s8)
800159bc:	0062102b 	sltu	v0,v1,v0
800159c0:	14400009 	bnez	v0,800159e8 <get_pte+0x164>
800159c4:	00000000 	nop
800159c8:	3c028002 	lui	v0,0x8002
800159cc:	24442c68 	addiu	a0,v0,11368
800159d0:	24050121 	li	a1,289
800159d4:	3c028002 	lui	v0,0x8002
800159d8:	24462c00 	addiu	a2,v0,11264
800159dc:	8fc70028 	lw	a3,40(s8)
800159e0:	0c004544 	jal	80011510 <__panic>
800159e4:	00000000 	nop
800159e8:	8fc30028 	lw	v1,40(s8)
800159ec:	3c028000 	lui	v0,0x8000
800159f0:	00621021 	addu	v0,v1,v0
800159f4:	00401821 	move	v1,v0
800159f8:	8fc40044 	lw	a0,68(s8)
800159fc:	3c02003f 	lui	v0,0x3f
80015a00:	3442f000 	ori	v0,v0,0xf000
80015a04:	00821024 	and	v0,a0,v0
80015a08:	00021302 	srl	v0,v0,0xc
80015a0c:	00021080 	sll	v0,v0,0x2
80015a10:	00621021 	addu	v0,v1,v0
80015a14:	afc20030 	sw	v0,48(s8)
80015a18:	8fc20030 	lw	v0,48(s8)
80015a1c:	03c0e821 	move	sp,s8
80015a20:	8fbf003c 	lw	ra,60(sp)
80015a24:	8fbe0038 	lw	s8,56(sp)
80015a28:	27bd0040 	addiu	sp,sp,64
80015a2c:	03e00008 	jr	ra
80015a30:	00000000 	nop

80015a34 <get_page>:
80015a34:	27bdffd8 	addiu	sp,sp,-40
80015a38:	afbf0024 	sw	ra,36(sp)
80015a3c:	afbe0020 	sw	s8,32(sp)
80015a40:	03a0f021 	move	s8,sp
80015a44:	afc40028 	sw	a0,40(s8)
80015a48:	afc5002c 	sw	a1,44(s8)
80015a4c:	afc60030 	sw	a2,48(s8)
80015a50:	8fc40028 	lw	a0,40(s8)
80015a54:	8fc5002c 	lw	a1,44(s8)
80015a58:	00003021 	move	a2,zero
80015a5c:	0c005621 	jal	80015884 <get_pte>
80015a60:	00000000 	nop
80015a64:	afc20018 	sw	v0,24(s8)
80015a68:	8fc20030 	lw	v0,48(s8)
80015a6c:	10400004 	beqz	v0,80015a80 <get_page+0x4c>
80015a70:	00000000 	nop
80015a74:	8fc20030 	lw	v0,48(s8)
80015a78:	8fc30018 	lw	v1,24(s8)
80015a7c:	ac430000 	sw	v1,0(v0)
80015a80:	8fc20018 	lw	v0,24(s8)
80015a84:	1040000d 	beqz	v0,80015abc <get_page+0x88>
80015a88:	00000000 	nop
80015a8c:	8fc20018 	lw	v0,24(s8)
80015a90:	8c420000 	lw	v0,0(v0)
80015a94:	30420001 	andi	v0,v0,0x1
80015a98:	10400008 	beqz	v0,80015abc <get_page+0x88>
80015a9c:	00000000 	nop
80015aa0:	8fc20018 	lw	v0,24(s8)
80015aa4:	8c420000 	lw	v0,0(v0)
80015aa8:	00402021 	move	a0,v0
80015aac:	0c00537f 	jal	80014dfc <pa2page>
80015ab0:	00000000 	nop
80015ab4:	080056b0 	j	80015ac0 <get_page+0x8c>
80015ab8:	00000000 	nop
80015abc:	00001021 	move	v0,zero
80015ac0:	03c0e821 	move	sp,s8
80015ac4:	8fbf0024 	lw	ra,36(sp)
80015ac8:	8fbe0020 	lw	s8,32(sp)
80015acc:	27bd0028 	addiu	sp,sp,40
80015ad0:	03e00008 	jr	ra
80015ad4:	00000000 	nop

80015ad8 <page_remove_pte>:
80015ad8:	27bdffd8 	addiu	sp,sp,-40
80015adc:	afbf0024 	sw	ra,36(sp)
80015ae0:	afbe0020 	sw	s8,32(sp)
80015ae4:	03a0f021 	move	s8,sp
80015ae8:	afc40028 	sw	a0,40(s8)
80015aec:	afc5002c 	sw	a1,44(s8)
80015af0:	afc60030 	sw	a2,48(s8)
80015af4:	8fc20030 	lw	v0,48(s8)
80015af8:	8c420000 	lw	v0,0(v0)
80015afc:	30420001 	andi	v0,v0,0x1
80015b00:	10400018 	beqz	v0,80015b64 <page_remove_pte+0x8c>
80015b04:	00000000 	nop
80015b08:	8fc20030 	lw	v0,48(s8)
80015b0c:	8c420000 	lw	v0,0(v0)
80015b10:	00402021 	move	a0,v0
80015b14:	0c0053c1 	jal	80014f04 <pte2page>
80015b18:	00000000 	nop
80015b1c:	afc20018 	sw	v0,24(s8)
80015b20:	8fc40018 	lw	a0,24(s8)
80015b24:	0c005416 	jal	80015058 <page_ref_dec>
80015b28:	00000000 	nop
80015b2c:	8fc20018 	lw	v0,24(s8)
80015b30:	8c420000 	lw	v0,0(v0)
80015b34:	14400005 	bnez	v0,80015b4c <page_remove_pte+0x74>
80015b38:	00000000 	nop
80015b3c:	8fc40018 	lw	a0,24(s8)
80015b40:	24050001 	li	a1,1
80015b44:	0c005492 	jal	80015248 <free_pages>
80015b48:	00000000 	nop
80015b4c:	8fc40028 	lw	a0,40(s8)
80015b50:	8fc5002c 	lw	a1,44(s8)
80015b54:	0c00644c 	jal	80019130 <tlb_invalidate>
80015b58:	00000000 	nop
80015b5c:	8fc20030 	lw	v0,48(s8)
80015b60:	ac400000 	sw	zero,0(v0)
80015b64:	03c0e821 	move	sp,s8
80015b68:	8fbf0024 	lw	ra,36(sp)
80015b6c:	8fbe0020 	lw	s8,32(sp)
80015b70:	27bd0028 	addiu	sp,sp,40
80015b74:	03e00008 	jr	ra
80015b78:	00000000 	nop

80015b7c <unmap_range>:
80015b7c:	27bdffd8 	addiu	sp,sp,-40
80015b80:	afbf0024 	sw	ra,36(sp)
80015b84:	afbe0020 	sw	s8,32(sp)
80015b88:	03a0f021 	move	s8,sp
80015b8c:	afc40028 	sw	a0,40(s8)
80015b90:	afc5002c 	sw	a1,44(s8)
80015b94:	afc60030 	sw	a2,48(s8)
80015b98:	8fc2002c 	lw	v0,44(s8)
80015b9c:	30420fff 	andi	v0,v0,0xfff
80015ba0:	14400005 	bnez	v0,80015bb8 <unmap_range+0x3c>
80015ba4:	00000000 	nop
80015ba8:	8fc20030 	lw	v0,48(s8)
80015bac:	30420fff 	andi	v0,v0,0xfff
80015bb0:	1040000a 	beqz	v0,80015bdc <unmap_range+0x60>
80015bb4:	00000000 	nop
80015bb8:	3c028002 	lui	v0,0x8002
80015bbc:	24442c68 	addiu	a0,v0,11368
80015bc0:	2405015d 	li	a1,349
80015bc4:	3c028002 	lui	v0,0x8002
80015bc8:	24462c9c 	addiu	a2,v0,11420
80015bcc:	3c028002 	lui	v0,0x8002
80015bd0:	24472cf8 	addiu	a3,v0,11512
80015bd4:	0c004544 	jal	80011510 <__panic>
80015bd8:	00000000 	nop
80015bdc:	8fc3002c 	lw	v1,44(s8)
80015be0:	3c020020 	lui	v0,0x20
80015be4:	0062102b 	sltu	v0,v1,v0
80015be8:	1440000c 	bnez	v0,80015c1c <unmap_range+0xa0>
80015bec:	00000000 	nop
80015bf0:	8fc3002c 	lw	v1,44(s8)
80015bf4:	8fc20030 	lw	v0,48(s8)
80015bf8:	0062102b 	sltu	v0,v1,v0
80015bfc:	10400007 	beqz	v0,80015c1c <unmap_range+0xa0>
80015c00:	00000000 	nop
80015c04:	8fc30030 	lw	v1,48(s8)
80015c08:	3c028000 	lui	v0,0x8000
80015c0c:	34420001 	ori	v0,v0,0x1
80015c10:	0062102b 	sltu	v0,v1,v0
80015c14:	1440000a 	bnez	v0,80015c40 <unmap_range+0xc4>
80015c18:	00000000 	nop
80015c1c:	3c028002 	lui	v0,0x8002
80015c20:	24442c68 	addiu	a0,v0,11368
80015c24:	2405015e 	li	a1,350
80015c28:	3c028002 	lui	v0,0x8002
80015c2c:	24462c9c 	addiu	a2,v0,11420
80015c30:	3c028002 	lui	v0,0x8002
80015c34:	24472d24 	addiu	a3,v0,11556
80015c38:	0c004544 	jal	80011510 <__panic>
80015c3c:	00000000 	nop
80015c40:	8fc40028 	lw	a0,40(s8)
80015c44:	8fc5002c 	lw	a1,44(s8)
80015c48:	00003021 	move	a2,zero
80015c4c:	0c005621 	jal	80015884 <get_pte>
80015c50:	00000000 	nop
80015c54:	afc20018 	sw	v0,24(s8)
80015c58:	8fc20018 	lw	v0,24(s8)
80015c5c:	1440000b 	bnez	v0,80015c8c <unmap_range+0x110>
80015c60:	00000000 	nop
80015c64:	8fc3002c 	lw	v1,44(s8)
80015c68:	3c020040 	lui	v0,0x40
80015c6c:	00621021 	addu	v0,v1,v0
80015c70:	afc2001c 	sw	v0,28(s8)
80015c74:	8fc3001c 	lw	v1,28(s8)
80015c78:	3c02ffc0 	lui	v0,0xffc0
80015c7c:	00621024 	and	v0,v1,v0
80015c80:	afc2002c 	sw	v0,44(s8)
80015c84:	0800572f 	j	80015cbc <unmap_range+0x140>
80015c88:	00000000 	nop
80015c8c:	8fc20018 	lw	v0,24(s8)
80015c90:	8c420000 	lw	v0,0(v0)
80015c94:	10400006 	beqz	v0,80015cb0 <unmap_range+0x134>
80015c98:	00000000 	nop
80015c9c:	8fc40028 	lw	a0,40(s8)
80015ca0:	8fc5002c 	lw	a1,44(s8)
80015ca4:	8fc60018 	lw	a2,24(s8)
80015ca8:	0c0056b6 	jal	80015ad8 <page_remove_pte>
80015cac:	00000000 	nop
80015cb0:	8fc2002c 	lw	v0,44(s8)
80015cb4:	24421000 	addiu	v0,v0,4096
80015cb8:	afc2002c 	sw	v0,44(s8)
80015cbc:	8fc2002c 	lw	v0,44(s8)
80015cc0:	10400006 	beqz	v0,80015cdc <unmap_range+0x160>
80015cc4:	00000000 	nop
80015cc8:	8fc3002c 	lw	v1,44(s8)
80015ccc:	8fc20030 	lw	v0,48(s8)
80015cd0:	0062102b 	sltu	v0,v1,v0
80015cd4:	1440ffda 	bnez	v0,80015c40 <unmap_range+0xc4>
80015cd8:	00000000 	nop
80015cdc:	03c0e821 	move	sp,s8
80015ce0:	8fbf0024 	lw	ra,36(sp)
80015ce4:	8fbe0020 	lw	s8,32(sp)
80015ce8:	27bd0028 	addiu	sp,sp,40
80015cec:	03e00008 	jr	ra
80015cf0:	00000000 	nop

80015cf4 <exit_range>:
80015cf4:	27bdffd8 	addiu	sp,sp,-40
80015cf8:	afbf0024 	sw	ra,36(sp)
80015cfc:	afbe0020 	sw	s8,32(sp)
80015d00:	03a0f021 	move	s8,sp
80015d04:	afc40028 	sw	a0,40(s8)
80015d08:	afc5002c 	sw	a1,44(s8)
80015d0c:	afc60030 	sw	a2,48(s8)
80015d10:	8fc2002c 	lw	v0,44(s8)
80015d14:	30420fff 	andi	v0,v0,0xfff
80015d18:	14400005 	bnez	v0,80015d30 <exit_range+0x3c>
80015d1c:	00000000 	nop
80015d20:	8fc20030 	lw	v0,48(s8)
80015d24:	30420fff 	andi	v0,v0,0xfff
80015d28:	1040000a 	beqz	v0,80015d54 <exit_range+0x60>
80015d2c:	00000000 	nop
80015d30:	3c028002 	lui	v0,0x8002
80015d34:	24442c68 	addiu	a0,v0,11368
80015d38:	2405016f 	li	a1,367
80015d3c:	3c028002 	lui	v0,0x8002
80015d40:	24462c9c 	addiu	a2,v0,11420
80015d44:	3c028002 	lui	v0,0x8002
80015d48:	24472cf8 	addiu	a3,v0,11512
80015d4c:	0c004544 	jal	80011510 <__panic>
80015d50:	00000000 	nop
80015d54:	8fc3002c 	lw	v1,44(s8)
80015d58:	3c020020 	lui	v0,0x20
80015d5c:	0062102b 	sltu	v0,v1,v0
80015d60:	1440000c 	bnez	v0,80015d94 <exit_range+0xa0>
80015d64:	00000000 	nop
80015d68:	8fc3002c 	lw	v1,44(s8)
80015d6c:	8fc20030 	lw	v0,48(s8)
80015d70:	0062102b 	sltu	v0,v1,v0
80015d74:	10400007 	beqz	v0,80015d94 <exit_range+0xa0>
80015d78:	00000000 	nop
80015d7c:	8fc30030 	lw	v1,48(s8)
80015d80:	3c028000 	lui	v0,0x8000
80015d84:	34420001 	ori	v0,v0,0x1
80015d88:	0062102b 	sltu	v0,v1,v0
80015d8c:	1440000a 	bnez	v0,80015db8 <exit_range+0xc4>
80015d90:	00000000 	nop
80015d94:	3c028002 	lui	v0,0x8002
80015d98:	24442c68 	addiu	a0,v0,11368
80015d9c:	24050170 	li	a1,368
80015da0:	3c028002 	lui	v0,0x8002
80015da4:	24462c9c 	addiu	a2,v0,11420
80015da8:	3c028002 	lui	v0,0x8002
80015dac:	24472d24 	addiu	a3,v0,11556
80015db0:	0c004544 	jal	80011510 <__panic>
80015db4:	00000000 	nop
80015db8:	8fc2002c 	lw	v0,44(s8)
80015dbc:	afc20018 	sw	v0,24(s8)
80015dc0:	8fc30018 	lw	v1,24(s8)
80015dc4:	3c02ffc0 	lui	v0,0xffc0
80015dc8:	00621024 	and	v0,v1,v0
80015dcc:	afc2002c 	sw	v0,44(s8)
80015dd0:	8fc2002c 	lw	v0,44(s8)
80015dd4:	00021582 	srl	v0,v0,0x16
80015dd8:	afc2001c 	sw	v0,28(s8)
80015ddc:	8fc2001c 	lw	v0,28(s8)
80015de0:	00021080 	sll	v0,v0,0x2
80015de4:	8fc30028 	lw	v1,40(s8)
80015de8:	00621021 	addu	v0,v1,v0
80015dec:	8c420000 	lw	v0,0(v0)
80015df0:	30420001 	andi	v0,v0,0x1
80015df4:	10400012 	beqz	v0,80015e40 <exit_range+0x14c>
80015df8:	00000000 	nop
80015dfc:	8fc2001c 	lw	v0,28(s8)
80015e00:	00021080 	sll	v0,v0,0x2
80015e04:	8fc30028 	lw	v1,40(s8)
80015e08:	00621021 	addu	v0,v1,v0
80015e0c:	8c420000 	lw	v0,0(v0)
80015e10:	00402021 	move	a0,v0
80015e14:	0c0053dd 	jal	80014f74 <pde2page>
80015e18:	00000000 	nop
80015e1c:	00402021 	move	a0,v0
80015e20:	24050001 	li	a1,1
80015e24:	0c005492 	jal	80015248 <free_pages>
80015e28:	00000000 	nop
80015e2c:	8fc2001c 	lw	v0,28(s8)
80015e30:	00021080 	sll	v0,v0,0x2
80015e34:	8fc30028 	lw	v1,40(s8)
80015e38:	00621021 	addu	v0,v1,v0
80015e3c:	ac400000 	sw	zero,0(v0)
80015e40:	8fc3002c 	lw	v1,44(s8)
80015e44:	3c020040 	lui	v0,0x40
80015e48:	00621021 	addu	v0,v1,v0
80015e4c:	afc2002c 	sw	v0,44(s8)
80015e50:	8fc2002c 	lw	v0,44(s8)
80015e54:	10400006 	beqz	v0,80015e70 <exit_range+0x17c>
80015e58:	00000000 	nop
80015e5c:	8fc3002c 	lw	v1,44(s8)
80015e60:	8fc20030 	lw	v0,48(s8)
80015e64:	0062102b 	sltu	v0,v1,v0
80015e68:	1440ffd9 	bnez	v0,80015dd0 <exit_range+0xdc>
80015e6c:	00000000 	nop
80015e70:	03c0e821 	move	sp,s8
80015e74:	8fbf0024 	lw	ra,36(sp)
80015e78:	8fbe0020 	lw	s8,32(sp)
80015e7c:	27bd0028 	addiu	sp,sp,40
80015e80:	03e00008 	jr	ra
80015e84:	00000000 	nop

80015e88 <copy_range>:
80015e88:	27bdffb8 	addiu	sp,sp,-72
80015e8c:	afbf0044 	sw	ra,68(sp)
80015e90:	afbe0040 	sw	s8,64(sp)
80015e94:	afb0003c 	sw	s0,60(sp)
80015e98:	03a0f021 	move	s8,sp
80015e9c:	afc40048 	sw	a0,72(s8)
80015ea0:	afc5004c 	sw	a1,76(s8)
80015ea4:	afc60050 	sw	a2,80(s8)
80015ea8:	afc70054 	sw	a3,84(s8)
80015eac:	8fc20050 	lw	v0,80(s8)
80015eb0:	30420fff 	andi	v0,v0,0xfff
80015eb4:	14400005 	bnez	v0,80015ecc <copy_range+0x44>
80015eb8:	00000000 	nop
80015ebc:	8fc20054 	lw	v0,84(s8)
80015ec0:	30420fff 	andi	v0,v0,0xfff
80015ec4:	1040000a 	beqz	v0,80015ef0 <copy_range+0x68>
80015ec8:	00000000 	nop
80015ecc:	3c028002 	lui	v0,0x8002
80015ed0:	24442c68 	addiu	a0,v0,11368
80015ed4:	24050186 	li	a1,390
80015ed8:	3c028002 	lui	v0,0x8002
80015edc:	24462c9c 	addiu	a2,v0,11420
80015ee0:	3c028002 	lui	v0,0x8002
80015ee4:	24472cf8 	addiu	a3,v0,11512
80015ee8:	0c004544 	jal	80011510 <__panic>
80015eec:	00000000 	nop
80015ef0:	8fc30050 	lw	v1,80(s8)
80015ef4:	3c020020 	lui	v0,0x20
80015ef8:	0062102b 	sltu	v0,v1,v0
80015efc:	1440000c 	bnez	v0,80015f30 <copy_range+0xa8>
80015f00:	00000000 	nop
80015f04:	8fc30050 	lw	v1,80(s8)
80015f08:	8fc20054 	lw	v0,84(s8)
80015f0c:	0062102b 	sltu	v0,v1,v0
80015f10:	10400007 	beqz	v0,80015f30 <copy_range+0xa8>
80015f14:	00000000 	nop
80015f18:	8fc30054 	lw	v1,84(s8)
80015f1c:	3c028000 	lui	v0,0x8000
80015f20:	34420001 	ori	v0,v0,0x1
80015f24:	0062102b 	sltu	v0,v1,v0
80015f28:	1440000a 	bnez	v0,80015f54 <copy_range+0xcc>
80015f2c:	00000000 	nop
80015f30:	3c028002 	lui	v0,0x8002
80015f34:	24442c68 	addiu	a0,v0,11368
80015f38:	24050187 	li	a1,391
80015f3c:	3c028002 	lui	v0,0x8002
80015f40:	24462c9c 	addiu	a2,v0,11420
80015f44:	3c028002 	lui	v0,0x8002
80015f48:	24472d24 	addiu	a3,v0,11556
80015f4c:	0c004544 	jal	80011510 <__panic>
80015f50:	00000000 	nop
80015f54:	8fc4004c 	lw	a0,76(s8)
80015f58:	8fc50050 	lw	a1,80(s8)
80015f5c:	00003021 	move	a2,zero
80015f60:	0c005621 	jal	80015884 <get_pte>
80015f64:	00000000 	nop
80015f68:	afc20018 	sw	v0,24(s8)
80015f6c:	8fc20018 	lw	v0,24(s8)
80015f70:	1440000b 	bnez	v0,80015fa0 <copy_range+0x118>
80015f74:	00000000 	nop
80015f78:	8fc30050 	lw	v1,80(s8)
80015f7c:	3c020040 	lui	v0,0x40
80015f80:	00621021 	addu	v0,v1,v0
80015f84:	afc2001c 	sw	v0,28(s8)
80015f88:	8fc3001c 	lw	v1,28(s8)
80015f8c:	3c02ffc0 	lui	v0,0xffc0
80015f90:	00621024 	and	v0,v1,v0
80015f94:	afc20050 	sw	v0,80(s8)
80015f98:	08005841 	j	80016104 <copy_range+0x27c>
80015f9c:	00000000 	nop
80015fa0:	8fc20018 	lw	v0,24(s8)
80015fa4:	8c420000 	lw	v0,0(v0)
80015fa8:	30420001 	andi	v0,v0,0x1
80015fac:	10400052 	beqz	v0,800160f8 <copy_range+0x270>
80015fb0:	00000000 	nop
80015fb4:	8fc40048 	lw	a0,72(s8)
80015fb8:	8fc50050 	lw	a1,80(s8)
80015fbc:	24060001 	li	a2,1
80015fc0:	0c005621 	jal	80015884 <get_pte>
80015fc4:	00000000 	nop
80015fc8:	afc20020 	sw	v0,32(s8)
80015fcc:	8fc20020 	lw	v0,32(s8)
80015fd0:	14400004 	bnez	v0,80015fe4 <copy_range+0x15c>
80015fd4:	00000000 	nop
80015fd8:	2402fffc 	li	v0,-4
80015fdc:	0800584a 	j	80016128 <copy_range+0x2a0>
80015fe0:	00000000 	nop
80015fe4:	8fc20018 	lw	v0,24(s8)
80015fe8:	8c420000 	lw	v0,0(v0)
80015fec:	30420007 	andi	v0,v0,0x7
80015ff0:	afc20024 	sw	v0,36(s8)
80015ff4:	8fc20018 	lw	v0,24(s8)
80015ff8:	8c420000 	lw	v0,0(v0)
80015ffc:	00402021 	move	a0,v0
80016000:	0c0053c1 	jal	80014f04 <pte2page>
80016004:	00000000 	nop
80016008:	afc20028 	sw	v0,40(s8)
8001600c:	24040001 	li	a0,1
80016010:	0c005462 	jal	80015188 <alloc_pages>
80016014:	00000000 	nop
80016018:	afc2002c 	sw	v0,44(s8)
8001601c:	8fc20028 	lw	v0,40(s8)
80016020:	1440000a 	bnez	v0,8001604c <copy_range+0x1c4>
80016024:	00000000 	nop
80016028:	3c028002 	lui	v0,0x8002
8001602c:	24442c68 	addiu	a0,v0,11368
80016030:	2405019a 	li	a1,410
80016034:	3c028002 	lui	v0,0x8002
80016038:	24462c9c 	addiu	a2,v0,11420
8001603c:	3c028002 	lui	v0,0x8002
80016040:	24472d3c 	addiu	a3,v0,11580
80016044:	0c004544 	jal	80011510 <__panic>
80016048:	00000000 	nop
8001604c:	8fc2002c 	lw	v0,44(s8)
80016050:	1440000a 	bnez	v0,8001607c <copy_range+0x1f4>
80016054:	00000000 	nop
80016058:	3c028002 	lui	v0,0x8002
8001605c:	24442c68 	addiu	a0,v0,11368
80016060:	2405019b 	li	a1,411
80016064:	3c028002 	lui	v0,0x8002
80016068:	24462c9c 	addiu	a2,v0,11420
8001606c:	3c028002 	lui	v0,0x8002
80016070:	24472d48 	addiu	a3,v0,11592
80016074:	0c004544 	jal	80011510 <__panic>
80016078:	00000000 	nop
8001607c:	afc00030 	sw	zero,48(s8)
80016080:	8fc4002c 	lw	a0,44(s8)
80016084:	0c00539e 	jal	80014e78 <page2kva>
80016088:	00000000 	nop
8001608c:	00408021 	move	s0,v0
80016090:	8fc40028 	lw	a0,40(s8)
80016094:	0c00539e 	jal	80014e78 <page2kva>
80016098:	00000000 	nop
8001609c:	02002021 	move	a0,s0
800160a0:	00402821 	move	a1,v0
800160a4:	24061000 	li	a2,4096
800160a8:	0c0087de 	jal	80021f78 <memcpy>
800160ac:	00000000 	nop
800160b0:	8fc40048 	lw	a0,72(s8)
800160b4:	8fc5002c 	lw	a1,44(s8)
800160b8:	8fc60050 	lw	a2,80(s8)
800160bc:	8fc70024 	lw	a3,36(s8)
800160c0:	0c00586b 	jal	800161ac <page_insert>
800160c4:	00000000 	nop
800160c8:	8fc20030 	lw	v0,48(s8)
800160cc:	1040000a 	beqz	v0,800160f8 <copy_range+0x270>
800160d0:	00000000 	nop
800160d4:	3c028002 	lui	v0,0x8002
800160d8:	24442c68 	addiu	a0,v0,11368
800160dc:	240501ad 	li	a1,429
800160e0:	3c028002 	lui	v0,0x8002
800160e4:	24462c9c 	addiu	a2,v0,11420
800160e8:	3c028002 	lui	v0,0x8002
800160ec:	24472d54 	addiu	a3,v0,11604
800160f0:	0c004544 	jal	80011510 <__panic>
800160f4:	00000000 	nop
800160f8:	8fc20050 	lw	v0,80(s8)
800160fc:	24421000 	addiu	v0,v0,4096
80016100:	afc20050 	sw	v0,80(s8)
80016104:	8fc20050 	lw	v0,80(s8)
80016108:	10400006 	beqz	v0,80016124 <copy_range+0x29c>
8001610c:	00000000 	nop
80016110:	8fc30050 	lw	v1,80(s8)
80016114:	8fc20054 	lw	v0,84(s8)
80016118:	0062102b 	sltu	v0,v1,v0
8001611c:	1440ff8d 	bnez	v0,80015f54 <copy_range+0xcc>
80016120:	00000000 	nop
80016124:	00001021 	move	v0,zero
80016128:	03c0e821 	move	sp,s8
8001612c:	8fbf0044 	lw	ra,68(sp)
80016130:	8fbe0040 	lw	s8,64(sp)
80016134:	8fb0003c 	lw	s0,60(sp)
80016138:	27bd0048 	addiu	sp,sp,72
8001613c:	03e00008 	jr	ra
80016140:	00000000 	nop

80016144 <page_remove>:
80016144:	27bdffd8 	addiu	sp,sp,-40
80016148:	afbf0024 	sw	ra,36(sp)
8001614c:	afbe0020 	sw	s8,32(sp)
80016150:	03a0f021 	move	s8,sp
80016154:	afc40028 	sw	a0,40(s8)
80016158:	afc5002c 	sw	a1,44(s8)
8001615c:	8fc40028 	lw	a0,40(s8)
80016160:	8fc5002c 	lw	a1,44(s8)
80016164:	00003021 	move	a2,zero
80016168:	0c005621 	jal	80015884 <get_pte>
8001616c:	00000000 	nop
80016170:	afc20018 	sw	v0,24(s8)
80016174:	8fc20018 	lw	v0,24(s8)
80016178:	10400006 	beqz	v0,80016194 <page_remove+0x50>
8001617c:	00000000 	nop
80016180:	8fc40028 	lw	a0,40(s8)
80016184:	8fc5002c 	lw	a1,44(s8)
80016188:	8fc60018 	lw	a2,24(s8)
8001618c:	0c0056b6 	jal	80015ad8 <page_remove_pte>
80016190:	00000000 	nop
80016194:	03c0e821 	move	sp,s8
80016198:	8fbf0024 	lw	ra,36(sp)
8001619c:	8fbe0020 	lw	s8,32(sp)
800161a0:	27bd0028 	addiu	sp,sp,40
800161a4:	03e00008 	jr	ra
800161a8:	00000000 	nop

800161ac <page_insert>:
800161ac:	27bdffd8 	addiu	sp,sp,-40
800161b0:	afbf0024 	sw	ra,36(sp)
800161b4:	afbe0020 	sw	s8,32(sp)
800161b8:	03a0f021 	move	s8,sp
800161bc:	afc40028 	sw	a0,40(s8)
800161c0:	afc5002c 	sw	a1,44(s8)
800161c4:	afc60030 	sw	a2,48(s8)
800161c8:	afc70034 	sw	a3,52(s8)
800161cc:	8fc40028 	lw	a0,40(s8)
800161d0:	8fc50030 	lw	a1,48(s8)
800161d4:	24060001 	li	a2,1
800161d8:	0c005621 	jal	80015884 <get_pte>
800161dc:	00000000 	nop
800161e0:	afc20018 	sw	v0,24(s8)
800161e4:	8fc20018 	lw	v0,24(s8)
800161e8:	14400004 	bnez	v0,800161fc <page_insert+0x50>
800161ec:	00000000 	nop
800161f0:	2402fffc 	li	v0,-4
800161f4:	080058a9 	j	800162a4 <page_insert+0xf8>
800161f8:	00000000 	nop
800161fc:	8fc4002c 	lw	a0,44(s8)
80016200:	0c005406 	jal	80015018 <page_ref_inc>
80016204:	00000000 	nop
80016208:	8fc20018 	lw	v0,24(s8)
8001620c:	8c420000 	lw	v0,0(v0)
80016210:	30420001 	andi	v0,v0,0x1
80016214:	10400015 	beqz	v0,8001626c <page_insert+0xc0>
80016218:	00000000 	nop
8001621c:	8fc20018 	lw	v0,24(s8)
80016220:	8c420000 	lw	v0,0(v0)
80016224:	00402021 	move	a0,v0
80016228:	0c0053c1 	jal	80014f04 <pte2page>
8001622c:	00000000 	nop
80016230:	afc2001c 	sw	v0,28(s8)
80016234:	8fc3001c 	lw	v1,28(s8)
80016238:	8fc2002c 	lw	v0,44(s8)
8001623c:	14620006 	bne	v1,v0,80016258 <page_insert+0xac>
80016240:	00000000 	nop
80016244:	8fc4002c 	lw	a0,44(s8)
80016248:	0c005416 	jal	80015058 <page_ref_dec>
8001624c:	00000000 	nop
80016250:	0800589b 	j	8001626c <page_insert+0xc0>
80016254:	00000000 	nop
80016258:	8fc40028 	lw	a0,40(s8)
8001625c:	8fc50030 	lw	a1,48(s8)
80016260:	8fc60018 	lw	a2,24(s8)
80016264:	0c0056b6 	jal	80015ad8 <page_remove_pte>
80016268:	00000000 	nop
8001626c:	8fc40028 	lw	a0,40(s8)
80016270:	8fc50030 	lw	a1,48(s8)
80016274:	0c00644c 	jal	80019130 <tlb_invalidate>
80016278:	00000000 	nop
8001627c:	8fc4002c 	lw	a0,44(s8)
80016280:	0c005370 	jal	80014dc0 <page2pa>
80016284:	00000000 	nop
80016288:	00401821 	move	v1,v0
8001628c:	8fc20034 	lw	v0,52(s8)
80016290:	00621025 	or	v0,v1,v0
80016294:	34430001 	ori	v1,v0,0x1
80016298:	8fc20018 	lw	v0,24(s8)
8001629c:	ac430000 	sw	v1,0(v0)
800162a0:	00001021 	move	v0,zero
800162a4:	03c0e821 	move	sp,s8
800162a8:	8fbf0024 	lw	ra,36(sp)
800162ac:	8fbe0020 	lw	s8,32(sp)
800162b0:	27bd0028 	addiu	sp,sp,40
800162b4:	03e00008 	jr	ra
800162b8:	00000000 	nop

800162bc <pgdir_alloc_page>:
800162bc:	27bdffd8 	addiu	sp,sp,-40
800162c0:	afbf0024 	sw	ra,36(sp)
800162c4:	afbe0020 	sw	s8,32(sp)
800162c8:	03a0f021 	move	s8,sp
800162cc:	afc40028 	sw	a0,40(s8)
800162d0:	afc5002c 	sw	a1,44(s8)
800162d4:	afc60030 	sw	a2,48(s8)
800162d8:	24040001 	li	a0,1
800162dc:	0c005462 	jal	80015188 <alloc_pages>
800162e0:	00000000 	nop
800162e4:	afc20018 	sw	v0,24(s8)
800162e8:	8fc20018 	lw	v0,24(s8)
800162ec:	10400033 	beqz	v0,800163bc <pgdir_alloc_page+0x100>
800162f0:	00000000 	nop
800162f4:	8fc40028 	lw	a0,40(s8)
800162f8:	8fc50018 	lw	a1,24(s8)
800162fc:	8fc6002c 	lw	a2,44(s8)
80016300:	8fc70030 	lw	a3,48(s8)
80016304:	0c00586b 	jal	800161ac <page_insert>
80016308:	00000000 	nop
8001630c:	10400008 	beqz	v0,80016330 <pgdir_alloc_page+0x74>
80016310:	00000000 	nop
80016314:	8fc40018 	lw	a0,24(s8)
80016318:	24050001 	li	a1,1
8001631c:	0c005492 	jal	80015248 <free_pages>
80016320:	00000000 	nop
80016324:	00001021 	move	v0,zero
80016328:	080058f0 	j	800163c0 <pgdir_alloc_page+0x104>
8001632c:	00000000 	nop
80016330:	3c028036 	lui	v0,0x8036
80016334:	8c420040 	lw	v0,64(v0)
80016338:	10400020 	beqz	v0,800163bc <pgdir_alloc_page+0x100>
8001633c:	00000000 	nop
80016340:	3c028036 	lui	v0,0x8036
80016344:	8c4222bc 	lw	v0,8892(v0)
80016348:	1040001c 	beqz	v0,800163bc <pgdir_alloc_page+0x100>
8001634c:	00000000 	nop
80016350:	3c028036 	lui	v0,0x8036
80016354:	8c4222bc 	lw	v0,8892(v0)
80016358:	00402021 	move	a0,v0
8001635c:	8fc5002c 	lw	a1,44(s8)
80016360:	8fc60018 	lw	a2,24(s8)
80016364:	00003821 	move	a3,zero
80016368:	0c005d82 	jal	80017608 <swap_map_swappable>
8001636c:	00000000 	nop
80016370:	8fc20018 	lw	v0,24(s8)
80016374:	8fc3002c 	lw	v1,44(s8)
80016378:	ac43001c 	sw	v1,28(v0)
8001637c:	8fc40018 	lw	a0,24(s8)
80016380:	0c0053ee 	jal	80014fb8 <page_ref>
80016384:	00000000 	nop
80016388:	00401821 	move	v1,v0
8001638c:	24020001 	li	v0,1
80016390:	1062000a 	beq	v1,v0,800163bc <pgdir_alloc_page+0x100>
80016394:	00000000 	nop
80016398:	3c028002 	lui	v0,0x8002
8001639c:	24442c68 	addiu	a0,v0,11368
800163a0:	240501e9 	li	a1,489
800163a4:	3c028002 	lui	v0,0x8002
800163a8:	24462c9c 	addiu	a2,v0,11420
800163ac:	3c028002 	lui	v0,0x8002
800163b0:	24472d60 	addiu	a3,v0,11616
800163b4:	0c004544 	jal	80011510 <__panic>
800163b8:	00000000 	nop
800163bc:	8fc20018 	lw	v0,24(s8)
800163c0:	03c0e821 	move	sp,s8
800163c4:	8fbf0024 	lw	ra,36(sp)
800163c8:	8fbe0020 	lw	s8,32(sp)
800163cc:	27bd0028 	addiu	sp,sp,40
800163d0:	03e00008 	jr	ra
800163d4:	00000000 	nop

800163d8 <check_alloc_page>:
800163d8:	27bdffe0 	addiu	sp,sp,-32
800163dc:	afbf001c 	sw	ra,28(sp)
800163e0:	afbe0018 	sw	s8,24(sp)
800163e4:	03a0f021 	move	s8,sp
800163e8:	3c028036 	lui	v0,0x8036
800163ec:	8c4222a4 	lw	v0,8868(v0)
800163f0:	8c420018 	lw	v0,24(v0)
800163f4:	0040c821 	move	t9,v0
800163f8:	0320f809 	jalr	t9
800163fc:	00000000 	nop
80016400:	3c028002 	lui	v0,0x8002
80016404:	24442d74 	addiu	a0,v0,11636
80016408:	0c00413e 	jal	800104f8 <cprintf>
8001640c:	00000000 	nop
80016410:	03c0e821 	move	sp,s8
80016414:	8fbf001c 	lw	ra,28(sp)
80016418:	8fbe0018 	lw	s8,24(sp)
8001641c:	27bd0020 	addiu	sp,sp,32
80016420:	03e00008 	jr	ra
80016424:	00000000 	nop

80016428 <check_pgdir>:
80016428:	27bdffc8 	addiu	sp,sp,-56
8001642c:	afbf0034 	sw	ra,52(sp)
80016430:	afbe0030 	sw	s8,48(sp)
80016434:	03a0f021 	move	s8,sp
80016438:	3c028036 	lui	v0,0x8036
8001643c:	8c420030 	lw	v0,48(v0)
80016440:	2c420801 	sltiu	v0,v0,2049
80016444:	1440000a 	bnez	v0,80016470 <check_pgdir+0x48>
80016448:	00000000 	nop
8001644c:	3c028002 	lui	v0,0x8002
80016450:	24442c68 	addiu	a0,v0,11368
80016454:	24050202 	li	a1,514
80016458:	3c028002 	lui	v0,0x8002
8001645c:	24462c9c 	addiu	a2,v0,11420
80016460:	3c028002 	lui	v0,0x8002
80016464:	24472d94 	addiu	a3,v0,11668
80016468:	0c004544 	jal	80011510 <__panic>
8001646c:	00000000 	nop
80016470:	3c028036 	lui	v0,0x8036
80016474:	8c420034 	lw	v0,52(v0)
80016478:	10400006 	beqz	v0,80016494 <check_pgdir+0x6c>
8001647c:	00000000 	nop
80016480:	3c028036 	lui	v0,0x8036
80016484:	8c420034 	lw	v0,52(v0)
80016488:	30420fff 	andi	v0,v0,0xfff
8001648c:	1040000a 	beqz	v0,800164b8 <check_pgdir+0x90>
80016490:	00000000 	nop
80016494:	3c028002 	lui	v0,0x8002
80016498:	24442c68 	addiu	a0,v0,11368
8001649c:	24050203 	li	a1,515
800164a0:	3c028002 	lui	v0,0x8002
800164a4:	24462c9c 	addiu	a2,v0,11420
800164a8:	3c028002 	lui	v0,0x8002
800164ac:	24472db0 	addiu	a3,v0,11696
800164b0:	0c004544 	jal	80011510 <__panic>
800164b4:	00000000 	nop
800164b8:	3c028036 	lui	v0,0x8036
800164bc:	8c420034 	lw	v0,52(v0)
800164c0:	00402021 	move	a0,v0
800164c4:	00002821 	move	a1,zero
800164c8:	00003021 	move	a2,zero
800164cc:	0c00568d 	jal	80015a34 <get_page>
800164d0:	00000000 	nop
800164d4:	1040000a 	beqz	v0,80016500 <check_pgdir+0xd8>
800164d8:	00000000 	nop
800164dc:	3c028002 	lui	v0,0x8002
800164e0:	24442c68 	addiu	a0,v0,11368
800164e4:	24050204 	li	a1,516
800164e8:	3c028002 	lui	v0,0x8002
800164ec:	24462c9c 	addiu	a2,v0,11420
800164f0:	3c028002 	lui	v0,0x8002
800164f4:	24472de8 	addiu	a3,v0,11752
800164f8:	0c004544 	jal	80011510 <__panic>
800164fc:	00000000 	nop
80016500:	24040001 	li	a0,1
80016504:	0c005462 	jal	80015188 <alloc_pages>
80016508:	00000000 	nop
8001650c:	afc20018 	sw	v0,24(s8)
80016510:	3c028036 	lui	v0,0x8036
80016514:	8c420034 	lw	v0,52(v0)
80016518:	00402021 	move	a0,v0
8001651c:	8fc50018 	lw	a1,24(s8)
80016520:	00003021 	move	a2,zero
80016524:	00003821 	move	a3,zero
80016528:	0c00586b 	jal	800161ac <page_insert>
8001652c:	00000000 	nop
80016530:	1040000a 	beqz	v0,8001655c <check_pgdir+0x134>
80016534:	00000000 	nop
80016538:	3c028002 	lui	v0,0x8002
8001653c:	24442c68 	addiu	a0,v0,11368
80016540:	24050208 	li	a1,520
80016544:	3c028002 	lui	v0,0x8002
80016548:	24462c9c 	addiu	a2,v0,11420
8001654c:	3c028002 	lui	v0,0x8002
80016550:	24472e10 	addiu	a3,v0,11792
80016554:	0c004544 	jal	80011510 <__panic>
80016558:	00000000 	nop
8001655c:	3c028036 	lui	v0,0x8036
80016560:	8c420034 	lw	v0,52(v0)
80016564:	00402021 	move	a0,v0
80016568:	00002821 	move	a1,zero
8001656c:	00003021 	move	a2,zero
80016570:	0c005621 	jal	80015884 <get_pte>
80016574:	00000000 	nop
80016578:	afc2001c 	sw	v0,28(s8)
8001657c:	8fc2001c 	lw	v0,28(s8)
80016580:	1440000a 	bnez	v0,800165ac <check_pgdir+0x184>
80016584:	00000000 	nop
80016588:	3c028002 	lui	v0,0x8002
8001658c:	24442c68 	addiu	a0,v0,11368
80016590:	2405020b 	li	a1,523
80016594:	3c028002 	lui	v0,0x8002
80016598:	24462c9c 	addiu	a2,v0,11420
8001659c:	3c028002 	lui	v0,0x8002
800165a0:	24472e3c 	addiu	a3,v0,11836
800165a4:	0c004544 	jal	80011510 <__panic>
800165a8:	00000000 	nop
800165ac:	8fc2001c 	lw	v0,28(s8)
800165b0:	8c420000 	lw	v0,0(v0)
800165b4:	00402021 	move	a0,v0
800165b8:	0c00537f 	jal	80014dfc <pa2page>
800165bc:	00000000 	nop
800165c0:	00401821 	move	v1,v0
800165c4:	8fc20018 	lw	v0,24(s8)
800165c8:	1062000a 	beq	v1,v0,800165f4 <check_pgdir+0x1cc>
800165cc:	00000000 	nop
800165d0:	3c028002 	lui	v0,0x8002
800165d4:	24442c68 	addiu	a0,v0,11368
800165d8:	2405020c 	li	a1,524
800165dc:	3c028002 	lui	v0,0x8002
800165e0:	24462c9c 	addiu	a2,v0,11420
800165e4:	3c028002 	lui	v0,0x8002
800165e8:	24472e6c 	addiu	a3,v0,11884
800165ec:	0c004544 	jal	80011510 <__panic>
800165f0:	00000000 	nop
800165f4:	8fc40018 	lw	a0,24(s8)
800165f8:	0c0053ee 	jal	80014fb8 <page_ref>
800165fc:	00000000 	nop
80016600:	00401821 	move	v1,v0
80016604:	24020001 	li	v0,1
80016608:	1062000a 	beq	v1,v0,80016634 <check_pgdir+0x20c>
8001660c:	00000000 	nop
80016610:	3c028002 	lui	v0,0x8002
80016614:	24442c68 	addiu	a0,v0,11368
80016618:	2405020d 	li	a1,525
8001661c:	3c028002 	lui	v0,0x8002
80016620:	24462c9c 	addiu	a2,v0,11420
80016624:	3c028002 	lui	v0,0x8002
80016628:	24472e84 	addiu	a3,v0,11908
8001662c:	0c004544 	jal	80011510 <__panic>
80016630:	00000000 	nop
80016634:	3c028036 	lui	v0,0x8036
80016638:	8c420034 	lw	v0,52(v0)
8001663c:	8c430000 	lw	v1,0(v0)
80016640:	2402f000 	li	v0,-4096
80016644:	00621024 	and	v0,v1,v0
80016648:	afc20020 	sw	v0,32(s8)
8001664c:	8fc20020 	lw	v0,32(s8)
80016650:	00021302 	srl	v0,v0,0xc
80016654:	afc20024 	sw	v0,36(s8)
80016658:	3c028036 	lui	v0,0x8036
8001665c:	8c420030 	lw	v0,48(v0)
80016660:	8fc30024 	lw	v1,36(s8)
80016664:	0062102b 	sltu	v0,v1,v0
80016668:	14400009 	bnez	v0,80016690 <check_pgdir+0x268>
8001666c:	00000000 	nop
80016670:	3c028002 	lui	v0,0x8002
80016674:	24442c68 	addiu	a0,v0,11368
80016678:	2405020f 	li	a1,527
8001667c:	3c028002 	lui	v0,0x8002
80016680:	24462c00 	addiu	a2,v0,11264
80016684:	8fc70020 	lw	a3,32(s8)
80016688:	0c004544 	jal	80011510 <__panic>
8001668c:	00000000 	nop
80016690:	8fc30020 	lw	v1,32(s8)
80016694:	3c028000 	lui	v0,0x8000
80016698:	00621021 	addu	v0,v1,v0
8001669c:	24420004 	addiu	v0,v0,4
800166a0:	afc2001c 	sw	v0,28(s8)
800166a4:	3c028036 	lui	v0,0x8036
800166a8:	8c420034 	lw	v0,52(v0)
800166ac:	00402021 	move	a0,v0
800166b0:	24051000 	li	a1,4096
800166b4:	00003021 	move	a2,zero
800166b8:	0c005621 	jal	80015884 <get_pte>
800166bc:	00000000 	nop
800166c0:	00401821 	move	v1,v0
800166c4:	8fc2001c 	lw	v0,28(s8)
800166c8:	1062000a 	beq	v1,v0,800166f4 <check_pgdir+0x2cc>
800166cc:	00000000 	nop
800166d0:	3c028002 	lui	v0,0x8002
800166d4:	24442c68 	addiu	a0,v0,11368
800166d8:	24050210 	li	a1,528
800166dc:	3c028002 	lui	v0,0x8002
800166e0:	24462c9c 	addiu	a2,v0,11420
800166e4:	3c028002 	lui	v0,0x8002
800166e8:	24472e98 	addiu	a3,v0,11928
800166ec:	0c004544 	jal	80011510 <__panic>
800166f0:	00000000 	nop
800166f4:	24040001 	li	a0,1
800166f8:	0c005462 	jal	80015188 <alloc_pages>
800166fc:	00000000 	nop
80016700:	afc20028 	sw	v0,40(s8)
80016704:	3c028036 	lui	v0,0x8036
80016708:	8c420034 	lw	v0,52(v0)
8001670c:	00402021 	move	a0,v0
80016710:	8fc50028 	lw	a1,40(s8)
80016714:	24061000 	li	a2,4096
80016718:	24070006 	li	a3,6
8001671c:	0c00586b 	jal	800161ac <page_insert>
80016720:	00000000 	nop
80016724:	1040000a 	beqz	v0,80016750 <check_pgdir+0x328>
80016728:	00000000 	nop
8001672c:	3c028002 	lui	v0,0x8002
80016730:	24442c68 	addiu	a0,v0,11368
80016734:	24050213 	li	a1,531
80016738:	3c028002 	lui	v0,0x8002
8001673c:	24462c9c 	addiu	a2,v0,11420
80016740:	3c028002 	lui	v0,0x8002
80016744:	24472ec0 	addiu	a3,v0,11968
80016748:	0c004544 	jal	80011510 <__panic>
8001674c:	00000000 	nop
80016750:	3c028036 	lui	v0,0x8036
80016754:	8c420034 	lw	v0,52(v0)
80016758:	00402021 	move	a0,v0
8001675c:	24051000 	li	a1,4096
80016760:	00003021 	move	a2,zero
80016764:	0c005621 	jal	80015884 <get_pte>
80016768:	00000000 	nop
8001676c:	afc2001c 	sw	v0,28(s8)
80016770:	8fc2001c 	lw	v0,28(s8)
80016774:	1440000a 	bnez	v0,800167a0 <check_pgdir+0x378>
80016778:	00000000 	nop
8001677c:	3c028002 	lui	v0,0x8002
80016780:	24442c68 	addiu	a0,v0,11368
80016784:	24050214 	li	a1,532
80016788:	3c028002 	lui	v0,0x8002
8001678c:	24462c9c 	addiu	a2,v0,11420
80016790:	3c028002 	lui	v0,0x8002
80016794:	24472ef8 	addiu	a3,v0,12024
80016798:	0c004544 	jal	80011510 <__panic>
8001679c:	00000000 	nop
800167a0:	8fc2001c 	lw	v0,28(s8)
800167a4:	8c420000 	lw	v0,0(v0)
800167a8:	30420004 	andi	v0,v0,0x4
800167ac:	1440000a 	bnez	v0,800167d8 <check_pgdir+0x3b0>
800167b0:	00000000 	nop
800167b4:	3c028002 	lui	v0,0x8002
800167b8:	24442c68 	addiu	a0,v0,11368
800167bc:	24050215 	li	a1,533
800167c0:	3c028002 	lui	v0,0x8002
800167c4:	24462c9c 	addiu	a2,v0,11420
800167c8:	3c028002 	lui	v0,0x8002
800167cc:	24472f28 	addiu	a3,v0,12072
800167d0:	0c004544 	jal	80011510 <__panic>
800167d4:	00000000 	nop
800167d8:	8fc2001c 	lw	v0,28(s8)
800167dc:	8c420000 	lw	v0,0(v0)
800167e0:	30420002 	andi	v0,v0,0x2
800167e4:	1440000a 	bnez	v0,80016810 <check_pgdir+0x3e8>
800167e8:	00000000 	nop
800167ec:	3c028002 	lui	v0,0x8002
800167f0:	24442c68 	addiu	a0,v0,11368
800167f4:	24050216 	li	a1,534
800167f8:	3c028002 	lui	v0,0x8002
800167fc:	24462c9c 	addiu	a2,v0,11420
80016800:	3c028002 	lui	v0,0x8002
80016804:	24472f38 	addiu	a3,v0,12088
80016808:	0c004544 	jal	80011510 <__panic>
8001680c:	00000000 	nop
80016810:	3c028036 	lui	v0,0x8036
80016814:	8c420034 	lw	v0,52(v0)
80016818:	8c420000 	lw	v0,0(v0)
8001681c:	30420004 	andi	v0,v0,0x4
80016820:	1440000a 	bnez	v0,8001684c <check_pgdir+0x424>
80016824:	00000000 	nop
80016828:	3c028002 	lui	v0,0x8002
8001682c:	24442c68 	addiu	a0,v0,11368
80016830:	24050217 	li	a1,535
80016834:	3c028002 	lui	v0,0x8002
80016838:	24462c9c 	addiu	a2,v0,11420
8001683c:	3c028002 	lui	v0,0x8002
80016840:	24472f48 	addiu	a3,v0,12104
80016844:	0c004544 	jal	80011510 <__panic>
80016848:	00000000 	nop
8001684c:	8fc40028 	lw	a0,40(s8)
80016850:	0c0053ee 	jal	80014fb8 <page_ref>
80016854:	00000000 	nop
80016858:	00401821 	move	v1,v0
8001685c:	24020001 	li	v0,1
80016860:	1062000a 	beq	v1,v0,8001688c <check_pgdir+0x464>
80016864:	00000000 	nop
80016868:	3c028002 	lui	v0,0x8002
8001686c:	24442c68 	addiu	a0,v0,11368
80016870:	24050218 	li	a1,536
80016874:	3c028002 	lui	v0,0x8002
80016878:	24462c9c 	addiu	a2,v0,11420
8001687c:	3c028002 	lui	v0,0x8002
80016880:	24472f60 	addiu	a3,v0,12128
80016884:	0c004544 	jal	80011510 <__panic>
80016888:	00000000 	nop
8001688c:	3c028036 	lui	v0,0x8036
80016890:	8c420034 	lw	v0,52(v0)
80016894:	00402021 	move	a0,v0
80016898:	8fc50018 	lw	a1,24(s8)
8001689c:	24061000 	li	a2,4096
800168a0:	00003821 	move	a3,zero
800168a4:	0c00586b 	jal	800161ac <page_insert>
800168a8:	00000000 	nop
800168ac:	1040000a 	beqz	v0,800168d8 <check_pgdir+0x4b0>
800168b0:	00000000 	nop
800168b4:	3c028002 	lui	v0,0x8002
800168b8:	24442c68 	addiu	a0,v0,11368
800168bc:	2405021a 	li	a1,538
800168c0:	3c028002 	lui	v0,0x8002
800168c4:	24462c9c 	addiu	a2,v0,11420
800168c8:	3c028002 	lui	v0,0x8002
800168cc:	24472f74 	addiu	a3,v0,12148
800168d0:	0c004544 	jal	80011510 <__panic>
800168d4:	00000000 	nop
800168d8:	8fc40018 	lw	a0,24(s8)
800168dc:	0c0053ee 	jal	80014fb8 <page_ref>
800168e0:	00000000 	nop
800168e4:	00401821 	move	v1,v0
800168e8:	24020002 	li	v0,2
800168ec:	1062000a 	beq	v1,v0,80016918 <check_pgdir+0x4f0>
800168f0:	00000000 	nop
800168f4:	3c028002 	lui	v0,0x8002
800168f8:	24442c68 	addiu	a0,v0,11368
800168fc:	2405021b 	li	a1,539
80016900:	3c028002 	lui	v0,0x8002
80016904:	24462c9c 	addiu	a2,v0,11420
80016908:	3c028002 	lui	v0,0x8002
8001690c:	24472fa0 	addiu	a3,v0,12192
80016910:	0c004544 	jal	80011510 <__panic>
80016914:	00000000 	nop
80016918:	8fc40028 	lw	a0,40(s8)
8001691c:	0c0053ee 	jal	80014fb8 <page_ref>
80016920:	00000000 	nop
80016924:	1040000a 	beqz	v0,80016950 <check_pgdir+0x528>
80016928:	00000000 	nop
8001692c:	3c028002 	lui	v0,0x8002
80016930:	24442c68 	addiu	a0,v0,11368
80016934:	2405021c 	li	a1,540
80016938:	3c028002 	lui	v0,0x8002
8001693c:	24462c9c 	addiu	a2,v0,11420
80016940:	3c028002 	lui	v0,0x8002
80016944:	24472fb4 	addiu	a3,v0,12212
80016948:	0c004544 	jal	80011510 <__panic>
8001694c:	00000000 	nop
80016950:	3c028036 	lui	v0,0x8036
80016954:	8c420034 	lw	v0,52(v0)
80016958:	00402021 	move	a0,v0
8001695c:	24051000 	li	a1,4096
80016960:	00003021 	move	a2,zero
80016964:	0c005621 	jal	80015884 <get_pte>
80016968:	00000000 	nop
8001696c:	afc2001c 	sw	v0,28(s8)
80016970:	8fc2001c 	lw	v0,28(s8)
80016974:	1440000a 	bnez	v0,800169a0 <check_pgdir+0x578>
80016978:	00000000 	nop
8001697c:	3c028002 	lui	v0,0x8002
80016980:	24442c68 	addiu	a0,v0,11368
80016984:	2405021d 	li	a1,541
80016988:	3c028002 	lui	v0,0x8002
8001698c:	24462c9c 	addiu	a2,v0,11420
80016990:	3c028002 	lui	v0,0x8002
80016994:	24472ef8 	addiu	a3,v0,12024
80016998:	0c004544 	jal	80011510 <__panic>
8001699c:	00000000 	nop
800169a0:	8fc2001c 	lw	v0,28(s8)
800169a4:	8c420000 	lw	v0,0(v0)
800169a8:	00402021 	move	a0,v0
800169ac:	0c00537f 	jal	80014dfc <pa2page>
800169b0:	00000000 	nop
800169b4:	00401821 	move	v1,v0
800169b8:	8fc20018 	lw	v0,24(s8)
800169bc:	1062000a 	beq	v1,v0,800169e8 <check_pgdir+0x5c0>
800169c0:	00000000 	nop
800169c4:	3c028002 	lui	v0,0x8002
800169c8:	24442c68 	addiu	a0,v0,11368
800169cc:	2405021e 	li	a1,542
800169d0:	3c028002 	lui	v0,0x8002
800169d4:	24462c9c 	addiu	a2,v0,11420
800169d8:	3c028002 	lui	v0,0x8002
800169dc:	24472e6c 	addiu	a3,v0,11884
800169e0:	0c004544 	jal	80011510 <__panic>
800169e4:	00000000 	nop
800169e8:	8fc2001c 	lw	v0,28(s8)
800169ec:	8c420000 	lw	v0,0(v0)
800169f0:	30420004 	andi	v0,v0,0x4
800169f4:	1040000a 	beqz	v0,80016a20 <check_pgdir+0x5f8>
800169f8:	00000000 	nop
800169fc:	3c028002 	lui	v0,0x8002
80016a00:	24442c68 	addiu	a0,v0,11368
80016a04:	2405021f 	li	a1,543
80016a08:	3c028002 	lui	v0,0x8002
80016a0c:	24462c9c 	addiu	a2,v0,11420
80016a10:	3c028002 	lui	v0,0x8002
80016a14:	24472fc8 	addiu	a3,v0,12232
80016a18:	0c004544 	jal	80011510 <__panic>
80016a1c:	00000000 	nop
80016a20:	3c028036 	lui	v0,0x8036
80016a24:	8c420034 	lw	v0,52(v0)
80016a28:	00402021 	move	a0,v0
80016a2c:	00002821 	move	a1,zero
80016a30:	0c005851 	jal	80016144 <page_remove>
80016a34:	00000000 	nop
80016a38:	8fc40018 	lw	a0,24(s8)
80016a3c:	0c0053ee 	jal	80014fb8 <page_ref>
80016a40:	00000000 	nop
80016a44:	00401821 	move	v1,v0
80016a48:	24020001 	li	v0,1
80016a4c:	1062000a 	beq	v1,v0,80016a78 <check_pgdir+0x650>
80016a50:	00000000 	nop
80016a54:	3c028002 	lui	v0,0x8002
80016a58:	24442c68 	addiu	a0,v0,11368
80016a5c:	24050222 	li	a1,546
80016a60:	3c028002 	lui	v0,0x8002
80016a64:	24462c9c 	addiu	a2,v0,11420
80016a68:	3c028002 	lui	v0,0x8002
80016a6c:	24472e84 	addiu	a3,v0,11908
80016a70:	0c004544 	jal	80011510 <__panic>
80016a74:	00000000 	nop
80016a78:	8fc40028 	lw	a0,40(s8)
80016a7c:	0c0053ee 	jal	80014fb8 <page_ref>
80016a80:	00000000 	nop
80016a84:	1040000a 	beqz	v0,80016ab0 <check_pgdir+0x688>
80016a88:	00000000 	nop
80016a8c:	3c028002 	lui	v0,0x8002
80016a90:	24442c68 	addiu	a0,v0,11368
80016a94:	24050223 	li	a1,547
80016a98:	3c028002 	lui	v0,0x8002
80016a9c:	24462c9c 	addiu	a2,v0,11420
80016aa0:	3c028002 	lui	v0,0x8002
80016aa4:	24472fb4 	addiu	a3,v0,12212
80016aa8:	0c004544 	jal	80011510 <__panic>
80016aac:	00000000 	nop
80016ab0:	3c028036 	lui	v0,0x8036
80016ab4:	8c420034 	lw	v0,52(v0)
80016ab8:	00402021 	move	a0,v0
80016abc:	24051000 	li	a1,4096
80016ac0:	0c005851 	jal	80016144 <page_remove>
80016ac4:	00000000 	nop
80016ac8:	8fc40018 	lw	a0,24(s8)
80016acc:	0c0053ee 	jal	80014fb8 <page_ref>
80016ad0:	00000000 	nop
80016ad4:	1040000a 	beqz	v0,80016b00 <check_pgdir+0x6d8>
80016ad8:	00000000 	nop
80016adc:	3c028002 	lui	v0,0x8002
80016ae0:	24442c68 	addiu	a0,v0,11368
80016ae4:	24050226 	li	a1,550
80016ae8:	3c028002 	lui	v0,0x8002
80016aec:	24462c9c 	addiu	a2,v0,11420
80016af0:	3c028002 	lui	v0,0x8002
80016af4:	24472fe0 	addiu	a3,v0,12256
80016af8:	0c004544 	jal	80011510 <__panic>
80016afc:	00000000 	nop
80016b00:	8fc40028 	lw	a0,40(s8)
80016b04:	0c0053ee 	jal	80014fb8 <page_ref>
80016b08:	00000000 	nop
80016b0c:	1040000a 	beqz	v0,80016b38 <check_pgdir+0x710>
80016b10:	00000000 	nop
80016b14:	3c028002 	lui	v0,0x8002
80016b18:	24442c68 	addiu	a0,v0,11368
80016b1c:	24050227 	li	a1,551
80016b20:	3c028002 	lui	v0,0x8002
80016b24:	24462c9c 	addiu	a2,v0,11420
80016b28:	3c028002 	lui	v0,0x8002
80016b2c:	24472fb4 	addiu	a3,v0,12212
80016b30:	0c004544 	jal	80011510 <__panic>
80016b34:	00000000 	nop
80016b38:	3c028036 	lui	v0,0x8036
80016b3c:	8c420034 	lw	v0,52(v0)
80016b40:	8c420000 	lw	v0,0(v0)
80016b44:	00402021 	move	a0,v0
80016b48:	0c00537f 	jal	80014dfc <pa2page>
80016b4c:	00000000 	nop
80016b50:	00402021 	move	a0,v0
80016b54:	0c0053ee 	jal	80014fb8 <page_ref>
80016b58:	00000000 	nop
80016b5c:	00401821 	move	v1,v0
80016b60:	24020001 	li	v0,1
80016b64:	1062000a 	beq	v1,v0,80016b90 <check_pgdir+0x768>
80016b68:	00000000 	nop
80016b6c:	3c028002 	lui	v0,0x8002
80016b70:	24442c68 	addiu	a0,v0,11368
80016b74:	24050229 	li	a1,553
80016b78:	3c028002 	lui	v0,0x8002
80016b7c:	24462c9c 	addiu	a2,v0,11420
80016b80:	3c028002 	lui	v0,0x8002
80016b84:	24472ff4 	addiu	a3,v0,12276
80016b88:	0c004544 	jal	80011510 <__panic>
80016b8c:	00000000 	nop
80016b90:	3c028036 	lui	v0,0x8036
80016b94:	8c420034 	lw	v0,52(v0)
80016b98:	8c420000 	lw	v0,0(v0)
80016b9c:	00402021 	move	a0,v0
80016ba0:	0c00537f 	jal	80014dfc <pa2page>
80016ba4:	00000000 	nop
80016ba8:	00402021 	move	a0,v0
80016bac:	24050001 	li	a1,1
80016bb0:	0c005492 	jal	80015248 <free_pages>
80016bb4:	00000000 	nop
80016bb8:	3c028036 	lui	v0,0x8036
80016bbc:	8c420034 	lw	v0,52(v0)
80016bc0:	ac400000 	sw	zero,0(v0)
80016bc4:	3c028002 	lui	v0,0x8002
80016bc8:	2444301c 	addiu	a0,v0,12316
80016bcc:	0c00413e 	jal	800104f8 <cprintf>
80016bd0:	00000000 	nop
80016bd4:	03c0e821 	move	sp,s8
80016bd8:	8fbf0034 	lw	ra,52(sp)
80016bdc:	8fbe0030 	lw	s8,48(sp)
80016be0:	27bd0038 	addiu	sp,sp,56
80016be4:	03e00008 	jr	ra
80016be8:	00000000 	nop

80016bec <check_boot_pgdir>:
80016bec:	27bdffd0 	addiu	sp,sp,-48
80016bf0:	afbf002c 	sw	ra,44(sp)
80016bf4:	afbe0028 	sw	s8,40(sp)
80016bf8:	03a0f021 	move	s8,sp
80016bfc:	3c028036 	lui	v0,0x8036
80016c00:	8c420034 	lw	v0,52(v0)
80016c04:	24420fac 	addiu	v0,v0,4012
80016c08:	8c430000 	lw	v1,0(v0)
80016c0c:	2402f000 	li	v0,-4096
80016c10:	00621824 	and	v1,v1,v0
80016c14:	3c028036 	lui	v0,0x8036
80016c18:	8c420034 	lw	v0,52(v0)
80016c1c:	afc20018 	sw	v0,24(s8)
80016c20:	8fc20018 	lw	v0,24(s8)
80016c24:	04400009 	bltz	v0,80016c4c <check_boot_pgdir+0x60>
80016c28:	00000000 	nop
80016c2c:	3c028002 	lui	v0,0x8002
80016c30:	24442c68 	addiu	a0,v0,11368
80016c34:	2405023b 	li	a1,571
80016c38:	3c028002 	lui	v0,0x8002
80016c3c:	24462c78 	addiu	a2,v0,11384
80016c40:	8fc70018 	lw	a3,24(s8)
80016c44:	0c004544 	jal	80011510 <__panic>
80016c48:	00000000 	nop
80016c4c:	8fc40018 	lw	a0,24(s8)
80016c50:	3c028000 	lui	v0,0x8000
80016c54:	00821021 	addu	v0,a0,v0
80016c58:	1062000a 	beq	v1,v0,80016c84 <check_boot_pgdir+0x98>
80016c5c:	00000000 	nop
80016c60:	3c028002 	lui	v0,0x8002
80016c64:	24442c68 	addiu	a0,v0,11368
80016c68:	2405023b 	li	a1,571
80016c6c:	3c028002 	lui	v0,0x8002
80016c70:	24462c9c 	addiu	a2,v0,11420
80016c74:	3c028002 	lui	v0,0x8002
80016c78:	24473038 	addiu	a3,v0,12344
80016c7c:	0c004544 	jal	80011510 <__panic>
80016c80:	00000000 	nop
80016c84:	3c028036 	lui	v0,0x8036
80016c88:	8c420034 	lw	v0,52(v0)
80016c8c:	8c420000 	lw	v0,0(v0)
80016c90:	1040000a 	beqz	v0,80016cbc <check_boot_pgdir+0xd0>
80016c94:	00000000 	nop
80016c98:	3c028002 	lui	v0,0x8002
80016c9c:	24442c68 	addiu	a0,v0,11368
80016ca0:	2405023d 	li	a1,573
80016ca4:	3c028002 	lui	v0,0x8002
80016ca8:	24462c9c 	addiu	a2,v0,11420
80016cac:	3c028002 	lui	v0,0x8002
80016cb0:	2447306c 	addiu	a3,v0,12396
80016cb4:	0c004544 	jal	80011510 <__panic>
80016cb8:	00000000 	nop
80016cbc:	24040001 	li	a0,1
80016cc0:	0c005462 	jal	80015188 <alloc_pages>
80016cc4:	00000000 	nop
80016cc8:	afc2001c 	sw	v0,28(s8)
80016ccc:	3c028036 	lui	v0,0x8036
80016cd0:	8c420034 	lw	v0,52(v0)
80016cd4:	00402021 	move	a0,v0
80016cd8:	8fc5001c 	lw	a1,28(s8)
80016cdc:	24060100 	li	a2,256
80016ce0:	24070002 	li	a3,2
80016ce4:	0c00586b 	jal	800161ac <page_insert>
80016ce8:	00000000 	nop
80016cec:	1040000a 	beqz	v0,80016d18 <check_boot_pgdir+0x12c>
80016cf0:	00000000 	nop
80016cf4:	3c028002 	lui	v0,0x8002
80016cf8:	24442c68 	addiu	a0,v0,11368
80016cfc:	24050241 	li	a1,577
80016d00:	3c028002 	lui	v0,0x8002
80016d04:	24462c9c 	addiu	a2,v0,11420
80016d08:	3c028002 	lui	v0,0x8002
80016d0c:	24473080 	addiu	a3,v0,12416
80016d10:	0c004544 	jal	80011510 <__panic>
80016d14:	00000000 	nop
80016d18:	8fc4001c 	lw	a0,28(s8)
80016d1c:	0c0053ee 	jal	80014fb8 <page_ref>
80016d20:	00000000 	nop
80016d24:	00401821 	move	v1,v0
80016d28:	24020001 	li	v0,1
80016d2c:	1062000a 	beq	v1,v0,80016d58 <check_boot_pgdir+0x16c>
80016d30:	00000000 	nop
80016d34:	3c028002 	lui	v0,0x8002
80016d38:	24442c68 	addiu	a0,v0,11368
80016d3c:	24050242 	li	a1,578
80016d40:	3c028002 	lui	v0,0x8002
80016d44:	24462c9c 	addiu	a2,v0,11420
80016d48:	3c028002 	lui	v0,0x8002
80016d4c:	244730b0 	addiu	a3,v0,12464
80016d50:	0c004544 	jal	80011510 <__panic>
80016d54:	00000000 	nop
80016d58:	3c028036 	lui	v0,0x8036
80016d5c:	8c420034 	lw	v0,52(v0)
80016d60:	00402021 	move	a0,v0
80016d64:	8fc5001c 	lw	a1,28(s8)
80016d68:	24061100 	li	a2,4352
80016d6c:	24070002 	li	a3,2
80016d70:	0c00586b 	jal	800161ac <page_insert>
80016d74:	00000000 	nop
80016d78:	1040000a 	beqz	v0,80016da4 <check_boot_pgdir+0x1b8>
80016d7c:	00000000 	nop
80016d80:	3c028002 	lui	v0,0x8002
80016d84:	24442c68 	addiu	a0,v0,11368
80016d88:	24050243 	li	a1,579
80016d8c:	3c028002 	lui	v0,0x8002
80016d90:	24462c9c 	addiu	a2,v0,11420
80016d94:	3c028002 	lui	v0,0x8002
80016d98:	244730c4 	addiu	a3,v0,12484
80016d9c:	0c004544 	jal	80011510 <__panic>
80016da0:	00000000 	nop
80016da4:	8fc4001c 	lw	a0,28(s8)
80016da8:	0c0053ee 	jal	80014fb8 <page_ref>
80016dac:	00000000 	nop
80016db0:	00401821 	move	v1,v0
80016db4:	24020002 	li	v0,2
80016db8:	1062000a 	beq	v1,v0,80016de4 <check_boot_pgdir+0x1f8>
80016dbc:	00000000 	nop
80016dc0:	3c028002 	lui	v0,0x8002
80016dc4:	24442c68 	addiu	a0,v0,11368
80016dc8:	24050244 	li	a1,580
80016dcc:	3c028002 	lui	v0,0x8002
80016dd0:	24462c9c 	addiu	a2,v0,11420
80016dd4:	3c028002 	lui	v0,0x8002
80016dd8:	244730fc 	addiu	a3,v0,12540
80016ddc:	0c004544 	jal	80011510 <__panic>
80016de0:	00000000 	nop
80016de4:	3c028002 	lui	v0,0x8002
80016de8:	24423110 	addiu	v0,v0,12560
80016dec:	afc20020 	sw	v0,32(s8)
80016df0:	24040100 	li	a0,256
80016df4:	8fc50020 	lw	a1,32(s8)
80016df8:	0c008606 	jal	80021818 <strcpy>
80016dfc:	00000000 	nop
80016e00:	24040100 	li	a0,256
80016e04:	24051100 	li	a1,4352
80016e08:	0c008643 	jal	8002190c <strcmp>
80016e0c:	00000000 	nop
80016e10:	1040000a 	beqz	v0,80016e3c <check_boot_pgdir+0x250>
80016e14:	00000000 	nop
80016e18:	3c028002 	lui	v0,0x8002
80016e1c:	24442c68 	addiu	a0,v0,11368
80016e20:	24050248 	li	a1,584
80016e24:	3c028002 	lui	v0,0x8002
80016e28:	24462c9c 	addiu	a2,v0,11420
80016e2c:	3c028002 	lui	v0,0x8002
80016e30:	24473128 	addiu	a3,v0,12584
80016e34:	0c004544 	jal	80011510 <__panic>
80016e38:	00000000 	nop
80016e3c:	8fc4001c 	lw	a0,28(s8)
80016e40:	0c00539e 	jal	80014e78 <page2kva>
80016e44:	00000000 	nop
80016e48:	24420100 	addiu	v0,v0,256
80016e4c:	a0400000 	sb	zero,0(v0)
80016e50:	24040100 	li	a0,256
80016e54:	0c0085d4 	jal	80021750 <strlen>
80016e58:	00000000 	nop
80016e5c:	1040000a 	beqz	v0,80016e88 <check_boot_pgdir+0x29c>
80016e60:	00000000 	nop
80016e64:	3c028002 	lui	v0,0x8002
80016e68:	24442c68 	addiu	a0,v0,11368
80016e6c:	2405024b 	li	a1,587
80016e70:	3c028002 	lui	v0,0x8002
80016e74:	24462c9c 	addiu	a2,v0,11420
80016e78:	3c028002 	lui	v0,0x8002
80016e7c:	24473160 	addiu	a3,v0,12640
80016e80:	0c004544 	jal	80011510 <__panic>
80016e84:	00000000 	nop
80016e88:	8fc4001c 	lw	a0,28(s8)
80016e8c:	24050001 	li	a1,1
80016e90:	0c005492 	jal	80015248 <free_pages>
80016e94:	00000000 	nop
80016e98:	3c028036 	lui	v0,0x8036
80016e9c:	8c420034 	lw	v0,52(v0)
80016ea0:	00402021 	move	a0,v0
80016ea4:	24050100 	li	a1,256
80016ea8:	0c00644c 	jal	80019130 <tlb_invalidate>
80016eac:	00000000 	nop
80016eb0:	3c028036 	lui	v0,0x8036
80016eb4:	8c420034 	lw	v0,52(v0)
80016eb8:	00402021 	move	a0,v0
80016ebc:	24051100 	li	a1,4352
80016ec0:	0c00644c 	jal	80019130 <tlb_invalidate>
80016ec4:	00000000 	nop
80016ec8:	3c028036 	lui	v0,0x8036
80016ecc:	8c420034 	lw	v0,52(v0)
80016ed0:	8c430000 	lw	v1,0(v0)
80016ed4:	2402f000 	li	v0,-4096
80016ed8:	00621024 	and	v0,v1,v0
80016edc:	00402021 	move	a0,v0
80016ee0:	0c00537f 	jal	80014dfc <pa2page>
80016ee4:	00000000 	nop
80016ee8:	00402021 	move	a0,v0
80016eec:	24050001 	li	a1,1
80016ef0:	0c005492 	jal	80015248 <free_pages>
80016ef4:	00000000 	nop
80016ef8:	3c028036 	lui	v0,0x8036
80016efc:	8c420034 	lw	v0,52(v0)
80016f00:	ac400000 	sw	zero,0(v0)
80016f04:	3c028002 	lui	v0,0x8002
80016f08:	24443184 	addiu	a0,v0,12676
80016f0c:	0c00413e 	jal	800104f8 <cprintf>
80016f10:	00000000 	nop
80016f14:	03c0e821 	move	sp,s8
80016f18:	8fbf002c 	lw	ra,44(sp)
80016f1c:	8fbe0028 	lw	s8,40(sp)
80016f20:	27bd0030 	addiu	sp,sp,48
80016f24:	03e00008 	jr	ra
80016f28:	00000000 	nop

80016f2c <perm2str>:
80016f2c:	27bdfff8 	addiu	sp,sp,-8
80016f30:	afbe0004 	sw	s8,4(sp)
80016f34:	03a0f021 	move	s8,sp
80016f38:	afc40008 	sw	a0,8(s8)
80016f3c:	8fc20008 	lw	v0,8(s8)
80016f40:	30420004 	andi	v0,v0,0x4
80016f44:	10400004 	beqz	v0,80016f58 <perm2str+0x2c>
80016f48:	00000000 	nop
80016f4c:	24020075 	li	v0,117
80016f50:	08005bd7 	j	80016f5c <perm2str+0x30>
80016f54:	00000000 	nop
80016f58:	2402002d 	li	v0,45
80016f5c:	3c038036 	lui	v1,0x8036
80016f60:	a0620038 	sb	v0,56(v1)
80016f64:	3c028036 	lui	v0,0x8036
80016f68:	24420038 	addiu	v0,v0,56
80016f6c:	24030072 	li	v1,114
80016f70:	a0430001 	sb	v1,1(v0)
80016f74:	8fc20008 	lw	v0,8(s8)
80016f78:	30420002 	andi	v0,v0,0x2
80016f7c:	10400004 	beqz	v0,80016f90 <perm2str+0x64>
80016f80:	00000000 	nop
80016f84:	24020077 	li	v0,119
80016f88:	08005be5 	j	80016f94 <perm2str+0x68>
80016f8c:	00000000 	nop
80016f90:	2402002d 	li	v0,45
80016f94:	3c038036 	lui	v1,0x8036
80016f98:	24630038 	addiu	v1,v1,56
80016f9c:	a0620002 	sb	v0,2(v1)
80016fa0:	3c028036 	lui	v0,0x8036
80016fa4:	24420038 	addiu	v0,v0,56
80016fa8:	a0400003 	sb	zero,3(v0)
80016fac:	3c028036 	lui	v0,0x8036
80016fb0:	24420038 	addiu	v0,v0,56
80016fb4:	03c0e821 	move	sp,s8
80016fb8:	8fbe0004 	lw	s8,4(sp)
80016fbc:	27bd0008 	addiu	sp,sp,8
80016fc0:	03e00008 	jr	ra
80016fc4:	00000000 	nop

80016fc8 <get_pgtable_items>:
80016fc8:	27bdffe8 	addiu	sp,sp,-24
80016fcc:	afbe0014 	sw	s8,20(sp)
80016fd0:	03a0f021 	move	s8,sp
80016fd4:	afc40018 	sw	a0,24(s8)
80016fd8:	afc5001c 	sw	a1,28(s8)
80016fdc:	afc60020 	sw	a2,32(s8)
80016fe0:	afc70024 	sw	a3,36(s8)
80016fe4:	8fc30020 	lw	v1,32(s8)
80016fe8:	8fc2001c 	lw	v0,28(s8)
80016fec:	0062102b 	sltu	v0,v1,v0
80016ff0:	14400004 	bnez	v0,80017004 <get_pgtable_items+0x3c>
80016ff4:	00000000 	nop
80016ff8:	00001021 	move	v0,zero
80016ffc:	08005c44 	j	80017110 <get_pgtable_items+0x148>
80017000:	00000000 	nop
80017004:	08005c06 	j	80017018 <get_pgtable_items+0x50>
80017008:	00000000 	nop
8001700c:	8fc20020 	lw	v0,32(s8)
80017010:	24420001 	addiu	v0,v0,1
80017014:	afc20020 	sw	v0,32(s8)
80017018:	8fc30020 	lw	v1,32(s8)
8001701c:	8fc2001c 	lw	v0,28(s8)
80017020:	0062102b 	sltu	v0,v1,v0
80017024:	10400009 	beqz	v0,8001704c <get_pgtable_items+0x84>
80017028:	00000000 	nop
8001702c:	8fc20020 	lw	v0,32(s8)
80017030:	00021080 	sll	v0,v0,0x2
80017034:	8fc30024 	lw	v1,36(s8)
80017038:	00621021 	addu	v0,v1,v0
8001703c:	8c420000 	lw	v0,0(v0)
80017040:	30420001 	andi	v0,v0,0x1
80017044:	1040fff1 	beqz	v0,8001700c <get_pgtable_items+0x44>
80017048:	00000000 	nop
8001704c:	8fc30020 	lw	v1,32(s8)
80017050:	8fc2001c 	lw	v0,28(s8)
80017054:	0062102b 	sltu	v0,v1,v0
80017058:	1040002c 	beqz	v0,8001710c <get_pgtable_items+0x144>
8001705c:	00000000 	nop
80017060:	8fc20028 	lw	v0,40(s8)
80017064:	10400004 	beqz	v0,80017078 <get_pgtable_items+0xb0>
80017068:	00000000 	nop
8001706c:	8fc20028 	lw	v0,40(s8)
80017070:	8fc30020 	lw	v1,32(s8)
80017074:	ac430000 	sw	v1,0(v0)
80017078:	8fc20020 	lw	v0,32(s8)
8001707c:	24430001 	addiu	v1,v0,1
80017080:	afc30020 	sw	v1,32(s8)
80017084:	00021080 	sll	v0,v0,0x2
80017088:	8fc30024 	lw	v1,36(s8)
8001708c:	00621021 	addu	v0,v1,v0
80017090:	8c420000 	lw	v0,0(v0)
80017094:	30420007 	andi	v0,v0,0x7
80017098:	afc20008 	sw	v0,8(s8)
8001709c:	08005c2c 	j	800170b0 <get_pgtable_items+0xe8>
800170a0:	00000000 	nop
800170a4:	8fc20020 	lw	v0,32(s8)
800170a8:	24420001 	addiu	v0,v0,1
800170ac:	afc20020 	sw	v0,32(s8)
800170b0:	8fc30020 	lw	v1,32(s8)
800170b4:	8fc2001c 	lw	v0,28(s8)
800170b8:	0062102b 	sltu	v0,v1,v0
800170bc:	1040000a 	beqz	v0,800170e8 <get_pgtable_items+0x120>
800170c0:	00000000 	nop
800170c4:	8fc20020 	lw	v0,32(s8)
800170c8:	00021080 	sll	v0,v0,0x2
800170cc:	8fc30024 	lw	v1,36(s8)
800170d0:	00621021 	addu	v0,v1,v0
800170d4:	8c420000 	lw	v0,0(v0)
800170d8:	30430007 	andi	v1,v0,0x7
800170dc:	8fc20008 	lw	v0,8(s8)
800170e0:	1062fff0 	beq	v1,v0,800170a4 <get_pgtable_items+0xdc>
800170e4:	00000000 	nop
800170e8:	8fc2002c 	lw	v0,44(s8)
800170ec:	10400004 	beqz	v0,80017100 <get_pgtable_items+0x138>
800170f0:	00000000 	nop
800170f4:	8fc2002c 	lw	v0,44(s8)
800170f8:	8fc30020 	lw	v1,32(s8)
800170fc:	ac430000 	sw	v1,0(v0)
80017100:	8fc20008 	lw	v0,8(s8)
80017104:	08005c44 	j	80017110 <get_pgtable_items+0x148>
80017108:	00000000 	nop
8001710c:	00001021 	move	v0,zero
80017110:	03c0e821 	move	sp,s8
80017114:	8fbe0014 	lw	s8,20(sp)
80017118:	27bd0018 	addiu	sp,sp,24
8001711c:	03e00008 	jr	ra
80017120:	00000000 	nop

80017124 <print_pgdir>:
80017124:	27bdffb0 	addiu	sp,sp,-80
80017128:	afbf004c 	sw	ra,76(sp)
8001712c:	afbe0048 	sw	s8,72(sp)
80017130:	afb30044 	sw	s3,68(sp)
80017134:	afb20040 	sw	s2,64(sp)
80017138:	afb1003c 	sw	s1,60(sp)
8001713c:	afb00038 	sw	s0,56(sp)
80017140:	03a0f021 	move	s8,sp
80017144:	3c028002 	lui	v0,0x8002
80017148:	244431a4 	addiu	a0,v0,12708
8001714c:	0c00413e 	jal	800104f8 <cprintf>
80017150:	00000000 	nop
80017154:	afc00028 	sw	zero,40(s8)
80017158:	08005c9f 	j	8001727c <print_pgdir+0x158>
8001715c:	00000000 	nop
80017160:	8fc30028 	lw	v1,40(s8)
80017164:	8fc20024 	lw	v0,36(s8)
80017168:	00629023 	subu	s2,v1,v0
8001716c:	8fc20024 	lw	v0,36(s8)
80017170:	00028d80 	sll	s1,v0,0x16
80017174:	8fc20028 	lw	v0,40(s8)
80017178:	00028580 	sll	s0,v0,0x16
8001717c:	8fc30028 	lw	v1,40(s8)
80017180:	8fc20024 	lw	v0,36(s8)
80017184:	00621023 	subu	v0,v1,v0
80017188:	00029d80 	sll	s3,v0,0x16
8001718c:	8fc20020 	lw	v0,32(s8)
80017190:	00402021 	move	a0,v0
80017194:	0c005bcb 	jal	80016f2c <perm2str>
80017198:	00000000 	nop
8001719c:	afb30010 	sw	s3,16(sp)
800171a0:	afa20014 	sw	v0,20(sp)
800171a4:	3c028002 	lui	v0,0x8002
800171a8:	244431d8 	addiu	a0,v0,12760
800171ac:	02402821 	move	a1,s2
800171b0:	02203021 	move	a2,s1
800171b4:	02003821 	move	a3,s0
800171b8:	0c00413e 	jal	800104f8 <cprintf>
800171bc:	00000000 	nop
800171c0:	8fc20024 	lw	v0,36(s8)
800171c4:	00021280 	sll	v0,v0,0xa
800171c8:	afc20030 	sw	v0,48(s8)
800171cc:	08005c8d 	j	80017234 <print_pgdir+0x110>
800171d0:	00000000 	nop
800171d4:	8fc30030 	lw	v1,48(s8)
800171d8:	8fc2002c 	lw	v0,44(s8)
800171dc:	00629023 	subu	s2,v1,v0
800171e0:	8fc2002c 	lw	v0,44(s8)
800171e4:	00028b00 	sll	s1,v0,0xc
800171e8:	8fc20030 	lw	v0,48(s8)
800171ec:	00028300 	sll	s0,v0,0xc
800171f0:	8fc30030 	lw	v1,48(s8)
800171f4:	8fc2002c 	lw	v0,44(s8)
800171f8:	00621023 	subu	v0,v1,v0
800171fc:	00029b00 	sll	s3,v0,0xc
80017200:	8fc20020 	lw	v0,32(s8)
80017204:	00402021 	move	a0,v0
80017208:	0c005bcb 	jal	80016f2c <perm2str>
8001720c:	00000000 	nop
80017210:	afb30010 	sw	s3,16(sp)
80017214:	afa20014 	sw	v0,20(sp)
80017218:	3c028002 	lui	v0,0x8002
8001721c:	244431f8 	addiu	a0,v0,12792
80017220:	02402821 	move	a1,s2
80017224:	02203021 	move	a2,s1
80017228:	02003821 	move	a3,s0
8001722c:	0c00413e 	jal	800104f8 <cprintf>
80017230:	00000000 	nop
80017234:	8fc20024 	lw	v0,36(s8)
80017238:	00022280 	sll	a0,v0,0xa
8001723c:	8fc20028 	lw	v0,40(s8)
80017240:	00022a80 	sll	a1,v0,0xa
80017244:	8fc30030 	lw	v1,48(s8)
80017248:	3c02fac0 	lui	v0,0xfac0
8001724c:	27c6002c 	addiu	a2,s8,44
80017250:	afa60010 	sw	a2,16(sp)
80017254:	27c60030 	addiu	a2,s8,48
80017258:	afa60014 	sw	a2,20(sp)
8001725c:	00603021 	move	a2,v1
80017260:	00403821 	move	a3,v0
80017264:	0c005bf2 	jal	80016fc8 <get_pgtable_items>
80017268:	00000000 	nop
8001726c:	afc20020 	sw	v0,32(s8)
80017270:	8fc20020 	lw	v0,32(s8)
80017274:	1440ffd7 	bnez	v0,800171d4 <print_pgdir+0xb0>
80017278:	00000000 	nop
8001727c:	8fc30028 	lw	v1,40(s8)
80017280:	3c02fafe 	lui	v0,0xfafe
80017284:	3442b000 	ori	v0,v0,0xb000
80017288:	27c40024 	addiu	a0,s8,36
8001728c:	afa40010 	sw	a0,16(sp)
80017290:	27c40028 	addiu	a0,s8,40
80017294:	afa40014 	sw	a0,20(sp)
80017298:	00002021 	move	a0,zero
8001729c:	24050400 	li	a1,1024
800172a0:	00603021 	move	a2,v1
800172a4:	00403821 	move	a3,v0
800172a8:	0c005bf2 	jal	80016fc8 <get_pgtable_items>
800172ac:	00000000 	nop
800172b0:	afc20020 	sw	v0,32(s8)
800172b4:	8fc20020 	lw	v0,32(s8)
800172b8:	1440ffa9 	bnez	v0,80017160 <print_pgdir+0x3c>
800172bc:	00000000 	nop
800172c0:	3c028002 	lui	v0,0x8002
800172c4:	2444321c 	addiu	a0,v0,12828
800172c8:	0c00413e 	jal	800104f8 <cprintf>
800172cc:	00000000 	nop
800172d0:	03c0e821 	move	sp,s8
800172d4:	8fbf004c 	lw	ra,76(sp)
800172d8:	8fbe0048 	lw	s8,72(sp)
800172dc:	8fb30044 	lw	s3,68(sp)
800172e0:	8fb20040 	lw	s2,64(sp)
800172e4:	8fb1003c 	lw	s1,60(sp)
800172e8:	8fb00038 	lw	s0,56(sp)
800172ec:	27bd0050 	addiu	sp,sp,80
800172f0:	03e00008 	jr	ra
800172f4:	00000000 	nop
	...

80017300 <__intr_save>:
80017300:	27bdffd8 	addiu	sp,sp,-40
80017304:	afbf0024 	sw	ra,36(sp)
80017308:	afbe0020 	sw	s8,32(sp)
8001730c:	03a0f021 	move	s8,sp
80017310:	40026000 	mfc0	v0,c0_status
80017314:	afc20018 	sw	v0,24(s8)
80017318:	8fc20018 	lw	v0,24(s8)
8001731c:	30420001 	andi	v0,v0,0x1
80017320:	10400006 	beqz	v0,8001733c <__intr_save+0x3c>
80017324:	00000000 	nop
80017328:	0c0046d7 	jal	80011b5c <intr_disable>
8001732c:	00000000 	nop
80017330:	24020001 	li	v0,1
80017334:	08005cd0 	j	80017340 <__intr_save+0x40>
80017338:	00000000 	nop
8001733c:	00001021 	move	v0,zero
80017340:	03c0e821 	move	sp,s8
80017344:	8fbf0024 	lw	ra,36(sp)
80017348:	8fbe0020 	lw	s8,32(sp)
8001734c:	27bd0028 	addiu	sp,sp,40
80017350:	03e00008 	jr	ra
80017354:	00000000 	nop

80017358 <__intr_restore>:
80017358:	27bdffe0 	addiu	sp,sp,-32
8001735c:	afbf001c 	sw	ra,28(sp)
80017360:	afbe0018 	sw	s8,24(sp)
80017364:	03a0f021 	move	s8,sp
80017368:	afc40020 	sw	a0,32(s8)
8001736c:	8fc20020 	lw	v0,32(s8)
80017370:	10400003 	beqz	v0,80017380 <__intr_restore+0x28>
80017374:	00000000 	nop
80017378:	0c0046c8 	jal	80011b20 <intr_enable>
8001737c:	00000000 	nop
80017380:	03c0e821 	move	sp,s8
80017384:	8fbf001c 	lw	ra,28(sp)
80017388:	8fbe0018 	lw	s8,24(sp)
8001738c:	27bd0020 	addiu	sp,sp,32
80017390:	03e00008 	jr	ra
80017394:	00000000 	nop

80017398 <pa2page>:
80017398:	27bdffe0 	addiu	sp,sp,-32
8001739c:	afbf001c 	sw	ra,28(sp)
800173a0:	afbe0018 	sw	s8,24(sp)
800173a4:	03a0f021 	move	s8,sp
800173a8:	afc40020 	sw	a0,32(s8)
800173ac:	8fc20020 	lw	v0,32(s8)
800173b0:	00021b02 	srl	v1,v0,0xc
800173b4:	3c028036 	lui	v0,0x8036
800173b8:	8c420030 	lw	v0,48(v0)
800173bc:	0062102b 	sltu	v0,v1,v0
800173c0:	14400008 	bnez	v0,800173e4 <pa2page+0x4c>
800173c4:	00000000 	nop
800173c8:	3c028002 	lui	v0,0x8002
800173cc:	24443250 	addiu	a0,v0,12880
800173d0:	2405005c 	li	a1,92
800173d4:	3c028002 	lui	v0,0x8002
800173d8:	24463260 	addiu	a2,v0,12896
800173dc:	0c004544 	jal	80011510 <__panic>
800173e0:	00000000 	nop
800173e4:	3c028036 	lui	v0,0x8036
800173e8:	8c4322a8 	lw	v1,8872(v0)
800173ec:	8fc20020 	lw	v0,32(s8)
800173f0:	00021302 	srl	v0,v0,0xc
800173f4:	00021140 	sll	v0,v0,0x5
800173f8:	00621021 	addu	v0,v1,v0
800173fc:	03c0e821 	move	sp,s8
80017400:	8fbf001c 	lw	ra,28(sp)
80017404:	8fbe0018 	lw	s8,24(sp)
80017408:	27bd0020 	addiu	sp,sp,32
8001740c:	03e00008 	jr	ra
80017410:	00000000 	nop

80017414 <pte2page>:
80017414:	27bdffe0 	addiu	sp,sp,-32
80017418:	afbf001c 	sw	ra,28(sp)
8001741c:	afbe0018 	sw	s8,24(sp)
80017420:	03a0f021 	move	s8,sp
80017424:	afc40020 	sw	a0,32(s8)
80017428:	8fc20020 	lw	v0,32(s8)
8001742c:	30420001 	andi	v0,v0,0x1
80017430:	14400008 	bnez	v0,80017454 <pte2page+0x40>
80017434:	00000000 	nop
80017438:	3c028002 	lui	v0,0x8002
8001743c:	24443250 	addiu	a0,v0,12880
80017440:	2405006e 	li	a1,110
80017444:	3c028002 	lui	v0,0x8002
80017448:	24463280 	addiu	a2,v0,12928
8001744c:	0c004544 	jal	80011510 <__panic>
80017450:	00000000 	nop
80017454:	8fc30020 	lw	v1,32(s8)
80017458:	2402f000 	li	v0,-4096
8001745c:	00621024 	and	v0,v1,v0
80017460:	00402021 	move	a0,v0
80017464:	0c005ce6 	jal	80017398 <pa2page>
80017468:	00000000 	nop
8001746c:	03c0e821 	move	sp,s8
80017470:	8fbf001c 	lw	ra,28(sp)
80017474:	8fbe0018 	lw	s8,24(sp)
80017478:	27bd0020 	addiu	sp,sp,32
8001747c:	03e00008 	jr	ra
80017480:	00000000 	nop

80017484 <swap_init>:
80017484:	27bdffd8 	addiu	sp,sp,-40
80017488:	afbf0024 	sw	ra,36(sp)
8001748c:	afbe0020 	sw	s8,32(sp)
80017490:	03a0f021 	move	s8,sp
80017494:	0c007330 	jal	8001ccc0 <swapfs_init>
80017498:	00000000 	nop
8001749c:	3c028036 	lui	v0,0x8036
800174a0:	8c4222ac 	lw	v0,8876(v0)
800174a4:	2c420400 	sltiu	v0,v0,1024
800174a8:	14400007 	bnez	v0,800174c8 <swap_init+0x44>
800174ac:	00000000 	nop
800174b0:	3c028036 	lui	v0,0x8036
800174b4:	8c4322ac 	lw	v1,8876(v0)
800174b8:	3c020100 	lui	v0,0x100
800174bc:	0062102b 	sltu	v0,v1,v0
800174c0:	1440000b 	bnez	v0,800174f0 <swap_init+0x6c>
800174c4:	00000000 	nop
800174c8:	3c028036 	lui	v0,0x8036
800174cc:	8c4222ac 	lw	v0,8876(v0)
800174d0:	3c038002 	lui	v1,0x8002
800174d4:	246432a4 	addiu	a0,v1,12964
800174d8:	24050026 	li	a1,38
800174dc:	3c038002 	lui	v1,0x8002
800174e0:	246632b4 	addiu	a2,v1,12980
800174e4:	00403821 	move	a3,v0
800174e8:	0c004544 	jal	80011510 <__panic>
800174ec:	00000000 	nop
800174f0:	3c028036 	lui	v0,0x8036
800174f4:	3c038036 	lui	v1,0x8036
800174f8:	2463f560 	addiu	v1,v1,-2720
800174fc:	ac430048 	sw	v1,72(v0)
80017500:	3c028036 	lui	v0,0x8036
80017504:	8c420048 	lw	v0,72(v0)
80017508:	8c420004 	lw	v0,4(v0)
8001750c:	0040c821 	move	t9,v0
80017510:	0320f809 	jalr	t9
80017514:	00000000 	nop
80017518:	afc20018 	sw	v0,24(s8)
8001751c:	8fc20018 	lw	v0,24(s8)
80017520:	1440000e 	bnez	v0,8001755c <swap_init+0xd8>
80017524:	00000000 	nop
80017528:	3c028036 	lui	v0,0x8036
8001752c:	24030001 	li	v1,1
80017530:	ac430040 	sw	v1,64(v0)
80017534:	3c028036 	lui	v0,0x8036
80017538:	8c420048 	lw	v0,72(v0)
8001753c:	8c420000 	lw	v0,0(v0)
80017540:	3c038002 	lui	v1,0x8002
80017544:	246432d0 	addiu	a0,v1,13008
80017548:	00402821 	move	a1,v0
8001754c:	0c00413e 	jal	800104f8 <cprintf>
80017550:	00000000 	nop
80017554:	0c005f15 	jal	80017c54 <check_swap>
80017558:	00000000 	nop
8001755c:	8fc20018 	lw	v0,24(s8)
80017560:	03c0e821 	move	sp,s8
80017564:	8fbf0024 	lw	ra,36(sp)
80017568:	8fbe0020 	lw	s8,32(sp)
8001756c:	27bd0028 	addiu	sp,sp,40
80017570:	03e00008 	jr	ra
80017574:	00000000 	nop

80017578 <swap_init_mm>:
80017578:	27bdffe0 	addiu	sp,sp,-32
8001757c:	afbf001c 	sw	ra,28(sp)
80017580:	afbe0018 	sw	s8,24(sp)
80017584:	03a0f021 	move	s8,sp
80017588:	afc40020 	sw	a0,32(s8)
8001758c:	3c028036 	lui	v0,0x8036
80017590:	8c420048 	lw	v0,72(v0)
80017594:	8c420008 	lw	v0,8(v0)
80017598:	8fc40020 	lw	a0,32(s8)
8001759c:	0040c821 	move	t9,v0
800175a0:	0320f809 	jalr	t9
800175a4:	00000000 	nop
800175a8:	03c0e821 	move	sp,s8
800175ac:	8fbf001c 	lw	ra,28(sp)
800175b0:	8fbe0018 	lw	s8,24(sp)
800175b4:	27bd0020 	addiu	sp,sp,32
800175b8:	03e00008 	jr	ra
800175bc:	00000000 	nop

800175c0 <swap_tick_event>:
800175c0:	27bdffe0 	addiu	sp,sp,-32
800175c4:	afbf001c 	sw	ra,28(sp)
800175c8:	afbe0018 	sw	s8,24(sp)
800175cc:	03a0f021 	move	s8,sp
800175d0:	afc40020 	sw	a0,32(s8)
800175d4:	3c028036 	lui	v0,0x8036
800175d8:	8c420048 	lw	v0,72(v0)
800175dc:	8c42000c 	lw	v0,12(v0)
800175e0:	8fc40020 	lw	a0,32(s8)
800175e4:	0040c821 	move	t9,v0
800175e8:	0320f809 	jalr	t9
800175ec:	00000000 	nop
800175f0:	03c0e821 	move	sp,s8
800175f4:	8fbf001c 	lw	ra,28(sp)
800175f8:	8fbe0018 	lw	s8,24(sp)
800175fc:	27bd0020 	addiu	sp,sp,32
80017600:	03e00008 	jr	ra
80017604:	00000000 	nop

80017608 <swap_map_swappable>:
80017608:	27bdffe0 	addiu	sp,sp,-32
8001760c:	afbf001c 	sw	ra,28(sp)
80017610:	afbe0018 	sw	s8,24(sp)
80017614:	03a0f021 	move	s8,sp
80017618:	afc40020 	sw	a0,32(s8)
8001761c:	afc50024 	sw	a1,36(s8)
80017620:	afc60028 	sw	a2,40(s8)
80017624:	afc7002c 	sw	a3,44(s8)
80017628:	3c028036 	lui	v0,0x8036
8001762c:	8c420048 	lw	v0,72(v0)
80017630:	8c420010 	lw	v0,16(v0)
80017634:	8fc40020 	lw	a0,32(s8)
80017638:	8fc50024 	lw	a1,36(s8)
8001763c:	8fc60028 	lw	a2,40(s8)
80017640:	8fc7002c 	lw	a3,44(s8)
80017644:	0040c821 	move	t9,v0
80017648:	0320f809 	jalr	t9
8001764c:	00000000 	nop
80017650:	03c0e821 	move	sp,s8
80017654:	8fbf001c 	lw	ra,28(sp)
80017658:	8fbe0018 	lw	s8,24(sp)
8001765c:	27bd0020 	addiu	sp,sp,32
80017660:	03e00008 	jr	ra
80017664:	00000000 	nop

80017668 <swap_set_unswappable>:
80017668:	27bdffe0 	addiu	sp,sp,-32
8001766c:	afbf001c 	sw	ra,28(sp)
80017670:	afbe0018 	sw	s8,24(sp)
80017674:	03a0f021 	move	s8,sp
80017678:	afc40020 	sw	a0,32(s8)
8001767c:	afc50024 	sw	a1,36(s8)
80017680:	3c028036 	lui	v0,0x8036
80017684:	8c420048 	lw	v0,72(v0)
80017688:	8c420014 	lw	v0,20(v0)
8001768c:	8fc40020 	lw	a0,32(s8)
80017690:	8fc50024 	lw	a1,36(s8)
80017694:	0040c821 	move	t9,v0
80017698:	0320f809 	jalr	t9
8001769c:	00000000 	nop
800176a0:	03c0e821 	move	sp,s8
800176a4:	8fbf001c 	lw	ra,28(sp)
800176a8:	8fbe0018 	lw	s8,24(sp)
800176ac:	27bd0020 	addiu	sp,sp,32
800176b0:	03e00008 	jr	ra
800176b4:	00000000 	nop

800176b8 <swap_out>:
800176b8:	27bdffc8 	addiu	sp,sp,-56
800176bc:	afbf0034 	sw	ra,52(sp)
800176c0:	afbe0030 	sw	s8,48(sp)
800176c4:	03a0f021 	move	s8,sp
800176c8:	afc40038 	sw	a0,56(s8)
800176cc:	afc5003c 	sw	a1,60(s8)
800176d0:	afc60040 	sw	a2,64(s8)
800176d4:	afc00018 	sw	zero,24(s8)
800176d8:	08005e1e 	j	80017878 <swap_out+0x1c0>
800176dc:	00000000 	nop
800176e0:	3c028036 	lui	v0,0x8036
800176e4:	8c420048 	lw	v0,72(v0)
800176e8:	8c420018 	lw	v0,24(v0)
800176ec:	27c30028 	addiu	v1,s8,40
800176f0:	8fc40038 	lw	a0,56(s8)
800176f4:	00602821 	move	a1,v1
800176f8:	8fc60040 	lw	a2,64(s8)
800176fc:	0040c821 	move	t9,v0
80017700:	0320f809 	jalr	t9
80017704:	00000000 	nop
80017708:	afc2001c 	sw	v0,28(s8)
8001770c:	8fc2001c 	lw	v0,28(s8)
80017710:	10400008 	beqz	v0,80017734 <swap_out+0x7c>
80017714:	00000000 	nop
80017718:	3c028002 	lui	v0,0x8002
8001771c:	244432e4 	addiu	a0,v0,13028
80017720:	8fc50018 	lw	a1,24(s8)
80017724:	0c00413e 	jal	800104f8 <cprintf>
80017728:	00000000 	nop
8001772c:	08005e22 	j	80017888 <swap_out+0x1d0>
80017730:	00000000 	nop
80017734:	8fc20028 	lw	v0,40(s8)
80017738:	8c42001c 	lw	v0,28(v0)
8001773c:	afc20020 	sw	v0,32(s8)
80017740:	8fc20038 	lw	v0,56(s8)
80017744:	8c42000c 	lw	v0,12(v0)
80017748:	00402021 	move	a0,v0
8001774c:	8fc50020 	lw	a1,32(s8)
80017750:	00003021 	move	a2,zero
80017754:	0c005621 	jal	80015884 <get_pte>
80017758:	00000000 	nop
8001775c:	afc20024 	sw	v0,36(s8)
80017760:	8fc20024 	lw	v0,36(s8)
80017764:	8c420000 	lw	v0,0(v0)
80017768:	30420001 	andi	v0,v0,0x1
8001776c:	1440000a 	bnez	v0,80017798 <swap_out+0xe0>
80017770:	00000000 	nop
80017774:	3c028002 	lui	v0,0x8002
80017778:	244432a4 	addiu	a0,v0,12964
8001777c:	24050066 	li	a1,102
80017780:	3c028002 	lui	v0,0x8002
80017784:	24463314 	addiu	a2,v0,13076
80017788:	3c028002 	lui	v0,0x8002
8001778c:	2447332c 	addiu	a3,v0,13100
80017790:	0c004544 	jal	80011510 <__panic>
80017794:	00000000 	nop
80017798:	8fc20024 	lw	v0,36(s8)
8001779c:	8c420000 	lw	v0,0(v0)
800177a0:	afc2002c 	sw	v0,44(s8)
800177a4:	8fc20028 	lw	v0,40(s8)
800177a8:	27c3002c 	addiu	v1,s8,44
800177ac:	00602021 	move	a0,v1
800177b0:	00402821 	move	a1,v0
800177b4:	0c00734d 	jal	8001cd34 <swapfs_write>
800177b8:	00000000 	nop
800177bc:	10400012 	beqz	v0,80017808 <swap_out+0x150>
800177c0:	00000000 	nop
800177c4:	3c028002 	lui	v0,0x8002
800177c8:	24443344 	addiu	a0,v0,13124
800177cc:	0c00413e 	jal	800104f8 <cprintf>
800177d0:	00000000 	nop
800177d4:	3c028036 	lui	v0,0x8036
800177d8:	8c420048 	lw	v0,72(v0)
800177dc:	8c420010 	lw	v0,16(v0)
800177e0:	8fc30028 	lw	v1,40(s8)
800177e4:	8fc40038 	lw	a0,56(s8)
800177e8:	8fc50020 	lw	a1,32(s8)
800177ec:	00603021 	move	a2,v1
800177f0:	00003821 	move	a3,zero
800177f4:	0040c821 	move	t9,v0
800177f8:	0320f809 	jalr	t9
800177fc:	00000000 	nop
80017800:	08005e1b 	j	8001786c <swap_out+0x1b4>
80017804:	00000000 	nop
80017808:	8fc20028 	lw	v0,40(s8)
8001780c:	8c42001c 	lw	v0,28(v0)
80017810:	00021302 	srl	v0,v0,0xc
80017814:	24420001 	addiu	v0,v0,1
80017818:	3c038002 	lui	v1,0x8002
8001781c:	2464335c 	addiu	a0,v1,13148
80017820:	8fc50018 	lw	a1,24(s8)
80017824:	8fc60020 	lw	a2,32(s8)
80017828:	00403821 	move	a3,v0
8001782c:	0c00413e 	jal	800104f8 <cprintf>
80017830:	00000000 	nop
80017834:	8fc20038 	lw	v0,56(s8)
80017838:	8c42000c 	lw	v0,12(v0)
8001783c:	00402021 	move	a0,v0
80017840:	8fc50020 	lw	a1,32(s8)
80017844:	0c00644c 	jal	80019130 <tlb_invalidate>
80017848:	00000000 	nop
8001784c:	8fc3002c 	lw	v1,44(s8)
80017850:	8fc20024 	lw	v0,36(s8)
80017854:	ac430000 	sw	v1,0(v0)
80017858:	8fc20028 	lw	v0,40(s8)
8001785c:	00402021 	move	a0,v0
80017860:	24050001 	li	a1,1
80017864:	0c005492 	jal	80015248 <free_pages>
80017868:	00000000 	nop
8001786c:	8fc20018 	lw	v0,24(s8)
80017870:	24420001 	addiu	v0,v0,1
80017874:	afc20018 	sw	v0,24(s8)
80017878:	8fc30018 	lw	v1,24(s8)
8001787c:	8fc2003c 	lw	v0,60(s8)
80017880:	1462ff97 	bne	v1,v0,800176e0 <swap_out+0x28>
80017884:	00000000 	nop
80017888:	8fc20018 	lw	v0,24(s8)
8001788c:	03c0e821 	move	sp,s8
80017890:	8fbf0034 	lw	ra,52(sp)
80017894:	8fbe0030 	lw	s8,48(sp)
80017898:	27bd0038 	addiu	sp,sp,56
8001789c:	03e00008 	jr	ra
800178a0:	00000000 	nop

800178a4 <swap_in>:
800178a4:	27bdffd0 	addiu	sp,sp,-48
800178a8:	afbf002c 	sw	ra,44(sp)
800178ac:	afbe0028 	sw	s8,40(sp)
800178b0:	03a0f021 	move	s8,sp
800178b4:	afc40030 	sw	a0,48(s8)
800178b8:	afc50034 	sw	a1,52(s8)
800178bc:	afc60038 	sw	a2,56(s8)
800178c0:	24040001 	li	a0,1
800178c4:	0c005462 	jal	80015188 <alloc_pages>
800178c8:	00000000 	nop
800178cc:	afc20018 	sw	v0,24(s8)
800178d0:	8fc20018 	lw	v0,24(s8)
800178d4:	1440000a 	bnez	v0,80017900 <swap_in+0x5c>
800178d8:	00000000 	nop
800178dc:	3c028002 	lui	v0,0x8002
800178e0:	244432a4 	addiu	a0,v0,12964
800178e4:	2405007c 	li	a1,124
800178e8:	3c028002 	lui	v0,0x8002
800178ec:	24463314 	addiu	a2,v0,13076
800178f0:	3c028002 	lui	v0,0x8002
800178f4:	2447339c 	addiu	a3,v0,13212
800178f8:	0c004544 	jal	80011510 <__panic>
800178fc:	00000000 	nop
80017900:	8fc20030 	lw	v0,48(s8)
80017904:	8c42000c 	lw	v0,12(v0)
80017908:	00402021 	move	a0,v0
8001790c:	8fc50034 	lw	a1,52(s8)
80017910:	00003021 	move	a2,zero
80017914:	0c005621 	jal	80015884 <get_pte>
80017918:	00000000 	nop
8001791c:	afc2001c 	sw	v0,28(s8)
80017920:	8fc2001c 	lw	v0,28(s8)
80017924:	8c420000 	lw	v0,0(v0)
80017928:	00402021 	move	a0,v0
8001792c:	8fc50018 	lw	a1,24(s8)
80017930:	0c007342 	jal	8001cd08 <swapfs_read>
80017934:	00000000 	nop
80017938:	afc20020 	sw	v0,32(s8)
8001793c:	8fc20020 	lw	v0,32(s8)
80017940:	1040000d 	beqz	v0,80017978 <swap_in+0xd4>
80017944:	00000000 	nop
80017948:	8fc20020 	lw	v0,32(s8)
8001794c:	1440000a 	bnez	v0,80017978 <swap_in+0xd4>
80017950:	00000000 	nop
80017954:	3c028002 	lui	v0,0x8002
80017958:	244432a4 	addiu	a0,v0,12964
8001795c:	24050084 	li	a1,132
80017960:	3c028002 	lui	v0,0x8002
80017964:	24463314 	addiu	a2,v0,13076
80017968:	3c028002 	lui	v0,0x8002
8001796c:	244733ac 	addiu	a3,v0,13228
80017970:	0c004544 	jal	80011510 <__panic>
80017974:	00000000 	nop
80017978:	8fc2001c 	lw	v0,28(s8)
8001797c:	8c420000 	lw	v0,0(v0)
80017980:	00021202 	srl	v0,v0,0x8
80017984:	3c038002 	lui	v1,0x8002
80017988:	246433b4 	addiu	a0,v1,13236
8001798c:	00402821 	move	a1,v0
80017990:	8fc60034 	lw	a2,52(s8)
80017994:	0c00413e 	jal	800104f8 <cprintf>
80017998:	00000000 	nop
8001799c:	8fc20038 	lw	v0,56(s8)
800179a0:	8fc30018 	lw	v1,24(s8)
800179a4:	ac430000 	sw	v1,0(v0)
800179a8:	00001021 	move	v0,zero
800179ac:	03c0e821 	move	sp,s8
800179b0:	8fbf002c 	lw	ra,44(sp)
800179b4:	8fbe0028 	lw	s8,40(sp)
800179b8:	27bd0030 	addiu	sp,sp,48
800179bc:	03e00008 	jr	ra
800179c0:	00000000 	nop

800179c4 <check_content_set>:
800179c4:	27bdffe0 	addiu	sp,sp,-32
800179c8:	afbf001c 	sw	ra,28(sp)
800179cc:	afbe0018 	sw	s8,24(sp)
800179d0:	03a0f021 	move	s8,sp
800179d4:	24021000 	li	v0,4096
800179d8:	2403000a 	li	v1,10
800179dc:	a0430000 	sb	v1,0(v0)
800179e0:	3c028036 	lui	v0,0x8036
800179e4:	8c430060 	lw	v1,96(v0)
800179e8:	24020001 	li	v0,1
800179ec:	1062000a 	beq	v1,v0,80017a18 <check_content_set+0x54>
800179f0:	00000000 	nop
800179f4:	3c028002 	lui	v0,0x8002
800179f8:	244432a4 	addiu	a0,v0,12964
800179fc:	24050091 	li	a1,145
80017a00:	3c028002 	lui	v0,0x8002
80017a04:	24463314 	addiu	a2,v0,13076
80017a08:	3c028002 	lui	v0,0x8002
80017a0c:	244733f4 	addiu	a3,v0,13300
80017a10:	0c004544 	jal	80011510 <__panic>
80017a14:	00000000 	nop
80017a18:	24021010 	li	v0,4112
80017a1c:	2403000a 	li	v1,10
80017a20:	a0430000 	sb	v1,0(v0)
80017a24:	3c028036 	lui	v0,0x8036
80017a28:	8c430060 	lw	v1,96(v0)
80017a2c:	24020001 	li	v0,1
80017a30:	1062000a 	beq	v1,v0,80017a5c <check_content_set+0x98>
80017a34:	00000000 	nop
80017a38:	3c028002 	lui	v0,0x8002
80017a3c:	244432a4 	addiu	a0,v0,12964
80017a40:	24050093 	li	a1,147
80017a44:	3c028002 	lui	v0,0x8002
80017a48:	24463314 	addiu	a2,v0,13076
80017a4c:	3c028002 	lui	v0,0x8002
80017a50:	244733f4 	addiu	a3,v0,13300
80017a54:	0c004544 	jal	80011510 <__panic>
80017a58:	00000000 	nop
80017a5c:	24022000 	li	v0,8192
80017a60:	2403000b 	li	v1,11
80017a64:	a0430000 	sb	v1,0(v0)
80017a68:	3c028036 	lui	v0,0x8036
80017a6c:	8c430060 	lw	v1,96(v0)
80017a70:	24020002 	li	v0,2
80017a74:	1062000a 	beq	v1,v0,80017aa0 <check_content_set+0xdc>
80017a78:	00000000 	nop
80017a7c:	3c028002 	lui	v0,0x8002
80017a80:	244432a4 	addiu	a0,v0,12964
80017a84:	24050095 	li	a1,149
80017a88:	3c028002 	lui	v0,0x8002
80017a8c:	24463314 	addiu	a2,v0,13076
80017a90:	3c028002 	lui	v0,0x8002
80017a94:	24473404 	addiu	a3,v0,13316
80017a98:	0c004544 	jal	80011510 <__panic>
80017a9c:	00000000 	nop
80017aa0:	24022010 	li	v0,8208
80017aa4:	2403000b 	li	v1,11
80017aa8:	a0430000 	sb	v1,0(v0)
80017aac:	3c028036 	lui	v0,0x8036
80017ab0:	8c430060 	lw	v1,96(v0)
80017ab4:	24020002 	li	v0,2
80017ab8:	1062000a 	beq	v1,v0,80017ae4 <check_content_set+0x120>
80017abc:	00000000 	nop
80017ac0:	3c028002 	lui	v0,0x8002
80017ac4:	244432a4 	addiu	a0,v0,12964
80017ac8:	24050097 	li	a1,151
80017acc:	3c028002 	lui	v0,0x8002
80017ad0:	24463314 	addiu	a2,v0,13076
80017ad4:	3c028002 	lui	v0,0x8002
80017ad8:	24473404 	addiu	a3,v0,13316
80017adc:	0c004544 	jal	80011510 <__panic>
80017ae0:	00000000 	nop
80017ae4:	24023000 	li	v0,12288
80017ae8:	2403000c 	li	v1,12
80017aec:	a0430000 	sb	v1,0(v0)
80017af0:	3c028036 	lui	v0,0x8036
80017af4:	8c430060 	lw	v1,96(v0)
80017af8:	24020003 	li	v0,3
80017afc:	1062000a 	beq	v1,v0,80017b28 <check_content_set+0x164>
80017b00:	00000000 	nop
80017b04:	3c028002 	lui	v0,0x8002
80017b08:	244432a4 	addiu	a0,v0,12964
80017b0c:	24050099 	li	a1,153
80017b10:	3c028002 	lui	v0,0x8002
80017b14:	24463314 	addiu	a2,v0,13076
80017b18:	3c028002 	lui	v0,0x8002
80017b1c:	24473414 	addiu	a3,v0,13332
80017b20:	0c004544 	jal	80011510 <__panic>
80017b24:	00000000 	nop
80017b28:	24023010 	li	v0,12304
80017b2c:	2403000c 	li	v1,12
80017b30:	a0430000 	sb	v1,0(v0)
80017b34:	3c028036 	lui	v0,0x8036
80017b38:	8c430060 	lw	v1,96(v0)
80017b3c:	24020003 	li	v0,3
80017b40:	1062000a 	beq	v1,v0,80017b6c <check_content_set+0x1a8>
80017b44:	00000000 	nop
80017b48:	3c028002 	lui	v0,0x8002
80017b4c:	244432a4 	addiu	a0,v0,12964
80017b50:	2405009b 	li	a1,155
80017b54:	3c028002 	lui	v0,0x8002
80017b58:	24463314 	addiu	a2,v0,13076
80017b5c:	3c028002 	lui	v0,0x8002
80017b60:	24473414 	addiu	a3,v0,13332
80017b64:	0c004544 	jal	80011510 <__panic>
80017b68:	00000000 	nop
80017b6c:	24024000 	li	v0,16384
80017b70:	2403000d 	li	v1,13
80017b74:	a0430000 	sb	v1,0(v0)
80017b78:	3c028036 	lui	v0,0x8036
80017b7c:	8c430060 	lw	v1,96(v0)
80017b80:	24020004 	li	v0,4
80017b84:	1062000a 	beq	v1,v0,80017bb0 <check_content_set+0x1ec>
80017b88:	00000000 	nop
80017b8c:	3c028002 	lui	v0,0x8002
80017b90:	244432a4 	addiu	a0,v0,12964
80017b94:	2405009d 	li	a1,157
80017b98:	3c028002 	lui	v0,0x8002
80017b9c:	24463314 	addiu	a2,v0,13076
80017ba0:	3c028002 	lui	v0,0x8002
80017ba4:	24473424 	addiu	a3,v0,13348
80017ba8:	0c004544 	jal	80011510 <__panic>
80017bac:	00000000 	nop
80017bb0:	24024010 	li	v0,16400
80017bb4:	2403000d 	li	v1,13
80017bb8:	a0430000 	sb	v1,0(v0)
80017bbc:	3c028036 	lui	v0,0x8036
80017bc0:	8c430060 	lw	v1,96(v0)
80017bc4:	24020004 	li	v0,4
80017bc8:	1062000a 	beq	v1,v0,80017bf4 <check_content_set+0x230>
80017bcc:	00000000 	nop
80017bd0:	3c028002 	lui	v0,0x8002
80017bd4:	244432a4 	addiu	a0,v0,12964
80017bd8:	2405009f 	li	a1,159
80017bdc:	3c028002 	lui	v0,0x8002
80017be0:	24463314 	addiu	a2,v0,13076
80017be4:	3c028002 	lui	v0,0x8002
80017be8:	24473424 	addiu	a3,v0,13348
80017bec:	0c004544 	jal	80011510 <__panic>
80017bf0:	00000000 	nop
80017bf4:	03c0e821 	move	sp,s8
80017bf8:	8fbf001c 	lw	ra,28(sp)
80017bfc:	8fbe0018 	lw	s8,24(sp)
80017c00:	27bd0020 	addiu	sp,sp,32
80017c04:	03e00008 	jr	ra
80017c08:	00000000 	nop

80017c0c <check_content_access>:
80017c0c:	27bdffd8 	addiu	sp,sp,-40
80017c10:	afbf0024 	sw	ra,36(sp)
80017c14:	afbe0020 	sw	s8,32(sp)
80017c18:	03a0f021 	move	s8,sp
80017c1c:	3c028036 	lui	v0,0x8036
80017c20:	8c420048 	lw	v0,72(v0)
80017c24:	8c42001c 	lw	v0,28(v0)
80017c28:	0040c821 	move	t9,v0
80017c2c:	0320f809 	jalr	t9
80017c30:	00000000 	nop
80017c34:	afc20018 	sw	v0,24(s8)
80017c38:	8fc20018 	lw	v0,24(s8)
80017c3c:	03c0e821 	move	sp,s8
80017c40:	8fbf0024 	lw	ra,36(sp)
80017c44:	8fbe0020 	lw	s8,32(sp)
80017c48:	27bd0028 	addiu	sp,sp,40
80017c4c:	03e00008 	jr	ra
80017c50:	00000000 	nop

80017c54 <check_swap>:
80017c54:	27bdff70 	addiu	sp,sp,-144
80017c58:	afbf008c 	sw	ra,140(sp)
80017c5c:	afbe0088 	sw	s8,136(sp)
80017c60:	afb00084 	sw	s0,132(sp)
80017c64:	03a0f021 	move	s8,sp
80017c68:	afc00018 	sw	zero,24(s8)
80017c6c:	afc0001c 	sw	zero,28(s8)
80017c70:	3c028036 	lui	v0,0x8036
80017c74:	244220f0 	addiu	v0,v0,8432
80017c78:	afc20024 	sw	v0,36(s8)
80017c7c:	08005f4c 	j	80017d30 <check_swap+0xdc>
80017c80:	00000000 	nop
80017c84:	8fc20024 	lw	v0,36(s8)
80017c88:	2442fff4 	addiu	v0,v0,-12
80017c8c:	afc20028 	sw	v0,40(s8)
80017c90:	8fc20028 	lw	v0,40(s8)
80017c94:	24420004 	addiu	v0,v0,4
80017c98:	24030001 	li	v1,1
80017c9c:	afc30048 	sw	v1,72(s8)
80017ca0:	afc2004c 	sw	v0,76(s8)
80017ca4:	0c005cc0 	jal	80017300 <__intr_save>
80017ca8:	00000000 	nop
80017cac:	afc20050 	sw	v0,80(s8)
80017cb0:	8fc2004c 	lw	v0,76(s8)
80017cb4:	8c430000 	lw	v1,0(v0)
80017cb8:	24040001 	li	a0,1
80017cbc:	8fc20048 	lw	v0,72(s8)
80017cc0:	00441004 	sllv	v0,a0,v0
80017cc4:	00621024 	and	v0,v1,v0
80017cc8:	afc20054 	sw	v0,84(s8)
80017ccc:	8fc40050 	lw	a0,80(s8)
80017cd0:	0c005cd6 	jal	80017358 <__intr_restore>
80017cd4:	00000000 	nop
80017cd8:	8fc20054 	lw	v0,84(s8)
80017cdc:	0002102b 	sltu	v0,zero,v0
80017ce0:	304200ff 	andi	v0,v0,0xff
80017ce4:	1440000a 	bnez	v0,80017d10 <check_swap+0xbc>
80017ce8:	00000000 	nop
80017cec:	3c028002 	lui	v0,0x8002
80017cf0:	244432a4 	addiu	a0,v0,12964
80017cf4:	240500ba 	li	a1,186
80017cf8:	3c028002 	lui	v0,0x8002
80017cfc:	24463314 	addiu	a2,v0,13076
80017d00:	3c028002 	lui	v0,0x8002
80017d04:	24473434 	addiu	a3,v0,13364
80017d08:	0c004544 	jal	80011510 <__panic>
80017d0c:	00000000 	nop
80017d10:	8fc20018 	lw	v0,24(s8)
80017d14:	24420001 	addiu	v0,v0,1
80017d18:	afc20018 	sw	v0,24(s8)
80017d1c:	8fc20028 	lw	v0,40(s8)
80017d20:	8c430008 	lw	v1,8(v0)
80017d24:	8fc2001c 	lw	v0,28(s8)
80017d28:	00621021 	addu	v0,v1,v0
80017d2c:	afc2001c 	sw	v0,28(s8)
80017d30:	8fc20024 	lw	v0,36(s8)
80017d34:	afc20058 	sw	v0,88(s8)
80017d38:	8fc20058 	lw	v0,88(s8)
80017d3c:	8c420004 	lw	v0,4(v0)
80017d40:	afc20024 	sw	v0,36(s8)
80017d44:	8fc30024 	lw	v1,36(s8)
80017d48:	3c028036 	lui	v0,0x8036
80017d4c:	244220f0 	addiu	v0,v0,8432
80017d50:	1462ffcc 	bne	v1,v0,80017c84 <check_swap+0x30>
80017d54:	00000000 	nop
80017d58:	8fd0001c 	lw	s0,28(s8)
80017d5c:	0c0054ac 	jal	800152b0 <nr_free_pages>
80017d60:	00000000 	nop
80017d64:	1202000a 	beq	s0,v0,80017d90 <check_swap+0x13c>
80017d68:	00000000 	nop
80017d6c:	3c028002 	lui	v0,0x8002
80017d70:	244432a4 	addiu	a0,v0,12964
80017d74:	240500bd 	li	a1,189
80017d78:	3c028002 	lui	v0,0x8002
80017d7c:	24463314 	addiu	a2,v0,13076
80017d80:	3c028002 	lui	v0,0x8002
80017d84:	24473444 	addiu	a3,v0,13380
80017d88:	0c004544 	jal	80011510 <__panic>
80017d8c:	00000000 	nop
80017d90:	3c028002 	lui	v0,0x8002
80017d94:	24443460 	addiu	a0,v0,13408
80017d98:	8fc50018 	lw	a1,24(s8)
80017d9c:	8fc6001c 	lw	a2,28(s8)
80017da0:	0c00413e 	jal	800104f8 <cprintf>
80017da4:	00000000 	nop
80017da8:	0c00662b 	jal	800198ac <mm_create>
80017dac:	00000000 	nop
80017db0:	afc2002c 	sw	v0,44(s8)
80017db4:	8fc2002c 	lw	v0,44(s8)
80017db8:	1440000a 	bnez	v0,80017de4 <check_swap+0x190>
80017dbc:	00000000 	nop
80017dc0:	3c028002 	lui	v0,0x8002
80017dc4:	244432a4 	addiu	a0,v0,12964
80017dc8:	240500c2 	li	a1,194
80017dcc:	3c028002 	lui	v0,0x8002
80017dd0:	24463314 	addiu	a2,v0,13076
80017dd4:	3c028002 	lui	v0,0x8002
80017dd8:	24473488 	addiu	a3,v0,13448
80017ddc:	0c004544 	jal	80011510 <__panic>
80017de0:	00000000 	nop
80017de4:	3c028036 	lui	v0,0x8036
80017de8:	8c4222bc 	lw	v0,8892(v0)
80017dec:	1040000a 	beqz	v0,80017e18 <check_swap+0x1c4>
80017df0:	00000000 	nop
80017df4:	3c028002 	lui	v0,0x8002
80017df8:	244432a4 	addiu	a0,v0,12964
80017dfc:	240500c5 	li	a1,197
80017e00:	3c028002 	lui	v0,0x8002
80017e04:	24463314 	addiu	a2,v0,13076
80017e08:	3c028002 	lui	v0,0x8002
80017e0c:	24473494 	addiu	a3,v0,13460
80017e10:	0c004544 	jal	80011510 <__panic>
80017e14:	00000000 	nop
80017e18:	3c028036 	lui	v0,0x8036
80017e1c:	8fc3002c 	lw	v1,44(s8)
80017e20:	ac4322bc 	sw	v1,8892(v0)
80017e24:	3c028036 	lui	v0,0x8036
80017e28:	8c430034 	lw	v1,52(v0)
80017e2c:	8fc2002c 	lw	v0,44(s8)
80017e30:	ac43000c 	sw	v1,12(v0)
80017e34:	8fc2002c 	lw	v0,44(s8)
80017e38:	8c42000c 	lw	v0,12(v0)
80017e3c:	afc20030 	sw	v0,48(s8)
80017e40:	8fc20030 	lw	v0,48(s8)
80017e44:	8c420000 	lw	v0,0(v0)
80017e48:	1040000a 	beqz	v0,80017e74 <check_swap+0x220>
80017e4c:	00000000 	nop
80017e50:	3c028002 	lui	v0,0x8002
80017e54:	244432a4 	addiu	a0,v0,12964
80017e58:	240500ca 	li	a1,202
80017e5c:	3c028002 	lui	v0,0x8002
80017e60:	24463314 	addiu	a2,v0,13076
80017e64:	3c028002 	lui	v0,0x8002
80017e68:	244734ac 	addiu	a3,v0,13484
80017e6c:	0c004544 	jal	80011510 <__panic>
80017e70:	00000000 	nop
80017e74:	24041000 	li	a0,4096
80017e78:	24056000 	li	a1,24576
80017e7c:	24060003 	li	a2,3
80017e80:	0c006661 	jal	80019984 <vma_create>
80017e84:	00000000 	nop
80017e88:	afc20034 	sw	v0,52(s8)
80017e8c:	8fc20034 	lw	v0,52(s8)
80017e90:	1440000a 	bnez	v0,80017ebc <check_swap+0x268>
80017e94:	00000000 	nop
80017e98:	3c028002 	lui	v0,0x8002
80017e9c:	244432a4 	addiu	a0,v0,12964
80017ea0:	240500cd 	li	a1,205
80017ea4:	3c028002 	lui	v0,0x8002
80017ea8:	24463314 	addiu	a2,v0,13076
80017eac:	3c028002 	lui	v0,0x8002
80017eb0:	244734bc 	addiu	a3,v0,13500
80017eb4:	0c004544 	jal	80011510 <__panic>
80017eb8:	00000000 	nop
80017ebc:	8fc4002c 	lw	a0,44(s8)
80017ec0:	8fc50034 	lw	a1,52(s8)
80017ec4:	0c006709 	jal	80019c24 <insert_vma_struct>
80017ec8:	00000000 	nop
80017ecc:	3c028002 	lui	v0,0x8002
80017ed0:	244434c8 	addiu	a0,v0,13512
80017ed4:	0c00413e 	jal	800104f8 <cprintf>
80017ed8:	00000000 	nop
80017edc:	afc00038 	sw	zero,56(s8)
80017ee0:	8fc2002c 	lw	v0,44(s8)
80017ee4:	8c42000c 	lw	v0,12(v0)
80017ee8:	00402021 	move	a0,v0
80017eec:	24051000 	li	a1,4096
80017ef0:	24060001 	li	a2,1
80017ef4:	0c005621 	jal	80015884 <get_pte>
80017ef8:	00000000 	nop
80017efc:	afc20038 	sw	v0,56(s8)
80017f00:	8fc20038 	lw	v0,56(s8)
80017f04:	1440000a 	bnez	v0,80017f30 <check_swap+0x2dc>
80017f08:	00000000 	nop
80017f0c:	3c028002 	lui	v0,0x8002
80017f10:	244432a4 	addiu	a0,v0,12964
80017f14:	240500d5 	li	a1,213
80017f18:	3c028002 	lui	v0,0x8002
80017f1c:	24463314 	addiu	a2,v0,13076
80017f20:	3c028002 	lui	v0,0x8002
80017f24:	244734fc 	addiu	a3,v0,13564
80017f28:	0c004544 	jal	80011510 <__panic>
80017f2c:	00000000 	nop
80017f30:	3c028002 	lui	v0,0x8002
80017f34:	24443510 	addiu	a0,v0,13584
80017f38:	0c00413e 	jal	800104f8 <cprintf>
80017f3c:	00000000 	nop
80017f40:	afc00020 	sw	zero,32(s8)
80017f44:	08006016 	j	80018058 <check_swap+0x404>
80017f48:	00000000 	nop
80017f4c:	24040001 	li	a0,1
80017f50:	0c005462 	jal	80015188 <alloc_pages>
80017f54:	00000000 	nop
80017f58:	00401821 	move	v1,v0
80017f5c:	3c028036 	lui	v0,0x8036
80017f60:	8fc40020 	lw	a0,32(s8)
80017f64:	00042080 	sll	a0,a0,0x2
80017f68:	244220fc 	addiu	v0,v0,8444
80017f6c:	00821021 	addu	v0,a0,v0
80017f70:	ac430000 	sw	v1,0(v0)
80017f74:	3c028036 	lui	v0,0x8036
80017f78:	8fc30020 	lw	v1,32(s8)
80017f7c:	00031880 	sll	v1,v1,0x2
80017f80:	244220fc 	addiu	v0,v0,8444
80017f84:	00621021 	addu	v0,v1,v0
80017f88:	8c420000 	lw	v0,0(v0)
80017f8c:	1440000a 	bnez	v0,80017fb8 <check_swap+0x364>
80017f90:	00000000 	nop
80017f94:	3c028002 	lui	v0,0x8002
80017f98:	244432a4 	addiu	a0,v0,12964
80017f9c:	240500da 	li	a1,218
80017fa0:	3c028002 	lui	v0,0x8002
80017fa4:	24463314 	addiu	a2,v0,13076
80017fa8:	3c028002 	lui	v0,0x8002
80017fac:	24473534 	addiu	a3,v0,13620
80017fb0:	0c004544 	jal	80011510 <__panic>
80017fb4:	00000000 	nop
80017fb8:	3c028036 	lui	v0,0x8036
80017fbc:	8fc30020 	lw	v1,32(s8)
80017fc0:	00031880 	sll	v1,v1,0x2
80017fc4:	244220fc 	addiu	v0,v0,8444
80017fc8:	00621021 	addu	v0,v1,v0
80017fcc:	8c420000 	lw	v0,0(v0)
80017fd0:	24420004 	addiu	v0,v0,4
80017fd4:	24030001 	li	v1,1
80017fd8:	afc3005c 	sw	v1,92(s8)
80017fdc:	afc20060 	sw	v0,96(s8)
80017fe0:	0c005cc0 	jal	80017300 <__intr_save>
80017fe4:	00000000 	nop
80017fe8:	afc20064 	sw	v0,100(s8)
80017fec:	8fc20060 	lw	v0,96(s8)
80017ff0:	8c430000 	lw	v1,0(v0)
80017ff4:	24040001 	li	a0,1
80017ff8:	8fc2005c 	lw	v0,92(s8)
80017ffc:	00441004 	sllv	v0,a0,v0
80018000:	00621024 	and	v0,v1,v0
80018004:	afc20068 	sw	v0,104(s8)
80018008:	8fc40064 	lw	a0,100(s8)
8001800c:	0c005cd6 	jal	80017358 <__intr_restore>
80018010:	00000000 	nop
80018014:	8fc20068 	lw	v0,104(s8)
80018018:	0002102b 	sltu	v0,zero,v0
8001801c:	304200ff 	andi	v0,v0,0xff
80018020:	1040000a 	beqz	v0,8001804c <check_swap+0x3f8>
80018024:	00000000 	nop
80018028:	3c028002 	lui	v0,0x8002
8001802c:	244432a4 	addiu	a0,v0,12964
80018030:	240500db 	li	a1,219
80018034:	3c028002 	lui	v0,0x8002
80018038:	24463314 	addiu	a2,v0,13076
8001803c:	3c028002 	lui	v0,0x8002
80018040:	24473548 	addiu	a3,v0,13640
80018044:	0c004544 	jal	80011510 <__panic>
80018048:	00000000 	nop
8001804c:	8fc20020 	lw	v0,32(s8)
80018050:	24420001 	addiu	v0,v0,1
80018054:	afc20020 	sw	v0,32(s8)
80018058:	8fc20020 	lw	v0,32(s8)
8001805c:	28420004 	slti	v0,v0,4
80018060:	1440ffba 	bnez	v0,80017f4c <check_swap+0x2f8>
80018064:	00000000 	nop
80018068:	3c028036 	lui	v0,0x8036
8001806c:	8c4320f0 	lw	v1,8432(v0)
80018070:	244220f0 	addiu	v0,v0,8432
80018074:	8c420004 	lw	v0,4(v0)
80018078:	afc30078 	sw	v1,120(s8)
8001807c:	afc2007c 	sw	v0,124(s8)
80018080:	3c028036 	lui	v0,0x8036
80018084:	244220f0 	addiu	v0,v0,8432
80018088:	afc2006c 	sw	v0,108(s8)
8001808c:	8fc2006c 	lw	v0,108(s8)
80018090:	8fc3006c 	lw	v1,108(s8)
80018094:	ac430004 	sw	v1,4(v0)
80018098:	8fc2006c 	lw	v0,108(s8)
8001809c:	8c430004 	lw	v1,4(v0)
800180a0:	8fc2006c 	lw	v0,108(s8)
800180a4:	ac430000 	sw	v1,0(v0)
800180a8:	3c028036 	lui	v0,0x8036
800180ac:	244220f0 	addiu	v0,v0,8432
800180b0:	afc20070 	sw	v0,112(s8)
800180b4:	8fc20070 	lw	v0,112(s8)
800180b8:	8c430004 	lw	v1,4(v0)
800180bc:	8fc20070 	lw	v0,112(s8)
800180c0:	00621026 	xor	v0,v1,v0
800180c4:	2c420001 	sltiu	v0,v0,1
800180c8:	304200ff 	andi	v0,v0,0xff
800180cc:	1440000a 	bnez	v0,800180f8 <check_swap+0x4a4>
800180d0:	00000000 	nop
800180d4:	3c028002 	lui	v0,0x8002
800180d8:	244432a4 	addiu	a0,v0,12964
800180dc:	240500df 	li	a1,223
800180e0:	3c028002 	lui	v0,0x8002
800180e4:	24463314 	addiu	a2,v0,13076
800180e8:	3c028002 	lui	v0,0x8002
800180ec:	24473564 	addiu	a3,v0,13668
800180f0:	0c004544 	jal	80011510 <__panic>
800180f4:	00000000 	nop
800180f8:	3c028036 	lui	v0,0x8036
800180fc:	244220f0 	addiu	v0,v0,8432
80018100:	8c420008 	lw	v0,8(v0)
80018104:	afc2003c 	sw	v0,60(s8)
80018108:	3c028036 	lui	v0,0x8036
8001810c:	244220f0 	addiu	v0,v0,8432
80018110:	ac400008 	sw	zero,8(v0)
80018114:	afc00020 	sw	zero,32(s8)
80018118:	08006055 	j	80018154 <check_swap+0x500>
8001811c:	00000000 	nop
80018120:	3c028036 	lui	v0,0x8036
80018124:	8fc30020 	lw	v1,32(s8)
80018128:	00031880 	sll	v1,v1,0x2
8001812c:	244220fc 	addiu	v0,v0,8444
80018130:	00621021 	addu	v0,v1,v0
80018134:	8c420000 	lw	v0,0(v0)
80018138:	00402021 	move	a0,v0
8001813c:	24050001 	li	a1,1
80018140:	0c005492 	jal	80015248 <free_pages>
80018144:	00000000 	nop
80018148:	8fc20020 	lw	v0,32(s8)
8001814c:	24420001 	addiu	v0,v0,1
80018150:	afc20020 	sw	v0,32(s8)
80018154:	8fc20020 	lw	v0,32(s8)
80018158:	28420004 	slti	v0,v0,4
8001815c:	1440fff0 	bnez	v0,80018120 <check_swap+0x4cc>
80018160:	00000000 	nop
80018164:	3c028036 	lui	v0,0x8036
80018168:	244220f0 	addiu	v0,v0,8432
8001816c:	8c430008 	lw	v1,8(v0)
80018170:	24020004 	li	v0,4
80018174:	1062000a 	beq	v1,v0,800181a0 <check_swap+0x54c>
80018178:	00000000 	nop
8001817c:	3c028002 	lui	v0,0x8002
80018180:	244432a4 	addiu	a0,v0,12964
80018184:	240500e8 	li	a1,232
80018188:	3c028002 	lui	v0,0x8002
8001818c:	24463314 	addiu	a2,v0,13076
80018190:	3c028002 	lui	v0,0x8002
80018194:	2447357c 	addiu	a3,v0,13692
80018198:	0c004544 	jal	80011510 <__panic>
8001819c:	00000000 	nop
800181a0:	3c028002 	lui	v0,0x8002
800181a4:	244435a0 	addiu	a0,v0,13728
800181a8:	0c00413e 	jal	800104f8 <cprintf>
800181ac:	00000000 	nop
800181b0:	3c028036 	lui	v0,0x8036
800181b4:	ac400060 	sw	zero,96(v0)
800181b8:	0c005e71 	jal	800179c4 <check_content_set>
800181bc:	00000000 	nop
800181c0:	3c028036 	lui	v0,0x8036
800181c4:	244220f0 	addiu	v0,v0,8432
800181c8:	8c420008 	lw	v0,8(v0)
800181cc:	1040000a 	beqz	v0,800181f8 <check_swap+0x5a4>
800181d0:	00000000 	nop
800181d4:	3c028002 	lui	v0,0x8002
800181d8:	244432a4 	addiu	a0,v0,12964
800181dc:	240500f1 	li	a1,241
800181e0:	3c028002 	lui	v0,0x8002
800181e4:	24463314 	addiu	a2,v0,13076
800181e8:	3c028002 	lui	v0,0x8002
800181ec:	244735c8 	addiu	a3,v0,13768
800181f0:	0c004544 	jal	80011510 <__panic>
800181f4:	00000000 	nop
800181f8:	afc00020 	sw	zero,32(s8)
800181fc:	08006097 	j	8001825c <check_swap+0x608>
80018200:	00000000 	nop
80018204:	3c028036 	lui	v0,0x8036
80018208:	8fc30020 	lw	v1,32(s8)
8001820c:	00031880 	sll	v1,v1,0x2
80018210:	2442210c 	addiu	v0,v0,8460
80018214:	00621021 	addu	v0,v1,v0
80018218:	2403ffff 	li	v1,-1
8001821c:	ac430000 	sw	v1,0(v0)
80018220:	3c028036 	lui	v0,0x8036
80018224:	8fc30020 	lw	v1,32(s8)
80018228:	00031880 	sll	v1,v1,0x2
8001822c:	2442210c 	addiu	v0,v0,8460
80018230:	00621021 	addu	v0,v1,v0
80018234:	8c430000 	lw	v1,0(v0)
80018238:	3c028036 	lui	v0,0x8036
8001823c:	8fc40020 	lw	a0,32(s8)
80018240:	00042080 	sll	a0,a0,0x2
80018244:	24422134 	addiu	v0,v0,8500
80018248:	00821021 	addu	v0,a0,v0
8001824c:	ac430000 	sw	v1,0(v0)
80018250:	8fc20020 	lw	v0,32(s8)
80018254:	24420001 	addiu	v0,v0,1
80018258:	afc20020 	sw	v0,32(s8)
8001825c:	8fc20020 	lw	v0,32(s8)
80018260:	2842000a 	slti	v0,v0,10
80018264:	1440ffe7 	bnez	v0,80018204 <check_swap+0x5b0>
80018268:	00000000 	nop
8001826c:	afc00020 	sw	zero,32(s8)
80018270:	080060f6 	j	800183d8 <check_swap+0x784>
80018274:	00000000 	nop
80018278:	3c028036 	lui	v0,0x8036
8001827c:	8fc30020 	lw	v1,32(s8)
80018280:	00031880 	sll	v1,v1,0x2
80018284:	24422184 	addiu	v0,v0,8580
80018288:	00621021 	addu	v0,v1,v0
8001828c:	ac400000 	sw	zero,0(v0)
80018290:	8fc20020 	lw	v0,32(s8)
80018294:	24420001 	addiu	v0,v0,1
80018298:	00021300 	sll	v0,v0,0xc
8001829c:	8fc40030 	lw	a0,48(s8)
800182a0:	00402821 	move	a1,v0
800182a4:	00003021 	move	a2,zero
800182a8:	0c005621 	jal	80015884 <get_pte>
800182ac:	00000000 	nop
800182b0:	00401821 	move	v1,v0
800182b4:	3c028036 	lui	v0,0x8036
800182b8:	8fc40020 	lw	a0,32(s8)
800182bc:	00042080 	sll	a0,a0,0x2
800182c0:	24422184 	addiu	v0,v0,8580
800182c4:	00821021 	addu	v0,a0,v0
800182c8:	ac430000 	sw	v1,0(v0)
800182cc:	3c028036 	lui	v0,0x8036
800182d0:	8fc30020 	lw	v1,32(s8)
800182d4:	00031880 	sll	v1,v1,0x2
800182d8:	24422184 	addiu	v0,v0,8580
800182dc:	00621021 	addu	v0,v1,v0
800182e0:	8c420000 	lw	v0,0(v0)
800182e4:	1440000a 	bnez	v0,80018310 <check_swap+0x6bc>
800182e8:	00000000 	nop
800182ec:	3c028002 	lui	v0,0x8002
800182f0:	244432a4 	addiu	a0,v0,12964
800182f4:	240500f9 	li	a1,249
800182f8:	3c028002 	lui	v0,0x8002
800182fc:	24463314 	addiu	a2,v0,13076
80018300:	3c028002 	lui	v0,0x8002
80018304:	244735d8 	addiu	a3,v0,13784
80018308:	0c004544 	jal	80011510 <__panic>
8001830c:	00000000 	nop
80018310:	3c028036 	lui	v0,0x8036
80018314:	8fc30020 	lw	v1,32(s8)
80018318:	00031880 	sll	v1,v1,0x2
8001831c:	24422184 	addiu	v0,v0,8580
80018320:	00621021 	addu	v0,v1,v0
80018324:	8c420000 	lw	v0,0(v0)
80018328:	8c420000 	lw	v0,0(v0)
8001832c:	00402021 	move	a0,v0
80018330:	0c005d05 	jal	80017414 <pte2page>
80018334:	00000000 	nop
80018338:	00401821 	move	v1,v0
8001833c:	3c028036 	lui	v0,0x8036
80018340:	8fc40020 	lw	a0,32(s8)
80018344:	00042080 	sll	a0,a0,0x2
80018348:	244220fc 	addiu	v0,v0,8444
8001834c:	00821021 	addu	v0,a0,v0
80018350:	8c420000 	lw	v0,0(v0)
80018354:	1062000a 	beq	v1,v0,80018380 <check_swap+0x72c>
80018358:	00000000 	nop
8001835c:	3c028002 	lui	v0,0x8002
80018360:	244432a4 	addiu	a0,v0,12964
80018364:	240500fa 	li	a1,250
80018368:	3c028002 	lui	v0,0x8002
8001836c:	24463314 	addiu	a2,v0,13076
80018370:	3c028002 	lui	v0,0x8002
80018374:	244735f0 	addiu	a3,v0,13808
80018378:	0c004544 	jal	80011510 <__panic>
8001837c:	00000000 	nop
80018380:	3c028036 	lui	v0,0x8036
80018384:	8fc30020 	lw	v1,32(s8)
80018388:	00031880 	sll	v1,v1,0x2
8001838c:	24422184 	addiu	v0,v0,8580
80018390:	00621021 	addu	v0,v1,v0
80018394:	8c420000 	lw	v0,0(v0)
80018398:	8c420000 	lw	v0,0(v0)
8001839c:	30420001 	andi	v0,v0,0x1
800183a0:	1440000a 	bnez	v0,800183cc <check_swap+0x778>
800183a4:	00000000 	nop
800183a8:	3c028002 	lui	v0,0x8002
800183ac:	244432a4 	addiu	a0,v0,12964
800183b0:	240500fb 	li	a1,251
800183b4:	3c028002 	lui	v0,0x8002
800183b8:	24463314 	addiu	a2,v0,13076
800183bc:	3c028002 	lui	v0,0x8002
800183c0:	24473618 	addiu	a3,v0,13848
800183c4:	0c004544 	jal	80011510 <__panic>
800183c8:	00000000 	nop
800183cc:	8fc20020 	lw	v0,32(s8)
800183d0:	24420001 	addiu	v0,v0,1
800183d4:	afc20020 	sw	v0,32(s8)
800183d8:	8fc20020 	lw	v0,32(s8)
800183dc:	28420004 	slti	v0,v0,4
800183e0:	1440ffa5 	bnez	v0,80018278 <check_swap+0x624>
800183e4:	00000000 	nop
800183e8:	3c028002 	lui	v0,0x8002
800183ec:	24443634 	addiu	a0,v0,13876
800183f0:	0c00413e 	jal	800104f8 <cprintf>
800183f4:	00000000 	nop
800183f8:	0c005f03 	jal	80017c0c <check_content_access>
800183fc:	00000000 	nop
80018400:	afc20040 	sw	v0,64(s8)
80018404:	8fc20040 	lw	v0,64(s8)
80018408:	1040000a 	beqz	v0,80018434 <check_swap+0x7e0>
8001840c:	00000000 	nop
80018410:	3c028002 	lui	v0,0x8002
80018414:	244432a4 	addiu	a0,v0,12964
80018418:	24050100 	li	a1,256
8001841c:	3c028002 	lui	v0,0x8002
80018420:	24463314 	addiu	a2,v0,13076
80018424:	3c028002 	lui	v0,0x8002
80018428:	2447365c 	addiu	a3,v0,13916
8001842c:	0c004544 	jal	80011510 <__panic>
80018430:	00000000 	nop
80018434:	3c028036 	lui	v0,0x8036
80018438:	244220f0 	addiu	v0,v0,8432
8001843c:	8fc3003c 	lw	v1,60(s8)
80018440:	ac430008 	sw	v1,8(v0)
80018444:	3c028036 	lui	v0,0x8036
80018448:	8fc40078 	lw	a0,120(s8)
8001844c:	8fc3007c 	lw	v1,124(s8)
80018450:	ac4420f0 	sw	a0,8432(v0)
80018454:	244220f0 	addiu	v0,v0,8432
80018458:	ac430004 	sw	v1,4(v0)
8001845c:	afc00020 	sw	zero,32(s8)
80018460:	08006127 	j	8001849c <check_swap+0x848>
80018464:	00000000 	nop
80018468:	3c028036 	lui	v0,0x8036
8001846c:	8fc30020 	lw	v1,32(s8)
80018470:	00031880 	sll	v1,v1,0x2
80018474:	244220fc 	addiu	v0,v0,8444
80018478:	00621021 	addu	v0,v1,v0
8001847c:	8c420000 	lw	v0,0(v0)
80018480:	00402021 	move	a0,v0
80018484:	24050001 	li	a1,1
80018488:	0c005492 	jal	80015248 <free_pages>
8001848c:	00000000 	nop
80018490:	8fc20020 	lw	v0,32(s8)
80018494:	24420001 	addiu	v0,v0,1
80018498:	afc20020 	sw	v0,32(s8)
8001849c:	8fc20020 	lw	v0,32(s8)
800184a0:	28420004 	slti	v0,v0,4
800184a4:	1440fff0 	bnez	v0,80018468 <check_swap+0x814>
800184a8:	00000000 	nop
800184ac:	8fc20030 	lw	v0,48(s8)
800184b0:	8c420000 	lw	v0,0(v0)
800184b4:	00402021 	move	a0,v0
800184b8:	0c005ce6 	jal	80017398 <pa2page>
800184bc:	00000000 	nop
800184c0:	00402021 	move	a0,v0
800184c4:	24050001 	li	a1,1
800184c8:	0c005492 	jal	80015248 <free_pages>
800184cc:	00000000 	nop
800184d0:	8fc20030 	lw	v0,48(s8)
800184d4:	ac400000 	sw	zero,0(v0)
800184d8:	8fc4002c 	lw	a0,44(s8)
800184dc:	0c00677e 	jal	80019df8 <mm_destroy>
800184e0:	00000000 	nop
800184e4:	3c028036 	lui	v0,0x8036
800184e8:	ac4022bc 	sw	zero,8892(v0)
800184ec:	3c028036 	lui	v0,0x8036
800184f0:	244220f0 	addiu	v0,v0,8432
800184f4:	afc20024 	sw	v0,36(s8)
800184f8:	0800614b 	j	8001852c <check_swap+0x8d8>
800184fc:	00000000 	nop
80018500:	8fc20024 	lw	v0,36(s8)
80018504:	2442fff4 	addiu	v0,v0,-12
80018508:	afc20044 	sw	v0,68(s8)
8001850c:	8fc20018 	lw	v0,24(s8)
80018510:	2442ffff 	addiu	v0,v0,-1
80018514:	afc20018 	sw	v0,24(s8)
80018518:	8fc3001c 	lw	v1,28(s8)
8001851c:	8fc20044 	lw	v0,68(s8)
80018520:	8c420008 	lw	v0,8(v0)
80018524:	00621023 	subu	v0,v1,v0
80018528:	afc2001c 	sw	v0,28(s8)
8001852c:	8fc20024 	lw	v0,36(s8)
80018530:	afc20074 	sw	v0,116(s8)
80018534:	8fc20074 	lw	v0,116(s8)
80018538:	8c420004 	lw	v0,4(v0)
8001853c:	afc20024 	sw	v0,36(s8)
80018540:	8fc30024 	lw	v1,36(s8)
80018544:	3c028036 	lui	v0,0x8036
80018548:	244220f0 	addiu	v0,v0,8432
8001854c:	1462ffec 	bne	v1,v0,80018500 <check_swap+0x8ac>
80018550:	00000000 	nop
80018554:	3c028002 	lui	v0,0x8002
80018558:	24443664 	addiu	a0,v0,13924
8001855c:	8fc50018 	lw	a1,24(s8)
80018560:	8fc6001c 	lw	a2,28(s8)
80018564:	0c00413e 	jal	800104f8 <cprintf>
80018568:	00000000 	nop
8001856c:	8fc20018 	lw	v0,24(s8)
80018570:	1040000a 	beqz	v0,8001859c <check_swap+0x948>
80018574:	00000000 	nop
80018578:	3c028002 	lui	v0,0x8002
8001857c:	244432a4 	addiu	a0,v0,12964
80018580:	24050117 	li	a1,279
80018584:	3c028002 	lui	v0,0x8002
80018588:	24463314 	addiu	a2,v0,13076
8001858c:	3c028002 	lui	v0,0x8002
80018590:	24473680 	addiu	a3,v0,13952
80018594:	0c004544 	jal	80011510 <__panic>
80018598:	00000000 	nop
8001859c:	8fc2001c 	lw	v0,28(s8)
800185a0:	1040000a 	beqz	v0,800185cc <check_swap+0x978>
800185a4:	00000000 	nop
800185a8:	3c028002 	lui	v0,0x8002
800185ac:	244432a4 	addiu	a0,v0,12964
800185b0:	24050118 	li	a1,280
800185b4:	3c028002 	lui	v0,0x8002
800185b8:	24463314 	addiu	a2,v0,13076
800185bc:	3c028002 	lui	v0,0x8002
800185c0:	2447368c 	addiu	a3,v0,13964
800185c4:	0c004544 	jal	80011510 <__panic>
800185c8:	00000000 	nop
800185cc:	3c028002 	lui	v0,0x8002
800185d0:	24443698 	addiu	a0,v0,13976
800185d4:	0c00413e 	jal	800104f8 <cprintf>
800185d8:	00000000 	nop
800185dc:	03c0e821 	move	sp,s8
800185e0:	8fbf008c 	lw	ra,140(sp)
800185e4:	8fbe0088 	lw	s8,136(sp)
800185e8:	8fb00084 	lw	s0,132(sp)
800185ec:	27bd0090 	addiu	sp,sp,144
800185f0:	03e00008 	jr	ra
800185f4:	00000000 	nop
	...

80018600 <_fifo_init_mm>:
80018600:	27bdffe8 	addiu	sp,sp,-24
80018604:	afbe0014 	sw	s8,20(sp)
80018608:	03a0f021 	move	s8,sp
8001860c:	afc40018 	sw	a0,24(s8)
80018610:	3c028036 	lui	v0,0x8036
80018614:	244222b0 	addiu	v0,v0,8880
80018618:	afc20008 	sw	v0,8(s8)
8001861c:	8fc20008 	lw	v0,8(s8)
80018620:	8fc30008 	lw	v1,8(s8)
80018624:	ac430004 	sw	v1,4(v0)
80018628:	8fc20008 	lw	v0,8(s8)
8001862c:	8c430004 	lw	v1,4(v0)
80018630:	8fc20008 	lw	v0,8(s8)
80018634:	ac430000 	sw	v1,0(v0)
80018638:	8fc20018 	lw	v0,24(s8)
8001863c:	3c038036 	lui	v1,0x8036
80018640:	246322b0 	addiu	v1,v1,8880
80018644:	ac430014 	sw	v1,20(v0)
80018648:	00001021 	move	v0,zero
8001864c:	03c0e821 	move	sp,s8
80018650:	8fbe0014 	lw	s8,20(sp)
80018654:	27bd0018 	addiu	sp,sp,24
80018658:	03e00008 	jr	ra
8001865c:	00000000 	nop

80018660 <_fifo_map_swappable>:
80018660:	27bdffc0 	addiu	sp,sp,-64
80018664:	afbf003c 	sw	ra,60(sp)
80018668:	afbe0038 	sw	s8,56(sp)
8001866c:	03a0f021 	move	s8,sp
80018670:	afc40040 	sw	a0,64(s8)
80018674:	afc50044 	sw	a1,68(s8)
80018678:	afc60048 	sw	a2,72(s8)
8001867c:	afc7004c 	sw	a3,76(s8)
80018680:	8fc20040 	lw	v0,64(s8)
80018684:	8c420014 	lw	v0,20(v0)
80018688:	afc20018 	sw	v0,24(s8)
8001868c:	8fc20048 	lw	v0,72(s8)
80018690:	24420014 	addiu	v0,v0,20
80018694:	afc2001c 	sw	v0,28(s8)
80018698:	8fc2001c 	lw	v0,28(s8)
8001869c:	10400004 	beqz	v0,800186b0 <_fifo_map_swappable+0x50>
800186a0:	00000000 	nop
800186a4:	8fc20018 	lw	v0,24(s8)
800186a8:	1440000a 	bnez	v0,800186d4 <_fifo_map_swappable+0x74>
800186ac:	00000000 	nop
800186b0:	3c028002 	lui	v0,0x8002
800186b4:	244436c0 	addiu	a0,v0,14016
800186b8:	24050031 	li	a1,49
800186bc:	3c028002 	lui	v0,0x8002
800186c0:	244636d4 	addiu	a2,v0,14036
800186c4:	3c028002 	lui	v0,0x8002
800186c8:	244736ec 	addiu	a3,v0,14060
800186cc:	0c004544 	jal	80011510 <__panic>
800186d0:	00000000 	nop
800186d4:	8fc20018 	lw	v0,24(s8)
800186d8:	afc20020 	sw	v0,32(s8)
800186dc:	8fc2001c 	lw	v0,28(s8)
800186e0:	afc20024 	sw	v0,36(s8)
800186e4:	8fc20020 	lw	v0,32(s8)
800186e8:	8c420000 	lw	v0,0(v0)
800186ec:	8fc30024 	lw	v1,36(s8)
800186f0:	afc30028 	sw	v1,40(s8)
800186f4:	afc2002c 	sw	v0,44(s8)
800186f8:	8fc20020 	lw	v0,32(s8)
800186fc:	afc20030 	sw	v0,48(s8)
80018700:	8fc20030 	lw	v0,48(s8)
80018704:	8fc30028 	lw	v1,40(s8)
80018708:	ac430000 	sw	v1,0(v0)
8001870c:	8fc20030 	lw	v0,48(s8)
80018710:	8c430000 	lw	v1,0(v0)
80018714:	8fc2002c 	lw	v0,44(s8)
80018718:	ac430004 	sw	v1,4(v0)
8001871c:	8fc20028 	lw	v0,40(s8)
80018720:	8fc30030 	lw	v1,48(s8)
80018724:	ac430004 	sw	v1,4(v0)
80018728:	8fc20028 	lw	v0,40(s8)
8001872c:	8fc3002c 	lw	v1,44(s8)
80018730:	ac430000 	sw	v1,0(v0)
80018734:	00001021 	move	v0,zero
80018738:	03c0e821 	move	sp,s8
8001873c:	8fbf003c 	lw	ra,60(sp)
80018740:	8fbe0038 	lw	s8,56(sp)
80018744:	27bd0040 	addiu	sp,sp,64
80018748:	03e00008 	jr	ra
8001874c:	00000000 	nop

80018750 <_fifo_swap_out_victim>:
80018750:	27bdffc8 	addiu	sp,sp,-56
80018754:	afbf0034 	sw	ra,52(sp)
80018758:	afbe0030 	sw	s8,48(sp)
8001875c:	03a0f021 	move	s8,sp
80018760:	afc40038 	sw	a0,56(s8)
80018764:	afc5003c 	sw	a1,60(s8)
80018768:	afc60040 	sw	a2,64(s8)
8001876c:	8fc20038 	lw	v0,56(s8)
80018770:	8c420014 	lw	v0,20(v0)
80018774:	afc20018 	sw	v0,24(s8)
80018778:	8fc20018 	lw	v0,24(s8)
8001877c:	1440000a 	bnez	v0,800187a8 <_fifo_swap_out_victim+0x58>
80018780:	00000000 	nop
80018784:	3c028002 	lui	v0,0x8002
80018788:	244436c0 	addiu	a0,v0,14016
8001878c:	24050040 	li	a1,64
80018790:	3c028002 	lui	v0,0x8002
80018794:	244636d4 	addiu	a2,v0,14036
80018798:	3c028002 	lui	v0,0x8002
8001879c:	2447370c 	addiu	a3,v0,14092
800187a0:	0c004544 	jal	80011510 <__panic>
800187a4:	00000000 	nop
800187a8:	8fc20040 	lw	v0,64(s8)
800187ac:	1040000a 	beqz	v0,800187d8 <_fifo_swap_out_victim+0x88>
800187b0:	00000000 	nop
800187b4:	3c028002 	lui	v0,0x8002
800187b8:	244436c0 	addiu	a0,v0,14016
800187bc:	24050041 	li	a1,65
800187c0:	3c028002 	lui	v0,0x8002
800187c4:	244636d4 	addiu	a2,v0,14036
800187c8:	3c028002 	lui	v0,0x8002
800187cc:	2447371c 	addiu	a3,v0,14108
800187d0:	0c004544 	jal	80011510 <__panic>
800187d4:	00000000 	nop
800187d8:	8fc20018 	lw	v0,24(s8)
800187dc:	afc20020 	sw	v0,32(s8)
800187e0:	8fc20020 	lw	v0,32(s8)
800187e4:	8c420004 	lw	v0,4(v0)
800187e8:	afc2001c 	sw	v0,28(s8)
800187ec:	8fc2001c 	lw	v0,28(s8)
800187f0:	afc20024 	sw	v0,36(s8)
800187f4:	8fc20024 	lw	v0,36(s8)
800187f8:	8c430000 	lw	v1,0(v0)
800187fc:	8fc20024 	lw	v0,36(s8)
80018800:	8c420004 	lw	v0,4(v0)
80018804:	afc30028 	sw	v1,40(s8)
80018808:	afc2002c 	sw	v0,44(s8)
8001880c:	8fc20028 	lw	v0,40(s8)
80018810:	8fc3002c 	lw	v1,44(s8)
80018814:	ac430004 	sw	v1,4(v0)
80018818:	8fc2002c 	lw	v0,44(s8)
8001881c:	8fc30028 	lw	v1,40(s8)
80018820:	ac430000 	sw	v1,0(v0)
80018824:	8fc2001c 	lw	v0,28(s8)
80018828:	2443ffec 	addiu	v1,v0,-20
8001882c:	8fc2003c 	lw	v0,60(s8)
80018830:	ac430000 	sw	v1,0(v0)
80018834:	00001021 	move	v0,zero
80018838:	03c0e821 	move	sp,s8
8001883c:	8fbf0034 	lw	ra,52(sp)
80018840:	8fbe0030 	lw	s8,48(sp)
80018844:	27bd0038 	addiu	sp,sp,56
80018848:	03e00008 	jr	ra
8001884c:	00000000 	nop

80018850 <_fifo_check_swap>:
80018850:	27bdffe0 	addiu	sp,sp,-32
80018854:	afbf001c 	sw	ra,28(sp)
80018858:	afbe0018 	sw	s8,24(sp)
8001885c:	03a0f021 	move	s8,sp
80018860:	3c028002 	lui	v0,0x8002
80018864:	24443728 	addiu	a0,v0,14120
80018868:	0c00413e 	jal	800104f8 <cprintf>
8001886c:	00000000 	nop
80018870:	24023000 	li	v0,12288
80018874:	2403000c 	li	v1,12
80018878:	a0430000 	sb	v1,0(v0)
8001887c:	3c028036 	lui	v0,0x8036
80018880:	8c430060 	lw	v1,96(v0)
80018884:	24020004 	li	v0,4
80018888:	1062000a 	beq	v1,v0,800188b4 <_fifo_check_swap+0x64>
8001888c:	00000000 	nop
80018890:	3c028002 	lui	v0,0x8002
80018894:	244436c0 	addiu	a0,v0,14016
80018898:	24050050 	li	a1,80
8001889c:	3c028002 	lui	v0,0x8002
800188a0:	244636d4 	addiu	a2,v0,14036
800188a4:	3c028002 	lui	v0,0x8002
800188a8:	24473750 	addiu	a3,v0,14160
800188ac:	0c004544 	jal	80011510 <__panic>
800188b0:	00000000 	nop
800188b4:	3c028002 	lui	v0,0x8002
800188b8:	24443760 	addiu	a0,v0,14176
800188bc:	0c00413e 	jal	800104f8 <cprintf>
800188c0:	00000000 	nop
800188c4:	24021000 	li	v0,4096
800188c8:	2403000a 	li	v1,10
800188cc:	a0430000 	sb	v1,0(v0)
800188d0:	3c028036 	lui	v0,0x8036
800188d4:	8c430060 	lw	v1,96(v0)
800188d8:	24020004 	li	v0,4
800188dc:	1062000a 	beq	v1,v0,80018908 <_fifo_check_swap+0xb8>
800188e0:	00000000 	nop
800188e4:	3c028002 	lui	v0,0x8002
800188e8:	244436c0 	addiu	a0,v0,14016
800188ec:	24050053 	li	a1,83
800188f0:	3c028002 	lui	v0,0x8002
800188f4:	244636d4 	addiu	a2,v0,14036
800188f8:	3c028002 	lui	v0,0x8002
800188fc:	24473750 	addiu	a3,v0,14160
80018900:	0c004544 	jal	80011510 <__panic>
80018904:	00000000 	nop
80018908:	3c028002 	lui	v0,0x8002
8001890c:	24443788 	addiu	a0,v0,14216
80018910:	0c00413e 	jal	800104f8 <cprintf>
80018914:	00000000 	nop
80018918:	24024000 	li	v0,16384
8001891c:	2403000d 	li	v1,13
80018920:	a0430000 	sb	v1,0(v0)
80018924:	3c028036 	lui	v0,0x8036
80018928:	8c430060 	lw	v1,96(v0)
8001892c:	24020004 	li	v0,4
80018930:	1062000a 	beq	v1,v0,8001895c <_fifo_check_swap+0x10c>
80018934:	00000000 	nop
80018938:	3c028002 	lui	v0,0x8002
8001893c:	244436c0 	addiu	a0,v0,14016
80018940:	24050056 	li	a1,86
80018944:	3c028002 	lui	v0,0x8002
80018948:	244636d4 	addiu	a2,v0,14036
8001894c:	3c028002 	lui	v0,0x8002
80018950:	24473750 	addiu	a3,v0,14160
80018954:	0c004544 	jal	80011510 <__panic>
80018958:	00000000 	nop
8001895c:	3c028002 	lui	v0,0x8002
80018960:	244437b0 	addiu	a0,v0,14256
80018964:	0c00413e 	jal	800104f8 <cprintf>
80018968:	00000000 	nop
8001896c:	24022000 	li	v0,8192
80018970:	2403000b 	li	v1,11
80018974:	a0430000 	sb	v1,0(v0)
80018978:	3c028036 	lui	v0,0x8036
8001897c:	8c430060 	lw	v1,96(v0)
80018980:	24020004 	li	v0,4
80018984:	1062000a 	beq	v1,v0,800189b0 <_fifo_check_swap+0x160>
80018988:	00000000 	nop
8001898c:	3c028002 	lui	v0,0x8002
80018990:	244436c0 	addiu	a0,v0,14016
80018994:	24050059 	li	a1,89
80018998:	3c028002 	lui	v0,0x8002
8001899c:	244636d4 	addiu	a2,v0,14036
800189a0:	3c028002 	lui	v0,0x8002
800189a4:	24473750 	addiu	a3,v0,14160
800189a8:	0c004544 	jal	80011510 <__panic>
800189ac:	00000000 	nop
800189b0:	3c028002 	lui	v0,0x8002
800189b4:	244437d8 	addiu	a0,v0,14296
800189b8:	0c00413e 	jal	800104f8 <cprintf>
800189bc:	00000000 	nop
800189c0:	24025000 	li	v0,20480
800189c4:	2403000e 	li	v1,14
800189c8:	a0430000 	sb	v1,0(v0)
800189cc:	3c028036 	lui	v0,0x8036
800189d0:	8c430060 	lw	v1,96(v0)
800189d4:	24020005 	li	v0,5
800189d8:	1062000a 	beq	v1,v0,80018a04 <_fifo_check_swap+0x1b4>
800189dc:	00000000 	nop
800189e0:	3c028002 	lui	v0,0x8002
800189e4:	244436c0 	addiu	a0,v0,14016
800189e8:	2405005c 	li	a1,92
800189ec:	3c028002 	lui	v0,0x8002
800189f0:	244636d4 	addiu	a2,v0,14036
800189f4:	3c028002 	lui	v0,0x8002
800189f8:	24473800 	addiu	a3,v0,14336
800189fc:	0c004544 	jal	80011510 <__panic>
80018a00:	00000000 	nop
80018a04:	3c028002 	lui	v0,0x8002
80018a08:	244437b0 	addiu	a0,v0,14256
80018a0c:	0c00413e 	jal	800104f8 <cprintf>
80018a10:	00000000 	nop
80018a14:	24022000 	li	v0,8192
80018a18:	2403000b 	li	v1,11
80018a1c:	a0430000 	sb	v1,0(v0)
80018a20:	3c028036 	lui	v0,0x8036
80018a24:	8c430060 	lw	v1,96(v0)
80018a28:	24020005 	li	v0,5
80018a2c:	1062000a 	beq	v1,v0,80018a58 <_fifo_check_swap+0x208>
80018a30:	00000000 	nop
80018a34:	3c028002 	lui	v0,0x8002
80018a38:	244436c0 	addiu	a0,v0,14016
80018a3c:	2405005f 	li	a1,95
80018a40:	3c028002 	lui	v0,0x8002
80018a44:	244636d4 	addiu	a2,v0,14036
80018a48:	3c028002 	lui	v0,0x8002
80018a4c:	24473800 	addiu	a3,v0,14336
80018a50:	0c004544 	jal	80011510 <__panic>
80018a54:	00000000 	nop
80018a58:	3c028002 	lui	v0,0x8002
80018a5c:	24443760 	addiu	a0,v0,14176
80018a60:	0c00413e 	jal	800104f8 <cprintf>
80018a64:	00000000 	nop
80018a68:	24021000 	li	v0,4096
80018a6c:	2403000a 	li	v1,10
80018a70:	a0430000 	sb	v1,0(v0)
80018a74:	3c028036 	lui	v0,0x8036
80018a78:	8c430060 	lw	v1,96(v0)
80018a7c:	24020006 	li	v0,6
80018a80:	1062000a 	beq	v1,v0,80018aac <_fifo_check_swap+0x25c>
80018a84:	00000000 	nop
80018a88:	3c028002 	lui	v0,0x8002
80018a8c:	244436c0 	addiu	a0,v0,14016
80018a90:	24050062 	li	a1,98
80018a94:	3c028002 	lui	v0,0x8002
80018a98:	244636d4 	addiu	a2,v0,14036
80018a9c:	3c028002 	lui	v0,0x8002
80018aa0:	24473810 	addiu	a3,v0,14352
80018aa4:	0c004544 	jal	80011510 <__panic>
80018aa8:	00000000 	nop
80018aac:	3c028002 	lui	v0,0x8002
80018ab0:	244437b0 	addiu	a0,v0,14256
80018ab4:	0c00413e 	jal	800104f8 <cprintf>
80018ab8:	00000000 	nop
80018abc:	24022000 	li	v0,8192
80018ac0:	2403000b 	li	v1,11
80018ac4:	a0430000 	sb	v1,0(v0)
80018ac8:	3c028036 	lui	v0,0x8036
80018acc:	8c430060 	lw	v1,96(v0)
80018ad0:	24020007 	li	v0,7
80018ad4:	1062000a 	beq	v1,v0,80018b00 <_fifo_check_swap+0x2b0>
80018ad8:	00000000 	nop
80018adc:	3c028002 	lui	v0,0x8002
80018ae0:	244436c0 	addiu	a0,v0,14016
80018ae4:	24050065 	li	a1,101
80018ae8:	3c028002 	lui	v0,0x8002
80018aec:	244636d4 	addiu	a2,v0,14036
80018af0:	3c028002 	lui	v0,0x8002
80018af4:	24473820 	addiu	a3,v0,14368
80018af8:	0c004544 	jal	80011510 <__panic>
80018afc:	00000000 	nop
80018b00:	3c028002 	lui	v0,0x8002
80018b04:	24443728 	addiu	a0,v0,14120
80018b08:	0c00413e 	jal	800104f8 <cprintf>
80018b0c:	00000000 	nop
80018b10:	24023000 	li	v0,12288
80018b14:	2403000c 	li	v1,12
80018b18:	a0430000 	sb	v1,0(v0)
80018b1c:	3c028036 	lui	v0,0x8036
80018b20:	8c430060 	lw	v1,96(v0)
80018b24:	24020008 	li	v0,8
80018b28:	1062000a 	beq	v1,v0,80018b54 <_fifo_check_swap+0x304>
80018b2c:	00000000 	nop
80018b30:	3c028002 	lui	v0,0x8002
80018b34:	244436c0 	addiu	a0,v0,14016
80018b38:	24050068 	li	a1,104
80018b3c:	3c028002 	lui	v0,0x8002
80018b40:	244636d4 	addiu	a2,v0,14036
80018b44:	3c028002 	lui	v0,0x8002
80018b48:	24473830 	addiu	a3,v0,14384
80018b4c:	0c004544 	jal	80011510 <__panic>
80018b50:	00000000 	nop
80018b54:	3c028002 	lui	v0,0x8002
80018b58:	24443788 	addiu	a0,v0,14216
80018b5c:	0c00413e 	jal	800104f8 <cprintf>
80018b60:	00000000 	nop
80018b64:	24024000 	li	v0,16384
80018b68:	2403000d 	li	v1,13
80018b6c:	a0430000 	sb	v1,0(v0)
80018b70:	3c028036 	lui	v0,0x8036
80018b74:	8c430060 	lw	v1,96(v0)
80018b78:	24020009 	li	v0,9
80018b7c:	1062000a 	beq	v1,v0,80018ba8 <_fifo_check_swap+0x358>
80018b80:	00000000 	nop
80018b84:	3c028002 	lui	v0,0x8002
80018b88:	244436c0 	addiu	a0,v0,14016
80018b8c:	2405006b 	li	a1,107
80018b90:	3c028002 	lui	v0,0x8002
80018b94:	244636d4 	addiu	a2,v0,14036
80018b98:	3c028002 	lui	v0,0x8002
80018b9c:	24473840 	addiu	a3,v0,14400
80018ba0:	0c004544 	jal	80011510 <__panic>
80018ba4:	00000000 	nop
80018ba8:	00001021 	move	v0,zero
80018bac:	03c0e821 	move	sp,s8
80018bb0:	8fbf001c 	lw	ra,28(sp)
80018bb4:	8fbe0018 	lw	s8,24(sp)
80018bb8:	27bd0020 	addiu	sp,sp,32
80018bbc:	03e00008 	jr	ra
80018bc0:	00000000 	nop

80018bc4 <_fifo_init>:
80018bc4:	27bdfff8 	addiu	sp,sp,-8
80018bc8:	afbe0004 	sw	s8,4(sp)
80018bcc:	03a0f021 	move	s8,sp
80018bd0:	00001021 	move	v0,zero
80018bd4:	03c0e821 	move	sp,s8
80018bd8:	8fbe0004 	lw	s8,4(sp)
80018bdc:	27bd0008 	addiu	sp,sp,8
80018be0:	03e00008 	jr	ra
80018be4:	00000000 	nop

80018be8 <_fifo_set_unswappable>:
80018be8:	27bdfff8 	addiu	sp,sp,-8
80018bec:	afbe0004 	sw	s8,4(sp)
80018bf0:	03a0f021 	move	s8,sp
80018bf4:	afc40008 	sw	a0,8(s8)
80018bf8:	afc5000c 	sw	a1,12(s8)
80018bfc:	00001021 	move	v0,zero
80018c00:	03c0e821 	move	sp,s8
80018c04:	8fbe0004 	lw	s8,4(sp)
80018c08:	27bd0008 	addiu	sp,sp,8
80018c0c:	03e00008 	jr	ra
80018c10:	00000000 	nop

80018c14 <_fifo_tick_event>:
80018c14:	27bdfff8 	addiu	sp,sp,-8
80018c18:	afbe0004 	sw	s8,4(sp)
80018c1c:	03a0f021 	move	s8,sp
80018c20:	afc40008 	sw	a0,8(s8)
80018c24:	00001021 	move	v0,zero
80018c28:	03c0e821 	move	sp,s8
80018c2c:	8fbe0004 	lw	s8,4(sp)
80018c30:	27bd0008 	addiu	sp,sp,8
80018c34:	03e00008 	jr	ra
80018c38:	00000000 	nop
80018c3c:	00000000 	nop

80018c40 <tlb_init>:
80018c40:	27bdffd8 	addiu	sp,sp,-40
80018c44:	afbf0024 	sw	ra,36(sp)
80018c48:	afbe0020 	sw	s8,32(sp)
80018c4c:	03a0f021 	move	s8,sp
80018c50:	a3c00018 	sb	zero,24(s8)
80018c54:	08006321 	j	80018c84 <tlb_init+0x44>
80018c58:	00000000 	nop
80018c5c:	93c20018 	lbu	v0,24(s8)
80018c60:	00402021 	move	a0,v0
80018c64:	3c058000 	lui	a1,0x8000
80018c68:	00003021 	move	a2,zero
80018c6c:	00003821 	move	a3,zero
80018c70:	0c006569 	jal	800195a4 <tlb_write>
80018c74:	00000000 	nop
80018c78:	93c20018 	lbu	v0,24(s8)
80018c7c:	24420001 	addiu	v0,v0,1
80018c80:	a3c20018 	sb	v0,24(s8)
80018c84:	93c20018 	lbu	v0,24(s8)
80018c88:	2c420010 	sltiu	v0,v0,16
80018c8c:	1440fff3 	bnez	v0,80018c5c <tlb_init+0x1c>
80018c90:	00000000 	nop
80018c94:	0c0064c5 	jal	80019314 <tlb_init_callback>
80018c98:	00000000 	nop
80018c9c:	03c0e821 	move	sp,s8
80018ca0:	8fbf0024 	lw	ra,36(sp)
80018ca4:	8fbe0020 	lw	s8,32(sp)
80018ca8:	27bd0028 	addiu	sp,sp,40
80018cac:	03e00008 	jr	ra
80018cb0:	00000000 	nop

80018cb4 <tlb_miss_handler>:
80018cb4:	27bdffc0 	addiu	sp,sp,-64
80018cb8:	afbf003c 	sw	ra,60(sp)
80018cbc:	afbe0038 	sw	s8,56(sp)
80018cc0:	03a0f021 	move	s8,sp
80018cc4:	afc40040 	sw	a0,64(s8)
80018cc8:	8fc20040 	lw	v0,64(s8)
80018ccc:	8c42008c 	lw	v0,140(v0)
80018cd0:	afc20028 	sw	v0,40(s8)
80018cd4:	3c028036 	lui	v0,0x8036
80018cd8:	8c420050 	lw	v0,80(v0)
80018cdc:	1440000a 	bnez	v0,80018d08 <tlb_miss_handler+0x54>
80018ce0:	00000000 	nop
80018ce4:	3c028002 	lui	v0,0x8002
80018ce8:	24443870 	addiu	a0,v0,14448
80018cec:	24050021 	li	a1,33
80018cf0:	3c028002 	lui	v0,0x8002
80018cf4:	24463880 	addiu	a2,v0,14464
80018cf8:	3c028002 	lui	v0,0x8002
80018cfc:	24473898 	addiu	a3,v0,14488
80018d00:	0c004544 	jal	80011510 <__panic>
80018d04:	00000000 	nop
80018d08:	3c028036 	lui	v0,0x8036
80018d0c:	8c420050 	lw	v0,80(v0)
80018d10:	00402021 	move	a0,v0
80018d14:	8fc50028 	lw	a1,40(s8)
80018d18:	00003021 	move	a2,zero
80018d1c:	0c005621 	jal	80015884 <get_pte>
80018d20:	00000000 	nop
80018d24:	afc20018 	sw	v0,24(s8)
80018d28:	8fc20018 	lw	v0,24(s8)
80018d2c:	10400006 	beqz	v0,80018d48 <tlb_miss_handler+0x94>
80018d30:	00000000 	nop
80018d34:	8fc20018 	lw	v0,24(s8)
80018d38:	8c420000 	lw	v0,0(v0)
80018d3c:	30420001 	andi	v0,v0,0x1
80018d40:	1440007e 	bnez	v0,80018f3c <tlb_miss_handler+0x288>
80018d44:	00000000 	nop
80018d48:	3c028036 	lui	v0,0x8036
80018d4c:	8c4222bc 	lw	v0,8892(v0)
80018d50:	10400015 	beqz	v0,80018da8 <tlb_miss_handler+0xf4>
80018d54:	00000000 	nop
80018d58:	3c028036 	lui	v0,0x8036
80018d5c:	8c430078 	lw	v1,120(v0)
80018d60:	3c028036 	lui	v0,0x8036
80018d64:	8c420070 	lw	v0,112(v0)
80018d68:	1062000a 	beq	v1,v0,80018d94 <tlb_miss_handler+0xe0>
80018d6c:	00000000 	nop
80018d70:	3c028002 	lui	v0,0x8002
80018d74:	24443870 	addiu	a0,v0,14448
80018d78:	24050026 	li	a1,38
80018d7c:	3c028002 	lui	v0,0x8002
80018d80:	24463880 	addiu	a2,v0,14464
80018d84:	3c028002 	lui	v0,0x8002
80018d88:	244738ac 	addiu	a3,v0,14508
80018d8c:	0c004544 	jal	80011510 <__panic>
80018d90:	00000000 	nop
80018d94:	3c028036 	lui	v0,0x8036
80018d98:	8c4222bc 	lw	v0,8892(v0)
80018d9c:	afc2001c 	sw	v0,28(s8)
80018da0:	08006379 	j	80018de4 <tlb_miss_handler+0x130>
80018da4:	00000000 	nop
80018da8:	3c028036 	lui	v0,0x8036
80018dac:	8c420078 	lw	v0,120(v0)
80018db0:	14400008 	bnez	v0,80018dd4 <tlb_miss_handler+0x120>
80018db4:	00000000 	nop
80018db8:	3c028002 	lui	v0,0x8002
80018dbc:	24443870 	addiu	a0,v0,14448
80018dc0:	2405002a 	li	a1,42
80018dc4:	3c028002 	lui	v0,0x8002
80018dc8:	244638c0 	addiu	a2,v0,14528
80018dcc:	0c004544 	jal	80011510 <__panic>
80018dd0:	00000000 	nop
80018dd4:	3c028036 	lui	v0,0x8036
80018dd8:	8c420078 	lw	v0,120(v0)
80018ddc:	8c420018 	lw	v0,24(v0)
80018de0:	afc2001c 	sw	v0,28(s8)
80018de4:	8fc2001c 	lw	v0,28(s8)
80018de8:	1440000a 	bnez	v0,80018e14 <tlb_miss_handler+0x160>
80018dec:	00000000 	nop
80018df0:	3c028002 	lui	v0,0x8002
80018df4:	24443870 	addiu	a0,v0,14448
80018df8:	2405002d 	li	a1,45
80018dfc:	3c028002 	lui	v0,0x8002
80018e00:	24463880 	addiu	a2,v0,14464
80018e04:	3c028002 	lui	v0,0x8002
80018e08:	244738d8 	addiu	a3,v0,14552
80018e0c:	0c004544 	jal	80011510 <__panic>
80018e10:	00000000 	nop
80018e14:	8fc2001c 	lw	v0,28(s8)
80018e18:	8c43000c 	lw	v1,12(v0)
80018e1c:	3c028036 	lui	v0,0x8036
80018e20:	8c420050 	lw	v0,80(v0)
80018e24:	1062000a 	beq	v1,v0,80018e50 <tlb_miss_handler+0x19c>
80018e28:	00000000 	nop
80018e2c:	3c028002 	lui	v0,0x8002
80018e30:	24443870 	addiu	a0,v0,14448
80018e34:	2405002e 	li	a1,46
80018e38:	3c028002 	lui	v0,0x8002
80018e3c:	24463880 	addiu	a2,v0,14464
80018e40:	3c028002 	lui	v0,0x8002
80018e44:	244738e4 	addiu	a3,v0,14564
80018e48:	0c004544 	jal	80011510 <__panic>
80018e4c:	00000000 	nop
80018e50:	afc00020 	sw	zero,32(s8)
80018e54:	8fc20040 	lw	v0,64(s8)
80018e58:	8c420084 	lw	v0,132(v0)
80018e5c:	00021082 	srl	v0,v0,0x2
80018e60:	3043001f 	andi	v1,v0,0x1f
80018e64:	24020003 	li	v0,3
80018e68:	14620004 	bne	v1,v0,80018e7c <tlb_miss_handler+0x1c8>
80018e6c:	00000000 	nop
80018e70:	8fc20020 	lw	v0,32(s8)
80018e74:	34420002 	ori	v0,v0,0x2
80018e78:	afc20020 	sw	v0,32(s8)
80018e7c:	8fc4001c 	lw	a0,28(s8)
80018e80:	8fc50020 	lw	a1,32(s8)
80018e84:	8fc60028 	lw	a2,40(s8)
80018e88:	0c006b93 	jal	8001ae4c <do_pgfault>
80018e8c:	00000000 	nop
80018e90:	10400022 	beqz	v0,80018f1c <tlb_miss_handler+0x268>
80018e94:	00000000 	nop
80018e98:	8fc40040 	lw	a0,64(s8)
80018e9c:	0c004787 	jal	80011e1c <print_trapframe>
80018ea0:	00000000 	nop
80018ea4:	3c028036 	lui	v0,0x8036
80018ea8:	8c420078 	lw	v0,120(v0)
80018eac:	14400008 	bnez	v0,80018ed0 <tlb_miss_handler+0x21c>
80018eb0:	00000000 	nop
80018eb4:	3c028002 	lui	v0,0x8002
80018eb8:	24443870 	addiu	a0,v0,14448
80018ebc:	24050035 	li	a1,53
80018ec0:	3c028002 	lui	v0,0x8002
80018ec4:	244638fc 	addiu	a2,v0,14588
80018ec8:	0c004544 	jal	80011510 <__panic>
80018ecc:	00000000 	nop
80018ed0:	8fc40040 	lw	a0,64(s8)
80018ed4:	0c004779 	jal	80011de4 <trap_in_kernel>
80018ed8:	00000000 	nop
80018edc:	10400008 	beqz	v0,80018f00 <tlb_miss_handler+0x24c>
80018ee0:	00000000 	nop
80018ee4:	3c028002 	lui	v0,0x8002
80018ee8:	24443870 	addiu	a0,v0,14448
80018eec:	24050038 	li	a1,56
80018ef0:	3c028002 	lui	v0,0x8002
80018ef4:	24463918 	addiu	a2,v0,14616
80018ef8:	0c004544 	jal	80011510 <__panic>
80018efc:	00000000 	nop
80018f00:	3c028002 	lui	v0,0x8002
80018f04:	24443940 	addiu	a0,v0,14656
80018f08:	0c00413e 	jal	800104f8 <cprintf>
80018f0c:	00000000 	nop
80018f10:	2404fff7 	li	a0,-9
80018f14:	0c007847 	jal	8001e11c <do_exit>
80018f18:	00000000 	nop
80018f1c:	3c028036 	lui	v0,0x8036
80018f20:	8c420050 	lw	v0,80(v0)
80018f24:	00402021 	move	a0,v0
80018f28:	8fc50028 	lw	a1,40(s8)
80018f2c:	00003021 	move	a2,zero
80018f30:	0c005621 	jal	80015884 <get_pte>
80018f34:	00000000 	nop
80018f38:	afc20018 	sw	v0,24(s8)
80018f3c:	3c028036 	lui	v0,0x8036
80018f40:	8c430050 	lw	v1,80(v0)
80018f44:	8fc20028 	lw	v0,40(s8)
80018f48:	38421000 	xori	v0,v0,0x1000
80018f4c:	00602021 	move	a0,v1
80018f50:	00402821 	move	a1,v0
80018f54:	00003021 	move	a2,zero
80018f58:	0c005621 	jal	80015884 <get_pte>
80018f5c:	00000000 	nop
80018f60:	afc2002c 	sw	v0,44(s8)
80018f64:	8fc20028 	lw	v0,40(s8)
80018f68:	00021302 	srl	v0,v0,0xc
80018f6c:	30420001 	andi	v0,v0,0x1
80018f70:	8fc30018 	lw	v1,24(s8)
80018f74:	8c630000 	lw	v1,0(v1)
80018f78:	00031b02 	srl	v1,v1,0xc
80018f7c:	00032180 	sll	a0,v1,0x6
80018f80:	8fc30018 	lw	v1,24(s8)
80018f84:	8c630000 	lw	v1,0(v1)
80018f88:	00031842 	srl	v1,v1,0x1
80018f8c:	30630001 	andi	v1,v1,0x1
80018f90:	00031880 	sll	v1,v1,0x2
80018f94:	00831825 	or	v1,a0,v1
80018f98:	34630013 	ori	v1,v1,0x13
80018f9c:	00021080 	sll	v0,v0,0x2
80018fa0:	27c40018 	addiu	a0,s8,24
80018fa4:	00821021 	addu	v0,a0,v0
80018fa8:	ac430018 	sw	v1,24(v0)
80018fac:	8fc2002c 	lw	v0,44(s8)
80018fb0:	10400025 	beqz	v0,80019048 <tlb_miss_handler+0x394>
80018fb4:	00000000 	nop
80018fb8:	8fc2002c 	lw	v0,44(s8)
80018fbc:	8c420000 	lw	v0,0(v0)
80018fc0:	30420080 	andi	v0,v0,0x80
80018fc4:	10400020 	beqz	v0,80019048 <tlb_miss_handler+0x394>
80018fc8:	00000000 	nop
80018fcc:	8fc20028 	lw	v0,40(s8)
80018fd0:	38421000 	xori	v0,v0,0x1000
80018fd4:	00021302 	srl	v0,v0,0xc
80018fd8:	30420001 	andi	v0,v0,0x1
80018fdc:	8fc3002c 	lw	v1,44(s8)
80018fe0:	8c630000 	lw	v1,0(v1)
80018fe4:	00031b02 	srl	v1,v1,0xc
80018fe8:	00032180 	sll	a0,v1,0x6
80018fec:	8fc3002c 	lw	v1,44(s8)
80018ff0:	8c630000 	lw	v1,0(v1)
80018ff4:	00031842 	srl	v1,v1,0x1
80018ff8:	30630001 	andi	v1,v1,0x1
80018ffc:	00031880 	sll	v1,v1,0x2
80019000:	00831825 	or	v1,a0,v1
80019004:	34630013 	ori	v1,v1,0x13
80019008:	00021080 	sll	v0,v0,0x2
8001900c:	27c40018 	addiu	a0,s8,24
80019010:	00821021 	addu	v0,a0,v0
80019014:	ac430018 	sw	v1,24(v0)
80019018:	8fc2002c 	lw	v0,44(s8)
8001901c:	8c420000 	lw	v0,0(v0)
80019020:	00021202 	srl	v0,v0,0x8
80019024:	304200ff 	andi	v0,v0,0xff
80019028:	3042000f 	andi	v0,v0,0xf
8001902c:	a3c20024 	sb	v0,36(s8)
80019030:	93c20024 	lbu	v0,36(s8)
80019034:	00402021 	move	a0,v0
80019038:	0c00653f 	jal	800194fc <tlb_half_add_callback>
8001903c:	00000000 	nop
80019040:	08006421 	j	80019084 <tlb_miss_handler+0x3d0>
80019044:	00000000 	nop
80019048:	8fc20028 	lw	v0,40(s8)
8001904c:	38421000 	xori	v0,v0,0x1000
80019050:	00021302 	srl	v0,v0,0xc
80019054:	30420001 	andi	v0,v0,0x1
80019058:	00021080 	sll	v0,v0,0x2
8001905c:	27c30018 	addiu	v1,s8,24
80019060:	00621021 	addu	v0,v1,v0
80019064:	ac400018 	sw	zero,24(v0)
80019068:	8fc30028 	lw	v1,40(s8)
8001906c:	2402e000 	li	v0,-8192
80019070:	00621024 	and	v0,v1,v0
80019074:	00402021 	move	a0,v0
80019078:	0c0064e0 	jal	80019380 <tlb_get_empty>
8001907c:	00000000 	nop
80019080:	a3c20024 	sb	v0,36(s8)
80019084:	93c40024 	lbu	a0,36(s8)
80019088:	8fc30028 	lw	v1,40(s8)
8001908c:	2402e000 	li	v0,-8192
80019090:	00622824 	and	a1,v1,v0
80019094:	8fc30030 	lw	v1,48(s8)
80019098:	8fc20034 	lw	v0,52(s8)
8001909c:	00603021 	move	a2,v1
800190a0:	00403821 	move	a3,v0
800190a4:	0c006569 	jal	800195a4 <tlb_write>
800190a8:	00000000 	nop
800190ac:	8fc20018 	lw	v0,24(s8)
800190b0:	8c430000 	lw	v1,0(v0)
800190b4:	2402f0ff 	li	v0,-3841
800190b8:	00621824 	and	v1,v1,v0
800190bc:	93c20024 	lbu	v0,36(s8)
800190c0:	00021200 	sll	v0,v0,0x8
800190c4:	00621025 	or	v0,v1,v0
800190c8:	34430080 	ori	v1,v0,0x80
800190cc:	8fc20018 	lw	v0,24(s8)
800190d0:	ac430000 	sw	v1,0(v0)
800190d4:	00001021 	move	v0,zero
800190d8:	03c0e821 	move	sp,s8
800190dc:	8fbf003c 	lw	ra,60(sp)
800190e0:	8fbe0038 	lw	s8,56(sp)
800190e4:	27bd0040 	addiu	sp,sp,64
800190e8:	03e00008 	jr	ra
800190ec:	00000000 	nop

800190f0 <load_pgdir>:
800190f0:	27bdffe0 	addiu	sp,sp,-32
800190f4:	afbf001c 	sw	ra,28(sp)
800190f8:	afbe0018 	sw	s8,24(sp)
800190fc:	03a0f021 	move	s8,sp
80019100:	afc40020 	sw	a0,32(s8)
80019104:	3c028036 	lui	v0,0x8036
80019108:	8fc30020 	lw	v1,32(s8)
8001910c:	ac430050 	sw	v1,80(v0)
80019110:	0c006310 	jal	80018c40 <tlb_init>
80019114:	00000000 	nop
80019118:	03c0e821 	move	sp,s8
8001911c:	8fbf001c 	lw	ra,28(sp)
80019120:	8fbe0018 	lw	s8,24(sp)
80019124:	27bd0020 	addiu	sp,sp,32
80019128:	03e00008 	jr	ra
8001912c:	00000000 	nop

80019130 <tlb_invalidate>:
80019130:	27bdffc8 	addiu	sp,sp,-56
80019134:	afbf0034 	sw	ra,52(sp)
80019138:	afbe0030 	sw	s8,48(sp)
8001913c:	03a0f021 	move	s8,sp
80019140:	afc40038 	sw	a0,56(s8)
80019144:	afc5003c 	sw	a1,60(s8)
80019148:	3c028036 	lui	v0,0x8036
8001914c:	8c420050 	lw	v0,80(v0)
80019150:	8fc30038 	lw	v1,56(s8)
80019154:	10620003 	beq	v1,v0,80019164 <tlb_invalidate+0x34>
80019158:	00000000 	nop
8001915c:	080064bf 	j	800192fc <tlb_invalidate+0x1cc>
80019160:	00000000 	nop
80019164:	8fc40038 	lw	a0,56(s8)
80019168:	8fc5003c 	lw	a1,60(s8)
8001916c:	00003021 	move	a2,zero
80019170:	0c005621 	jal	80015884 <get_pte>
80019174:	00000000 	nop
80019178:	afc2001c 	sw	v0,28(s8)
8001917c:	8fc2001c 	lw	v0,28(s8)
80019180:	10400006 	beqz	v0,8001919c <tlb_invalidate+0x6c>
80019184:	00000000 	nop
80019188:	8fc2001c 	lw	v0,28(s8)
8001918c:	8c420000 	lw	v0,0(v0)
80019190:	30420080 	andi	v0,v0,0x80
80019194:	14400003 	bnez	v0,800191a4 <tlb_invalidate+0x74>
80019198:	00000000 	nop
8001919c:	080064bf 	j	800192fc <tlb_invalidate+0x1cc>
800191a0:	00000000 	nop
800191a4:	8fc2001c 	lw	v0,28(s8)
800191a8:	8c420000 	lw	v0,0(v0)
800191ac:	00021202 	srl	v0,v0,0x8
800191b0:	304200ff 	andi	v0,v0,0xff
800191b4:	3042000f 	andi	v0,v0,0xf
800191b8:	a3c20020 	sb	v0,32(s8)
800191bc:	3c028000 	lui	v0,0x8000
800191c0:	afc20018 	sw	v0,24(s8)
800191c4:	8fc2003c 	lw	v0,60(s8)
800191c8:	00021302 	srl	v0,v0,0xc
800191cc:	30420001 	andi	v0,v0,0x1
800191d0:	00021080 	sll	v0,v0,0x2
800191d4:	27c30018 	addiu	v1,s8,24
800191d8:	00621021 	addu	v0,v1,v0
800191dc:	ac400010 	sw	zero,16(v0)
800191e0:	8fc2003c 	lw	v0,60(s8)
800191e4:	38421000 	xori	v0,v0,0x1000
800191e8:	8fc40038 	lw	a0,56(s8)
800191ec:	00402821 	move	a1,v0
800191f0:	00003021 	move	a2,zero
800191f4:	0c005621 	jal	80015884 <get_pte>
800191f8:	00000000 	nop
800191fc:	afc20024 	sw	v0,36(s8)
80019200:	8fc20024 	lw	v0,36(s8)
80019204:	10400023 	beqz	v0,80019294 <tlb_invalidate+0x164>
80019208:	00000000 	nop
8001920c:	8fc20024 	lw	v0,36(s8)
80019210:	8c420000 	lw	v0,0(v0)
80019214:	30420080 	andi	v0,v0,0x80
80019218:	1040001e 	beqz	v0,80019294 <tlb_invalidate+0x164>
8001921c:	00000000 	nop
80019220:	8fc2003c 	lw	v0,60(s8)
80019224:	38421000 	xori	v0,v0,0x1000
80019228:	00021302 	srl	v0,v0,0xc
8001922c:	30420001 	andi	v0,v0,0x1
80019230:	8fc30024 	lw	v1,36(s8)
80019234:	8c630000 	lw	v1,0(v1)
80019238:	00031b02 	srl	v1,v1,0xc
8001923c:	00032180 	sll	a0,v1,0x6
80019240:	8fc30024 	lw	v1,36(s8)
80019244:	8c630000 	lw	v1,0(v1)
80019248:	00031842 	srl	v1,v1,0x1
8001924c:	30630001 	andi	v1,v1,0x1
80019250:	00031880 	sll	v1,v1,0x2
80019254:	00831825 	or	v1,a0,v1
80019258:	34630013 	ori	v1,v1,0x13
8001925c:	00021080 	sll	v0,v0,0x2
80019260:	27c40018 	addiu	a0,s8,24
80019264:	00821021 	addu	v0,a0,v0
80019268:	ac430010 	sw	v1,16(v0)
8001926c:	8fc3003c 	lw	v1,60(s8)
80019270:	2402e000 	li	v0,-8192
80019274:	00621024 	and	v0,v1,v0
80019278:	afc20018 	sw	v0,24(s8)
8001927c:	93c20020 	lbu	v0,32(s8)
80019280:	00402021 	move	a0,v0
80019284:	0c006549 	jal	80019524 <tlb_half_del_callback>
80019288:	00000000 	nop
8001928c:	080064b1 	j	800192c4 <tlb_invalidate+0x194>
80019290:	00000000 	nop
80019294:	8fc2003c 	lw	v0,60(s8)
80019298:	38421000 	xori	v0,v0,0x1000
8001929c:	00021302 	srl	v0,v0,0xc
800192a0:	30420001 	andi	v0,v0,0x1
800192a4:	00021080 	sll	v0,v0,0x2
800192a8:	27c30018 	addiu	v1,s8,24
800192ac:	00621021 	addu	v0,v1,v0
800192b0:	ac400010 	sw	zero,16(v0)
800192b4:	93c20020 	lbu	v0,32(s8)
800192b8:	00402021 	move	a0,v0
800192bc:	0c006553 	jal	8001954c <tlb_del_callback>
800192c0:	00000000 	nop
800192c4:	93c40020 	lbu	a0,32(s8)
800192c8:	8fc30028 	lw	v1,40(s8)
800192cc:	8fc2002c 	lw	v0,44(s8)
800192d0:	8fc50018 	lw	a1,24(s8)
800192d4:	00603021 	move	a2,v1
800192d8:	00403821 	move	a3,v0
800192dc:	0c006569 	jal	800195a4 <tlb_write>
800192e0:	00000000 	nop
800192e4:	8fc2001c 	lw	v0,28(s8)
800192e8:	8c430000 	lw	v1,0(v0)
800192ec:	2402ff7f 	li	v0,-129
800192f0:	00621824 	and	v1,v1,v0
800192f4:	8fc2001c 	lw	v0,28(s8)
800192f8:	ac430000 	sw	v1,0(v0)
800192fc:	03c0e821 	move	sp,s8
80019300:	8fbf0034 	lw	ra,52(sp)
80019304:	8fbe0030 	lw	s8,48(sp)
80019308:	27bd0038 	addiu	sp,sp,56
8001930c:	03e00008 	jr	ra
80019310:	00000000 	nop

80019314 <tlb_init_callback>:
80019314:	27bdffe8 	addiu	sp,sp,-24
80019318:	afbe0014 	sw	s8,20(sp)
8001931c:	03a0f021 	move	s8,sp
80019320:	a3c00008 	sb	zero,8(s8)
80019324:	080064d4 	j	80019350 <tlb_init_callback+0x3c>
80019328:	00000000 	nop
8001932c:	93c30008 	lbu	v1,8(s8)
80019330:	3c028036 	lui	v0,0x8036
80019334:	244221d4 	addiu	v0,v0,8660
80019338:	00621021 	addu	v0,v1,v0
8001933c:	93c30008 	lbu	v1,8(s8)
80019340:	a0430000 	sb	v1,0(v0)
80019344:	93c20008 	lbu	v0,8(s8)
80019348:	24420001 	addiu	v0,v0,1
8001934c:	a3c20008 	sb	v0,8(s8)
80019350:	93c20008 	lbu	v0,8(s8)
80019354:	2c420010 	sltiu	v0,v0,16
80019358:	1440fff4 	bnez	v0,8001932c <tlb_init_callback+0x18>
8001935c:	00000000 	nop
80019360:	3c028036 	lui	v0,0x8036
80019364:	24030010 	li	v1,16
80019368:	a04322b8 	sb	v1,8888(v0)
8001936c:	03c0e821 	move	sp,s8
80019370:	8fbe0014 	lw	s8,20(sp)
80019374:	27bd0018 	addiu	sp,sp,24
80019378:	03e00008 	jr	ra
8001937c:	00000000 	nop

80019380 <tlb_get_empty>:
80019380:	27bdffd0 	addiu	sp,sp,-48
80019384:	afbf002c 	sw	ra,44(sp)
80019388:	afbe0028 	sw	s8,40(sp)
8001938c:	03a0f021 	move	s8,sp
80019390:	afc40030 	sw	a0,48(s8)
80019394:	3c028036 	lui	v0,0x8036
80019398:	904222b8 	lbu	v0,8888(v0)
8001939c:	10400011 	beqz	v0,800193e4 <tlb_get_empty+0x64>
800193a0:	00000000 	nop
800193a4:	3c028036 	lui	v0,0x8036
800193a8:	904222b8 	lbu	v0,8888(v0)
800193ac:	2442ffff 	addiu	v0,v0,-1
800193b0:	304300ff 	andi	v1,v0,0xff
800193b4:	3c028036 	lui	v0,0x8036
800193b8:	a04322b8 	sb	v1,8888(v0)
800193bc:	3c028036 	lui	v0,0x8036
800193c0:	904222b8 	lbu	v0,8888(v0)
800193c4:	00401821 	move	v1,v0
800193c8:	3c028036 	lui	v0,0x8036
800193cc:	244221d4 	addiu	v0,v0,8660
800193d0:	00621021 	addu	v0,v1,v0
800193d4:	90420000 	lbu	v0,0(v0)
800193d8:	a3c20018 	sb	v0,24(s8)
800193dc:	08006531 	j	800194c4 <tlb_get_empty+0x144>
800193e0:	00000000 	nop
800193e4:	3c028036 	lui	v0,0x8036
800193e8:	90420054 	lbu	v0,84(v0)
800193ec:	24430001 	addiu	v1,v0,1
800193f0:	306400ff 	andi	a0,v1,0xff
800193f4:	3c038036 	lui	v1,0x8036
800193f8:	a0640054 	sb	a0,84(v1)
800193fc:	a3c20018 	sb	v0,24(s8)
80019400:	3c028036 	lui	v0,0x8036
80019404:	90420054 	lbu	v0,84(v0)
80019408:	3042000f 	andi	v0,v0,0xf
8001940c:	304300ff 	andi	v1,v0,0xff
80019410:	3c028036 	lui	v0,0x8036
80019414:	a0430054 	sb	v1,84(v0)
80019418:	93c30018 	lbu	v1,24(s8)
8001941c:	3c028036 	lui	v0,0x8036
80019420:	00031880 	sll	v1,v1,0x2
80019424:	24422194 	addiu	v0,v0,8596
80019428:	00621021 	addu	v0,v1,v0
8001942c:	8c420000 	lw	v0,0(v0)
80019430:	afc2001c 	sw	v0,28(s8)
80019434:	3c028036 	lui	v0,0x8036
80019438:	8c420050 	lw	v0,80(v0)
8001943c:	00402021 	move	a0,v0
80019440:	8fc5001c 	lw	a1,28(s8)
80019444:	00003021 	move	a2,zero
80019448:	0c005621 	jal	80015884 <get_pte>
8001944c:	00000000 	nop
80019450:	afc20020 	sw	v0,32(s8)
80019454:	8fc20020 	lw	v0,32(s8)
80019458:	10400007 	beqz	v0,80019478 <tlb_get_empty+0xf8>
8001945c:	00000000 	nop
80019460:	8fc20020 	lw	v0,32(s8)
80019464:	8c430000 	lw	v1,0(v0)
80019468:	2402ff7f 	li	v0,-129
8001946c:	00621824 	and	v1,v1,v0
80019470:	8fc20020 	lw	v0,32(s8)
80019474:	ac430000 	sw	v1,0(v0)
80019478:	3c028036 	lui	v0,0x8036
8001947c:	8c430050 	lw	v1,80(v0)
80019480:	8fc2001c 	lw	v0,28(s8)
80019484:	38421000 	xori	v0,v0,0x1000
80019488:	00602021 	move	a0,v1
8001948c:	00402821 	move	a1,v0
80019490:	00003021 	move	a2,zero
80019494:	0c005621 	jal	80015884 <get_pte>
80019498:	00000000 	nop
8001949c:	afc20020 	sw	v0,32(s8)
800194a0:	8fc20020 	lw	v0,32(s8)
800194a4:	10400007 	beqz	v0,800194c4 <tlb_get_empty+0x144>
800194a8:	00000000 	nop
800194ac:	8fc20020 	lw	v0,32(s8)
800194b0:	8c430000 	lw	v1,0(v0)
800194b4:	2402ff7f 	li	v0,-129
800194b8:	00621824 	and	v1,v1,v0
800194bc:	8fc20020 	lw	v0,32(s8)
800194c0:	ac430000 	sw	v1,0(v0)
800194c4:	93c30018 	lbu	v1,24(s8)
800194c8:	3c028036 	lui	v0,0x8036
800194cc:	00031880 	sll	v1,v1,0x2
800194d0:	24422194 	addiu	v0,v0,8596
800194d4:	00621021 	addu	v0,v1,v0
800194d8:	8fc30030 	lw	v1,48(s8)
800194dc:	ac430000 	sw	v1,0(v0)
800194e0:	93c20018 	lbu	v0,24(s8)
800194e4:	03c0e821 	move	sp,s8
800194e8:	8fbf002c 	lw	ra,44(sp)
800194ec:	8fbe0028 	lw	s8,40(sp)
800194f0:	27bd0030 	addiu	sp,sp,48
800194f4:	03e00008 	jr	ra
800194f8:	00000000 	nop

800194fc <tlb_half_add_callback>:
800194fc:	27bdfff8 	addiu	sp,sp,-8
80019500:	afbe0004 	sw	s8,4(sp)
80019504:	03a0f021 	move	s8,sp
80019508:	00801021 	move	v0,a0
8001950c:	a3c20008 	sb	v0,8(s8)
80019510:	03c0e821 	move	sp,s8
80019514:	8fbe0004 	lw	s8,4(sp)
80019518:	27bd0008 	addiu	sp,sp,8
8001951c:	03e00008 	jr	ra
80019520:	00000000 	nop

80019524 <tlb_half_del_callback>:
80019524:	27bdfff8 	addiu	sp,sp,-8
80019528:	afbe0004 	sw	s8,4(sp)
8001952c:	03a0f021 	move	s8,sp
80019530:	00801021 	move	v0,a0
80019534:	a3c20008 	sb	v0,8(s8)
80019538:	03c0e821 	move	sp,s8
8001953c:	8fbe0004 	lw	s8,4(sp)
80019540:	27bd0008 	addiu	sp,sp,8
80019544:	03e00008 	jr	ra
80019548:	00000000 	nop

8001954c <tlb_del_callback>:
8001954c:	27bdfff8 	addiu	sp,sp,-8
80019550:	afbe0004 	sw	s8,4(sp)
80019554:	03a0f021 	move	s8,sp
80019558:	00801021 	move	v0,a0
8001955c:	a3c20008 	sb	v0,8(s8)
80019560:	3c028036 	lui	v0,0x8036
80019564:	904222b8 	lbu	v0,8888(v0)
80019568:	24430001 	addiu	v1,v0,1
8001956c:	306400ff 	andi	a0,v1,0xff
80019570:	3c038036 	lui	v1,0x8036
80019574:	a06422b8 	sb	a0,8888(v1)
80019578:	00401821 	move	v1,v0
8001957c:	3c028036 	lui	v0,0x8036
80019580:	244221d4 	addiu	v0,v0,8660
80019584:	00621021 	addu	v0,v1,v0
80019588:	93c30008 	lbu	v1,8(s8)
8001958c:	a0430000 	sb	v1,0(v0)
80019590:	03c0e821 	move	sp,s8
80019594:	8fbe0004 	lw	s8,4(sp)
80019598:	27bd0008 	addiu	sp,sp,8
8001959c:	03e00008 	jr	ra
800195a0:	00000000 	nop

800195a4 <tlb_write>:
800195a4:	27bdfff8 	addiu	sp,sp,-8
800195a8:	afbe0004 	sw	s8,4(sp)
800195ac:	03a0f021 	move	s8,sp
800195b0:	00801021 	move	v0,a0
800195b4:	afc5000c 	sw	a1,12(s8)
800195b8:	afc60010 	sw	a2,16(s8)
800195bc:	afc70014 	sw	a3,20(s8)
800195c0:	a3c20008 	sb	v0,8(s8)
800195c4:	93c20008 	lbu	v0,8(s8)
800195c8:	40820000 	mtc0	v0,c0_index
800195cc:	8fc2000c 	lw	v0,12(s8)
800195d0:	40825000 	mtc0	v0,c0_entryhi
800195d4:	8fc20010 	lw	v0,16(s8)
800195d8:	40821000 	mtc0	v0,c0_entrylo0
800195dc:	8fc20014 	lw	v0,20(s8)
800195e0:	40821800 	mtc0	v0,c0_entrylo1
800195e4:	42000002 	tlbwi
800195e8:	03c0e821 	move	sp,s8
800195ec:	8fbe0004 	lw	s8,4(sp)
800195f0:	27bd0008 	addiu	sp,sp,8
800195f4:	03e00008 	jr	ra
800195f8:	00000000 	nop

800195fc <tlb_print>:
800195fc:	27bdffb8 	addiu	sp,sp,-72
80019600:	afbf0044 	sw	ra,68(sp)
80019604:	afbe0040 	sw	s8,64(sp)
80019608:	03a0f021 	move	s8,sp
8001960c:	afc40048 	sw	a0,72(s8)
80019610:	3c028002 	lui	v0,0x8002
80019614:	24443958 	addiu	a0,v0,14680
80019618:	8fc50048 	lw	a1,72(s8)
8001961c:	0c00413e 	jal	800104f8 <cprintf>
80019620:	00000000 	nop
80019624:	a3c00020 	sb	zero,32(s8)
80019628:	080065e9 	j	800197a4 <tlb_print+0x1a8>
8001962c:	00000000 	nop
80019630:	93c20020 	lbu	v0,32(s8)
80019634:	40820000 	mtc0	v0,c0_index
80019638:	42000001 	tlbr
8001963c:	40025000 	mfc0	v0,c0_entryhi
80019640:	afc20024 	sw	v0,36(s8)
80019644:	8fc20024 	lw	v0,36(s8)
80019648:	afc20028 	sw	v0,40(s8)
8001964c:	40021000 	mfc0	v0,c0_entrylo0
80019650:	afc2002c 	sw	v0,44(s8)
80019654:	8fc2002c 	lw	v0,44(s8)
80019658:	afc20030 	sw	v0,48(s8)
8001965c:	40021800 	mfc0	v0,c0_entrylo1
80019660:	afc20034 	sw	v0,52(s8)
80019664:	8fc20034 	lw	v0,52(s8)
80019668:	afc20038 	sw	v0,56(s8)
8001966c:	8fc30030 	lw	v1,48(s8)
80019670:	8fc20038 	lw	v0,56(s8)
80019674:	00621025 	or	v0,v1,v0
80019678:	30420004 	andi	v0,v0,0x4
8001967c:	10400046 	beqz	v0,80019798 <tlb_print+0x19c>
80019680:	00000000 	nop
80019684:	93c20020 	lbu	v0,32(s8)
80019688:	8fc30038 	lw	v1,56(s8)
8001968c:	afa30010 	sw	v1,16(sp)
80019690:	3c038002 	lui	v1,0x8002
80019694:	24643968 	addiu	a0,v1,14696
80019698:	00402821 	move	a1,v0
8001969c:	8fc60028 	lw	a2,40(s8)
800196a0:	8fc70030 	lw	a3,48(s8)
800196a4:	0c00413e 	jal	800104f8 <cprintf>
800196a8:	00000000 	nop
800196ac:	8fc30028 	lw	v1,40(s8)
800196b0:	2402e000 	li	v0,-8192
800196b4:	00622824 	and	a1,v1,v0
800196b8:	8fc20030 	lw	v0,48(s8)
800196bc:	00021980 	sll	v1,v0,0x6
800196c0:	2402f000 	li	v0,-4096
800196c4:	00623024 	and	a2,v1,v0
800196c8:	8fc20030 	lw	v0,48(s8)
800196cc:	30420004 	andi	v0,v0,0x4
800196d0:	10400004 	beqz	v0,800196e4 <tlb_print+0xe8>
800196d4:	00000000 	nop
800196d8:	24020044 	li	v0,68
800196dc:	080065ba 	j	800196e8 <tlb_print+0xec>
800196e0:	00000000 	nop
800196e4:	2402005f 	li	v0,95
800196e8:	8fc30030 	lw	v1,48(s8)
800196ec:	30630002 	andi	v1,v1,0x2
800196f0:	10600004 	beqz	v1,80019704 <tlb_print+0x108>
800196f4:	00000000 	nop
800196f8:	24030056 	li	v1,86
800196fc:	080065c2 	j	80019708 <tlb_print+0x10c>
80019700:	00000000 	nop
80019704:	2403005f 	li	v1,95
80019708:	afa30010 	sw	v1,16(sp)
8001970c:	3c038002 	lui	v1,0x8002
80019710:	2464398c 	addiu	a0,v1,14732
80019714:	00403821 	move	a3,v0
80019718:	0c00413e 	jal	800104f8 <cprintf>
8001971c:	00000000 	nop
80019720:	8fc30028 	lw	v1,40(s8)
80019724:	2402e000 	li	v0,-8192
80019728:	00621024 	and	v0,v1,v0
8001972c:	38451000 	xori	a1,v0,0x1000
80019730:	8fc20038 	lw	v0,56(s8)
80019734:	00021980 	sll	v1,v0,0x6
80019738:	2402f000 	li	v0,-4096
8001973c:	00623024 	and	a2,v1,v0
80019740:	8fc20038 	lw	v0,56(s8)
80019744:	30420004 	andi	v0,v0,0x4
80019748:	10400004 	beqz	v0,8001975c <tlb_print+0x160>
8001974c:	00000000 	nop
80019750:	24020044 	li	v0,68
80019754:	080065d8 	j	80019760 <tlb_print+0x164>
80019758:	00000000 	nop
8001975c:	2402005f 	li	v0,95
80019760:	8fc30038 	lw	v1,56(s8)
80019764:	30630002 	andi	v1,v1,0x2
80019768:	10600004 	beqz	v1,8001977c <tlb_print+0x180>
8001976c:	00000000 	nop
80019770:	24030056 	li	v1,86
80019774:	080065e0 	j	80019780 <tlb_print+0x184>
80019778:	00000000 	nop
8001977c:	2403005f 	li	v1,95
80019780:	afa30010 	sw	v1,16(sp)
80019784:	3c038002 	lui	v1,0x8002
80019788:	2464398c 	addiu	a0,v1,14732
8001978c:	00403821 	move	a3,v0
80019790:	0c00413e 	jal	800104f8 <cprintf>
80019794:	00000000 	nop
80019798:	93c20020 	lbu	v0,32(s8)
8001979c:	24420001 	addiu	v0,v0,1
800197a0:	a3c20020 	sb	v0,32(s8)
800197a4:	93c20020 	lbu	v0,32(s8)
800197a8:	2c420010 	sltiu	v0,v0,16
800197ac:	1440ffa0 	bnez	v0,80019630 <tlb_print+0x34>
800197b0:	00000000 	nop
800197b4:	03c0e821 	move	sp,s8
800197b8:	8fbf0044 	lw	ra,68(sp)
800197bc:	8fbe0040 	lw	s8,64(sp)
800197c0:	27bd0048 	addiu	sp,sp,72
800197c4:	03e00008 	jr	ra
800197c8:	00000000 	nop
800197cc:	00000000 	nop

800197d0 <mm_count>:
800197d0:	27bdfff8 	addiu	sp,sp,-8
800197d4:	afbe0004 	sw	s8,4(sp)
800197d8:	03a0f021 	move	s8,sp
800197dc:	afc40008 	sw	a0,8(s8)
800197e0:	8fc20008 	lw	v0,8(s8)
800197e4:	8c420018 	lw	v0,24(v0)
800197e8:	03c0e821 	move	sp,s8
800197ec:	8fbe0004 	lw	s8,4(sp)
800197f0:	27bd0008 	addiu	sp,sp,8
800197f4:	03e00008 	jr	ra
800197f8:	00000000 	nop

800197fc <set_mm_count>:
800197fc:	27bdfff8 	addiu	sp,sp,-8
80019800:	afbe0004 	sw	s8,4(sp)
80019804:	03a0f021 	move	s8,sp
80019808:	afc40008 	sw	a0,8(s8)
8001980c:	afc5000c 	sw	a1,12(s8)
80019810:	8fc20008 	lw	v0,8(s8)
80019814:	8fc3000c 	lw	v1,12(s8)
80019818:	ac430018 	sw	v1,24(v0)
8001981c:	03c0e821 	move	sp,s8
80019820:	8fbe0004 	lw	s8,4(sp)
80019824:	27bd0008 	addiu	sp,sp,8
80019828:	03e00008 	jr	ra
8001982c:	00000000 	nop

80019830 <pa2page>:
80019830:	27bdffe0 	addiu	sp,sp,-32
80019834:	afbf001c 	sw	ra,28(sp)
80019838:	afbe0018 	sw	s8,24(sp)
8001983c:	03a0f021 	move	s8,sp
80019840:	afc40020 	sw	a0,32(s8)
80019844:	8fc20020 	lw	v0,32(s8)
80019848:	00021b02 	srl	v1,v0,0xc
8001984c:	3c028036 	lui	v0,0x8036
80019850:	8c420030 	lw	v0,48(v0)
80019854:	0062102b 	sltu	v0,v1,v0
80019858:	14400008 	bnez	v0,8001987c <pa2page+0x4c>
8001985c:	00000000 	nop
80019860:	3c028002 	lui	v0,0x8002
80019864:	244439b0 	addiu	a0,v0,14768
80019868:	2405005c 	li	a1,92
8001986c:	3c028002 	lui	v0,0x8002
80019870:	244639c0 	addiu	a2,v0,14784
80019874:	0c004544 	jal	80011510 <__panic>
80019878:	00000000 	nop
8001987c:	3c028036 	lui	v0,0x8036
80019880:	8c4322a8 	lw	v1,8872(v0)
80019884:	8fc20020 	lw	v0,32(s8)
80019888:	00021302 	srl	v0,v0,0xc
8001988c:	00021140 	sll	v0,v0,0x5
80019890:	00621021 	addu	v0,v1,v0
80019894:	03c0e821 	move	sp,s8
80019898:	8fbf001c 	lw	ra,28(sp)
8001989c:	8fbe0018 	lw	s8,24(sp)
800198a0:	27bd0020 	addiu	sp,sp,32
800198a4:	03e00008 	jr	ra
800198a8:	00000000 	nop

800198ac <mm_create>:
800198ac:	27bdffd8 	addiu	sp,sp,-40
800198b0:	afbf0024 	sw	ra,36(sp)
800198b4:	afbe0020 	sw	s8,32(sp)
800198b8:	03a0f021 	move	s8,sp
800198bc:	2404002c 	li	a0,44
800198c0:	0c0052a3 	jal	80014a8c <kmalloc>
800198c4:	00000000 	nop
800198c8:	afc20018 	sw	v0,24(s8)
800198cc:	8fc20018 	lw	v0,24(s8)
800198d0:	10400025 	beqz	v0,80019968 <mm_create+0xbc>
800198d4:	00000000 	nop
800198d8:	8fc20018 	lw	v0,24(s8)
800198dc:	afc2001c 	sw	v0,28(s8)
800198e0:	8fc2001c 	lw	v0,28(s8)
800198e4:	8fc3001c 	lw	v1,28(s8)
800198e8:	ac430004 	sw	v1,4(v0)
800198ec:	8fc2001c 	lw	v0,28(s8)
800198f0:	8c430004 	lw	v1,4(v0)
800198f4:	8fc2001c 	lw	v0,28(s8)
800198f8:	ac430000 	sw	v1,0(v0)
800198fc:	8fc20018 	lw	v0,24(s8)
80019900:	ac400008 	sw	zero,8(v0)
80019904:	8fc20018 	lw	v0,24(s8)
80019908:	ac40000c 	sw	zero,12(v0)
8001990c:	8fc20018 	lw	v0,24(s8)
80019910:	ac400010 	sw	zero,16(v0)
80019914:	3c028036 	lui	v0,0x8036
80019918:	8c420040 	lw	v0,64(v0)
8001991c:	10400006 	beqz	v0,80019938 <mm_create+0x8c>
80019920:	00000000 	nop
80019924:	8fc40018 	lw	a0,24(s8)
80019928:	0c005d5e 	jal	80017578 <swap_init_mm>
8001992c:	00000000 	nop
80019930:	08006650 	j	80019940 <mm_create+0x94>
80019934:	00000000 	nop
80019938:	8fc20018 	lw	v0,24(s8)
8001993c:	ac400014 	sw	zero,20(v0)
80019940:	8fc40018 	lw	a0,24(s8)
80019944:	00002821 	move	a1,zero
80019948:	0c0065ff 	jal	800197fc <set_mm_count>
8001994c:	00000000 	nop
80019950:	8fc20018 	lw	v0,24(s8)
80019954:	2442001c 	addiu	v0,v0,28
80019958:	00402021 	move	a0,v0
8001995c:	24050001 	li	a1,1
80019960:	0c007052 	jal	8001c148 <sem_init>
80019964:	00000000 	nop
80019968:	8fc20018 	lw	v0,24(s8)
8001996c:	03c0e821 	move	sp,s8
80019970:	8fbf0024 	lw	ra,36(sp)
80019974:	8fbe0020 	lw	s8,32(sp)
80019978:	27bd0028 	addiu	sp,sp,40
8001997c:	03e00008 	jr	ra
80019980:	00000000 	nop

80019984 <vma_create>:
80019984:	27bdffd8 	addiu	sp,sp,-40
80019988:	afbf0024 	sw	ra,36(sp)
8001998c:	afbe0020 	sw	s8,32(sp)
80019990:	03a0f021 	move	s8,sp
80019994:	afc40028 	sw	a0,40(s8)
80019998:	afc5002c 	sw	a1,44(s8)
8001999c:	afc60030 	sw	a2,48(s8)
800199a0:	24040018 	li	a0,24
800199a4:	0c0052a3 	jal	80014a8c <kmalloc>
800199a8:	00000000 	nop
800199ac:	afc20018 	sw	v0,24(s8)
800199b0:	8fc20018 	lw	v0,24(s8)
800199b4:	1040000a 	beqz	v0,800199e0 <vma_create+0x5c>
800199b8:	00000000 	nop
800199bc:	8fc20018 	lw	v0,24(s8)
800199c0:	8fc30028 	lw	v1,40(s8)
800199c4:	ac430004 	sw	v1,4(v0)
800199c8:	8fc20018 	lw	v0,24(s8)
800199cc:	8fc3002c 	lw	v1,44(s8)
800199d0:	ac430008 	sw	v1,8(v0)
800199d4:	8fc20018 	lw	v0,24(s8)
800199d8:	8fc30030 	lw	v1,48(s8)
800199dc:	ac43000c 	sw	v1,12(v0)
800199e0:	8fc20018 	lw	v0,24(s8)
800199e4:	03c0e821 	move	sp,s8
800199e8:	8fbf0024 	lw	ra,36(sp)
800199ec:	8fbe0020 	lw	s8,32(sp)
800199f0:	27bd0028 	addiu	sp,sp,40
800199f4:	03e00008 	jr	ra
800199f8:	00000000 	nop

800199fc <find_vma>:
800199fc:	27bdffd8 	addiu	sp,sp,-40
80019a00:	afbe0024 	sw	s8,36(sp)
80019a04:	03a0f021 	move	s8,sp
80019a08:	afc40028 	sw	a0,40(s8)
80019a0c:	afc5002c 	sw	a1,44(s8)
80019a10:	afc00008 	sw	zero,8(s8)
80019a14:	8fc20028 	lw	v0,40(s8)
80019a18:	10400040 	beqz	v0,80019b1c <find_vma+0x120>
80019a1c:	00000000 	nop
80019a20:	8fc20028 	lw	v0,40(s8)
80019a24:	8c420008 	lw	v0,8(v0)
80019a28:	afc20008 	sw	v0,8(s8)
80019a2c:	8fc20008 	lw	v0,8(s8)
80019a30:	1040000d 	beqz	v0,80019a68 <find_vma+0x6c>
80019a34:	00000000 	nop
80019a38:	8fc20008 	lw	v0,8(s8)
80019a3c:	8c430004 	lw	v1,4(v0)
80019a40:	8fc2002c 	lw	v0,44(s8)
80019a44:	0043102b 	sltu	v0,v0,v1
80019a48:	14400007 	bnez	v0,80019a68 <find_vma+0x6c>
80019a4c:	00000000 	nop
80019a50:	8fc20008 	lw	v0,8(s8)
80019a54:	8c430008 	lw	v1,8(v0)
80019a58:	8fc2002c 	lw	v0,44(s8)
80019a5c:	0043102b 	sltu	v0,v0,v1
80019a60:	14400028 	bnez	v0,80019b04 <find_vma+0x108>
80019a64:	00000000 	nop
80019a68:	afc0000c 	sw	zero,12(s8)
80019a6c:	8fc20028 	lw	v0,40(s8)
80019a70:	afc20014 	sw	v0,20(s8)
80019a74:	8fc20014 	lw	v0,20(s8)
80019a78:	afc20010 	sw	v0,16(s8)
80019a7c:	080066b4 	j	80019ad0 <find_vma+0xd4>
80019a80:	00000000 	nop
80019a84:	8fc20010 	lw	v0,16(s8)
80019a88:	2442fff0 	addiu	v0,v0,-16
80019a8c:	afc20008 	sw	v0,8(s8)
80019a90:	8fc20008 	lw	v0,8(s8)
80019a94:	8c430004 	lw	v1,4(v0)
80019a98:	8fc2002c 	lw	v0,44(s8)
80019a9c:	0043102b 	sltu	v0,v0,v1
80019aa0:	1440000b 	bnez	v0,80019ad0 <find_vma+0xd4>
80019aa4:	00000000 	nop
80019aa8:	8fc20008 	lw	v0,8(s8)
80019aac:	8c430008 	lw	v1,8(v0)
80019ab0:	8fc2002c 	lw	v0,44(s8)
80019ab4:	0043102b 	sltu	v0,v0,v1
80019ab8:	10400005 	beqz	v0,80019ad0 <find_vma+0xd4>
80019abc:	00000000 	nop
80019ac0:	24020001 	li	v0,1
80019ac4:	afc2000c 	sw	v0,12(s8)
80019ac8:	080066bd 	j	80019af4 <find_vma+0xf8>
80019acc:	00000000 	nop
80019ad0:	8fc20010 	lw	v0,16(s8)
80019ad4:	afc20018 	sw	v0,24(s8)
80019ad8:	8fc20018 	lw	v0,24(s8)
80019adc:	8c420004 	lw	v0,4(v0)
80019ae0:	afc20010 	sw	v0,16(s8)
80019ae4:	8fc30010 	lw	v1,16(s8)
80019ae8:	8fc20014 	lw	v0,20(s8)
80019aec:	1462ffe5 	bne	v1,v0,80019a84 <find_vma+0x88>
80019af0:	00000000 	nop
80019af4:	8fc2000c 	lw	v0,12(s8)
80019af8:	14400002 	bnez	v0,80019b04 <find_vma+0x108>
80019afc:	00000000 	nop
80019b00:	afc00008 	sw	zero,8(s8)
80019b04:	8fc20008 	lw	v0,8(s8)
80019b08:	10400004 	beqz	v0,80019b1c <find_vma+0x120>
80019b0c:	00000000 	nop
80019b10:	8fc20028 	lw	v0,40(s8)
80019b14:	8fc30008 	lw	v1,8(s8)
80019b18:	ac430008 	sw	v1,8(v0)
80019b1c:	8fc20008 	lw	v0,8(s8)
80019b20:	03c0e821 	move	sp,s8
80019b24:	8fbe0024 	lw	s8,36(sp)
80019b28:	27bd0028 	addiu	sp,sp,40
80019b2c:	03e00008 	jr	ra
80019b30:	00000000 	nop

80019b34 <check_vma_overlap>:
80019b34:	27bdffe0 	addiu	sp,sp,-32
80019b38:	afbf001c 	sw	ra,28(sp)
80019b3c:	afbe0018 	sw	s8,24(sp)
80019b40:	03a0f021 	move	s8,sp
80019b44:	afc40020 	sw	a0,32(s8)
80019b48:	afc50024 	sw	a1,36(s8)
80019b4c:	8fc20020 	lw	v0,32(s8)
80019b50:	8c430004 	lw	v1,4(v0)
80019b54:	8fc20020 	lw	v0,32(s8)
80019b58:	8c420008 	lw	v0,8(v0)
80019b5c:	0062102b 	sltu	v0,v1,v0
80019b60:	1440000a 	bnez	v0,80019b8c <check_vma_overlap+0x58>
80019b64:	00000000 	nop
80019b68:	3c028002 	lui	v0,0x8002
80019b6c:	244439e0 	addiu	a0,v0,14816
80019b70:	2405006a 	li	a1,106
80019b74:	3c028002 	lui	v0,0x8002
80019b78:	244639f0 	addiu	a2,v0,14832
80019b7c:	3c028002 	lui	v0,0x8002
80019b80:	24473a08 	addiu	a3,v0,14856
80019b84:	0c004544 	jal	80011510 <__panic>
80019b88:	00000000 	nop
80019b8c:	8fc20020 	lw	v0,32(s8)
80019b90:	8c430008 	lw	v1,8(v0)
80019b94:	8fc20024 	lw	v0,36(s8)
80019b98:	8c420004 	lw	v0,4(v0)
80019b9c:	0043102b 	sltu	v0,v0,v1
80019ba0:	1040000a 	beqz	v0,80019bcc <check_vma_overlap+0x98>
80019ba4:	00000000 	nop
80019ba8:	3c028002 	lui	v0,0x8002
80019bac:	244439e0 	addiu	a0,v0,14816
80019bb0:	2405006b 	li	a1,107
80019bb4:	3c028002 	lui	v0,0x8002
80019bb8:	244639f0 	addiu	a2,v0,14832
80019bbc:	3c028002 	lui	v0,0x8002
80019bc0:	24473a28 	addiu	a3,v0,14888
80019bc4:	0c004544 	jal	80011510 <__panic>
80019bc8:	00000000 	nop
80019bcc:	8fc20024 	lw	v0,36(s8)
80019bd0:	8c430004 	lw	v1,4(v0)
80019bd4:	8fc20024 	lw	v0,36(s8)
80019bd8:	8c420008 	lw	v0,8(v0)
80019bdc:	0062102b 	sltu	v0,v1,v0
80019be0:	1440000a 	bnez	v0,80019c0c <check_vma_overlap+0xd8>
80019be4:	00000000 	nop
80019be8:	3c028002 	lui	v0,0x8002
80019bec:	244439e0 	addiu	a0,v0,14816
80019bf0:	2405006c 	li	a1,108
80019bf4:	3c028002 	lui	v0,0x8002
80019bf8:	244639f0 	addiu	a2,v0,14832
80019bfc:	3c028002 	lui	v0,0x8002
80019c00:	24473a48 	addiu	a3,v0,14920
80019c04:	0c004544 	jal	80011510 <__panic>
80019c08:	00000000 	nop
80019c0c:	03c0e821 	move	sp,s8
80019c10:	8fbf001c 	lw	ra,28(sp)
80019c14:	8fbe0018 	lw	s8,24(sp)
80019c18:	27bd0020 	addiu	sp,sp,32
80019c1c:	03e00008 	jr	ra
80019c20:	00000000 	nop

80019c24 <insert_vma_struct>:
80019c24:	27bdffb0 	addiu	sp,sp,-80
80019c28:	afbf004c 	sw	ra,76(sp)
80019c2c:	afbe0048 	sw	s8,72(sp)
80019c30:	03a0f021 	move	s8,sp
80019c34:	afc40050 	sw	a0,80(s8)
80019c38:	afc50054 	sw	a1,84(s8)
80019c3c:	8fc20054 	lw	v0,84(s8)
80019c40:	8c430004 	lw	v1,4(v0)
80019c44:	8fc20054 	lw	v0,84(s8)
80019c48:	8c420008 	lw	v0,8(v0)
80019c4c:	0062102b 	sltu	v0,v1,v0
80019c50:	1440000a 	bnez	v0,80019c7c <insert_vma_struct+0x58>
80019c54:	00000000 	nop
80019c58:	3c028002 	lui	v0,0x8002
80019c5c:	244439e0 	addiu	a0,v0,14816
80019c60:	24050073 	li	a1,115
80019c64:	3c028002 	lui	v0,0x8002
80019c68:	244639f0 	addiu	a2,v0,14832
80019c6c:	3c028002 	lui	v0,0x8002
80019c70:	24473a68 	addiu	a3,v0,14952
80019c74:	0c004544 	jal	80011510 <__panic>
80019c78:	00000000 	nop
80019c7c:	8fc20050 	lw	v0,80(s8)
80019c80:	afc20020 	sw	v0,32(s8)
80019c84:	8fc20020 	lw	v0,32(s8)
80019c88:	afc20018 	sw	v0,24(s8)
80019c8c:	8fc20020 	lw	v0,32(s8)
80019c90:	afc2001c 	sw	v0,28(s8)
80019c94:	08006735 	j	80019cd4 <insert_vma_struct+0xb0>
80019c98:	00000000 	nop
80019c9c:	8fc2001c 	lw	v0,28(s8)
80019ca0:	2442fff0 	addiu	v0,v0,-16
80019ca4:	afc20024 	sw	v0,36(s8)
80019ca8:	8fc20024 	lw	v0,36(s8)
80019cac:	8c430004 	lw	v1,4(v0)
80019cb0:	8fc20054 	lw	v0,84(s8)
80019cb4:	8c420004 	lw	v0,4(v0)
80019cb8:	0043102b 	sltu	v0,v0,v1
80019cbc:	10400003 	beqz	v0,80019ccc <insert_vma_struct+0xa8>
80019cc0:	00000000 	nop
80019cc4:	0800673e 	j	80019cf8 <insert_vma_struct+0xd4>
80019cc8:	00000000 	nop
80019ccc:	8fc2001c 	lw	v0,28(s8)
80019cd0:	afc20018 	sw	v0,24(s8)
80019cd4:	8fc2001c 	lw	v0,28(s8)
80019cd8:	afc2002c 	sw	v0,44(s8)
80019cdc:	8fc2002c 	lw	v0,44(s8)
80019ce0:	8c420004 	lw	v0,4(v0)
80019ce4:	afc2001c 	sw	v0,28(s8)
80019ce8:	8fc3001c 	lw	v1,28(s8)
80019cec:	8fc20020 	lw	v0,32(s8)
80019cf0:	1462ffea 	bne	v1,v0,80019c9c <insert_vma_struct+0x78>
80019cf4:	00000000 	nop
80019cf8:	8fc20018 	lw	v0,24(s8)
80019cfc:	afc20030 	sw	v0,48(s8)
80019d00:	8fc20030 	lw	v0,48(s8)
80019d04:	8c420004 	lw	v0,4(v0)
80019d08:	afc20028 	sw	v0,40(s8)
80019d0c:	8fc30018 	lw	v1,24(s8)
80019d10:	8fc20020 	lw	v0,32(s8)
80019d14:	10620007 	beq	v1,v0,80019d34 <insert_vma_struct+0x110>
80019d18:	00000000 	nop
80019d1c:	8fc20018 	lw	v0,24(s8)
80019d20:	2442fff0 	addiu	v0,v0,-16
80019d24:	00402021 	move	a0,v0
80019d28:	8fc50054 	lw	a1,84(s8)
80019d2c:	0c0066cd 	jal	80019b34 <check_vma_overlap>
80019d30:	00000000 	nop
80019d34:	8fc30028 	lw	v1,40(s8)
80019d38:	8fc20020 	lw	v0,32(s8)
80019d3c:	10620007 	beq	v1,v0,80019d5c <insert_vma_struct+0x138>
80019d40:	00000000 	nop
80019d44:	8fc20028 	lw	v0,40(s8)
80019d48:	2442fff0 	addiu	v0,v0,-16
80019d4c:	8fc40054 	lw	a0,84(s8)
80019d50:	00402821 	move	a1,v0
80019d54:	0c0066cd 	jal	80019b34 <check_vma_overlap>
80019d58:	00000000 	nop
80019d5c:	8fc20054 	lw	v0,84(s8)
80019d60:	8fc30050 	lw	v1,80(s8)
80019d64:	ac430000 	sw	v1,0(v0)
80019d68:	8fc20054 	lw	v0,84(s8)
80019d6c:	24420010 	addiu	v0,v0,16
80019d70:	8fc30018 	lw	v1,24(s8)
80019d74:	afc30034 	sw	v1,52(s8)
80019d78:	afc20038 	sw	v0,56(s8)
80019d7c:	8fc20034 	lw	v0,52(s8)
80019d80:	8c420004 	lw	v0,4(v0)
80019d84:	8fc30038 	lw	v1,56(s8)
80019d88:	afc3003c 	sw	v1,60(s8)
80019d8c:	8fc30034 	lw	v1,52(s8)
80019d90:	afc30040 	sw	v1,64(s8)
80019d94:	afc20044 	sw	v0,68(s8)
80019d98:	8fc20044 	lw	v0,68(s8)
80019d9c:	8fc3003c 	lw	v1,60(s8)
80019da0:	ac430000 	sw	v1,0(v0)
80019da4:	8fc20044 	lw	v0,68(s8)
80019da8:	8c430000 	lw	v1,0(v0)
80019dac:	8fc20040 	lw	v0,64(s8)
80019db0:	ac430004 	sw	v1,4(v0)
80019db4:	8fc2003c 	lw	v0,60(s8)
80019db8:	8fc30044 	lw	v1,68(s8)
80019dbc:	ac430004 	sw	v1,4(v0)
80019dc0:	8fc2003c 	lw	v0,60(s8)
80019dc4:	8fc30040 	lw	v1,64(s8)
80019dc8:	ac430000 	sw	v1,0(v0)
80019dcc:	8fc20050 	lw	v0,80(s8)
80019dd0:	8c420010 	lw	v0,16(v0)
80019dd4:	24430001 	addiu	v1,v0,1
80019dd8:	8fc20050 	lw	v0,80(s8)
80019ddc:	ac430010 	sw	v1,16(v0)
80019de0:	03c0e821 	move	sp,s8
80019de4:	8fbf004c 	lw	ra,76(sp)
80019de8:	8fbe0048 	lw	s8,72(sp)
80019dec:	27bd0050 	addiu	sp,sp,80
80019df0:	03e00008 	jr	ra
80019df4:	00000000 	nop

80019df8 <mm_destroy>:
80019df8:	27bdffc8 	addiu	sp,sp,-56
80019dfc:	afbf0034 	sw	ra,52(sp)
80019e00:	afbe0030 	sw	s8,48(sp)
80019e04:	03a0f021 	move	s8,sp
80019e08:	afc40038 	sw	a0,56(s8)
80019e0c:	8fc40038 	lw	a0,56(s8)
80019e10:	0c0065f4 	jal	800197d0 <mm_count>
80019e14:	00000000 	nop
80019e18:	1040000a 	beqz	v0,80019e44 <mm_destroy+0x4c>
80019e1c:	00000000 	nop
80019e20:	3c028002 	lui	v0,0x8002
80019e24:	244439e0 	addiu	a0,v0,14816
80019e28:	24050093 	li	a1,147
80019e2c:	3c028002 	lui	v0,0x8002
80019e30:	244639f0 	addiu	a2,v0,14832
80019e34:	3c028002 	lui	v0,0x8002
80019e38:	24473a84 	addiu	a3,v0,14980
80019e3c:	0c004544 	jal	80011510 <__panic>
80019e40:	00000000 	nop
80019e44:	8fc20038 	lw	v0,56(s8)
80019e48:	afc20018 	sw	v0,24(s8)
80019e4c:	080067a8 	j	80019ea0 <mm_destroy+0xa8>
80019e50:	00000000 	nop
80019e54:	8fc2001c 	lw	v0,28(s8)
80019e58:	afc20020 	sw	v0,32(s8)
80019e5c:	8fc20020 	lw	v0,32(s8)
80019e60:	8c430000 	lw	v1,0(v0)
80019e64:	8fc20020 	lw	v0,32(s8)
80019e68:	8c420004 	lw	v0,4(v0)
80019e6c:	afc30024 	sw	v1,36(s8)
80019e70:	afc20028 	sw	v0,40(s8)
80019e74:	8fc20024 	lw	v0,36(s8)
80019e78:	8fc30028 	lw	v1,40(s8)
80019e7c:	ac430004 	sw	v1,4(v0)
80019e80:	8fc20028 	lw	v0,40(s8)
80019e84:	8fc30024 	lw	v1,36(s8)
80019e88:	ac430000 	sw	v1,0(v0)
80019e8c:	8fc2001c 	lw	v0,28(s8)
80019e90:	2442fff0 	addiu	v0,v0,-16
80019e94:	00402021 	move	a0,v0
80019e98:	0c0052b2 	jal	80014ac8 <kfree>
80019e9c:	00000000 	nop
80019ea0:	8fc20018 	lw	v0,24(s8)
80019ea4:	afc2002c 	sw	v0,44(s8)
80019ea8:	8fc2002c 	lw	v0,44(s8)
80019eac:	8c420004 	lw	v0,4(v0)
80019eb0:	afc2001c 	sw	v0,28(s8)
80019eb4:	8fc3001c 	lw	v1,28(s8)
80019eb8:	8fc20018 	lw	v0,24(s8)
80019ebc:	1462ffe5 	bne	v1,v0,80019e54 <mm_destroy+0x5c>
80019ec0:	00000000 	nop
80019ec4:	8fc40038 	lw	a0,56(s8)
80019ec8:	0c0052b2 	jal	80014ac8 <kfree>
80019ecc:	00000000 	nop
80019ed0:	afc00038 	sw	zero,56(s8)
80019ed4:	03c0e821 	move	sp,s8
80019ed8:	8fbf0034 	lw	ra,52(sp)
80019edc:	8fbe0030 	lw	s8,48(sp)
80019ee0:	27bd0038 	addiu	sp,sp,56
80019ee4:	03e00008 	jr	ra
80019ee8:	00000000 	nop

80019eec <mm_map>:
80019eec:	27bdffc8 	addiu	sp,sp,-56
80019ef0:	afbf0034 	sw	ra,52(sp)
80019ef4:	afbe0030 	sw	s8,48(sp)
80019ef8:	03a0f021 	move	s8,sp
80019efc:	afc40038 	sw	a0,56(s8)
80019f00:	afc5003c 	sw	a1,60(s8)
80019f04:	afc60040 	sw	a2,64(s8)
80019f08:	afc70044 	sw	a3,68(s8)
80019f0c:	8fc2003c 	lw	v0,60(s8)
80019f10:	afc2001c 	sw	v0,28(s8)
80019f14:	8fc3001c 	lw	v1,28(s8)
80019f18:	2402f000 	li	v0,-4096
80019f1c:	00621024 	and	v0,v1,v0
80019f20:	afc20020 	sw	v0,32(s8)
80019f24:	8fc3003c 	lw	v1,60(s8)
80019f28:	8fc20040 	lw	v0,64(s8)
80019f2c:	00621021 	addu	v0,v1,v0
80019f30:	24420fff 	addiu	v0,v0,4095
80019f34:	afc20024 	sw	v0,36(s8)
80019f38:	8fc30024 	lw	v1,36(s8)
80019f3c:	2402f000 	li	v0,-4096
80019f40:	00621024 	and	v0,v1,v0
80019f44:	afc20028 	sw	v0,40(s8)
80019f48:	8fc30020 	lw	v1,32(s8)
80019f4c:	3c020020 	lui	v0,0x20
80019f50:	0062102b 	sltu	v0,v1,v0
80019f54:	1440000c 	bnez	v0,80019f88 <mm_map+0x9c>
80019f58:	00000000 	nop
80019f5c:	8fc30020 	lw	v1,32(s8)
80019f60:	8fc20028 	lw	v0,40(s8)
80019f64:	0062102b 	sltu	v0,v1,v0
80019f68:	10400007 	beqz	v0,80019f88 <mm_map+0x9c>
80019f6c:	00000000 	nop
80019f70:	8fc30028 	lw	v1,40(s8)
80019f74:	3c028000 	lui	v0,0x8000
80019f78:	34420001 	ori	v0,v0,0x1
80019f7c:	0062102b 	sltu	v0,v1,v0
80019f80:	14400004 	bnez	v0,80019f94 <mm_map+0xa8>
80019f84:	00000000 	nop
80019f88:	2402fffd 	li	v0,-3
80019f8c:	0800681c 	j	8001a070 <mm_map+0x184>
80019f90:	00000000 	nop
80019f94:	8fc20038 	lw	v0,56(s8)
80019f98:	1440000a 	bnez	v0,80019fc4 <mm_map+0xd8>
80019f9c:	00000000 	nop
80019fa0:	3c028002 	lui	v0,0x8002
80019fa4:	244439e0 	addiu	a0,v0,14816
80019fa8:	240500a6 	li	a1,166
80019fac:	3c028002 	lui	v0,0x8002
80019fb0:	244639f0 	addiu	a2,v0,14832
80019fb4:	3c028002 	lui	v0,0x8002
80019fb8:	24473a98 	addiu	a3,v0,15000
80019fbc:	0c004544 	jal	80011510 <__panic>
80019fc0:	00000000 	nop
80019fc4:	2402fffd 	li	v0,-3
80019fc8:	afc20018 	sw	v0,24(s8)
80019fcc:	8fc40038 	lw	a0,56(s8)
80019fd0:	8fc50020 	lw	a1,32(s8)
80019fd4:	0c00667f 	jal	800199fc <find_vma>
80019fd8:	00000000 	nop
80019fdc:	afc2002c 	sw	v0,44(s8)
80019fe0:	8fc2002c 	lw	v0,44(s8)
80019fe4:	10400009 	beqz	v0,8001a00c <mm_map+0x120>
80019fe8:	00000000 	nop
80019fec:	8fc2002c 	lw	v0,44(s8)
80019ff0:	8c430004 	lw	v1,4(v0)
80019ff4:	8fc20028 	lw	v0,40(s8)
80019ff8:	0062102b 	sltu	v0,v1,v0
80019ffc:	10400003 	beqz	v0,8001a00c <mm_map+0x120>
8001a000:	00000000 	nop
8001a004:	0800681b 	j	8001a06c <mm_map+0x180>
8001a008:	00000000 	nop
8001a00c:	2402fffc 	li	v0,-4
8001a010:	afc20018 	sw	v0,24(s8)
8001a014:	8fc40020 	lw	a0,32(s8)
8001a018:	8fc50028 	lw	a1,40(s8)
8001a01c:	8fc60044 	lw	a2,68(s8)
8001a020:	0c006661 	jal	80019984 <vma_create>
8001a024:	00000000 	nop
8001a028:	afc2002c 	sw	v0,44(s8)
8001a02c:	8fc2002c 	lw	v0,44(s8)
8001a030:	14400003 	bnez	v0,8001a040 <mm_map+0x154>
8001a034:	00000000 	nop
8001a038:	0800681b 	j	8001a06c <mm_map+0x180>
8001a03c:	00000000 	nop
8001a040:	8fc40038 	lw	a0,56(s8)
8001a044:	8fc5002c 	lw	a1,44(s8)
8001a048:	0c006709 	jal	80019c24 <insert_vma_struct>
8001a04c:	00000000 	nop
8001a050:	8fc20048 	lw	v0,72(s8)
8001a054:	10400004 	beqz	v0,8001a068 <mm_map+0x17c>
8001a058:	00000000 	nop
8001a05c:	8fc20048 	lw	v0,72(s8)
8001a060:	8fc3002c 	lw	v1,44(s8)
8001a064:	ac430000 	sw	v1,0(v0)
8001a068:	afc00018 	sw	zero,24(s8)
8001a06c:	8fc20018 	lw	v0,24(s8)
8001a070:	03c0e821 	move	sp,s8
8001a074:	8fbf0034 	lw	ra,52(sp)
8001a078:	8fbe0030 	lw	s8,48(sp)
8001a07c:	27bd0038 	addiu	sp,sp,56
8001a080:	03e00008 	jr	ra
8001a084:	00000000 	nop

8001a088 <dup_mmap>:
8001a088:	27bdffc0 	addiu	sp,sp,-64
8001a08c:	afbf003c 	sw	ra,60(sp)
8001a090:	afbe0038 	sw	s8,56(sp)
8001a094:	03a0f021 	move	s8,sp
8001a098:	afc40040 	sw	a0,64(s8)
8001a09c:	afc50044 	sw	a1,68(s8)
8001a0a0:	8fc20040 	lw	v0,64(s8)
8001a0a4:	10400004 	beqz	v0,8001a0b8 <dup_mmap+0x30>
8001a0a8:	00000000 	nop
8001a0ac:	8fc20044 	lw	v0,68(s8)
8001a0b0:	1440000a 	bnez	v0,8001a0dc <dup_mmap+0x54>
8001a0b4:	00000000 	nop
8001a0b8:	3c028002 	lui	v0,0x8002
8001a0bc:	244439e0 	addiu	a0,v0,14816
8001a0c0:	240500bf 	li	a1,191
8001a0c4:	3c028002 	lui	v0,0x8002
8001a0c8:	244639f0 	addiu	a2,v0,14832
8001a0cc:	3c028002 	lui	v0,0x8002
8001a0d0:	24473aa4 	addiu	a3,v0,15012
8001a0d4:	0c004544 	jal	80011510 <__panic>
8001a0d8:	00000000 	nop
8001a0dc:	8fc20044 	lw	v0,68(s8)
8001a0e0:	afc20024 	sw	v0,36(s8)
8001a0e4:	8fc20024 	lw	v0,36(s8)
8001a0e8:	afc20020 	sw	v0,32(s8)
8001a0ec:	08006869 	j	8001a1a4 <dup_mmap+0x11c>
8001a0f0:	00000000 	nop
8001a0f4:	8fc20020 	lw	v0,32(s8)
8001a0f8:	2442fff0 	addiu	v0,v0,-16
8001a0fc:	afc20028 	sw	v0,40(s8)
8001a100:	8fc20028 	lw	v0,40(s8)
8001a104:	8c440004 	lw	a0,4(v0)
8001a108:	8fc20028 	lw	v0,40(s8)
8001a10c:	8c430008 	lw	v1,8(v0)
8001a110:	8fc20028 	lw	v0,40(s8)
8001a114:	8c42000c 	lw	v0,12(v0)
8001a118:	00602821 	move	a1,v1
8001a11c:	00403021 	move	a2,v0
8001a120:	0c006661 	jal	80019984 <vma_create>
8001a124:	00000000 	nop
8001a128:	afc2002c 	sw	v0,44(s8)
8001a12c:	8fc2002c 	lw	v0,44(s8)
8001a130:	14400004 	bnez	v0,8001a144 <dup_mmap+0xbc>
8001a134:	00000000 	nop
8001a138:	2402fffc 	li	v0,-4
8001a13c:	08006873 	j	8001a1cc <dup_mmap+0x144>
8001a140:	00000000 	nop
8001a144:	8fc40040 	lw	a0,64(s8)
8001a148:	8fc5002c 	lw	a1,44(s8)
8001a14c:	0c006709 	jal	80019c24 <insert_vma_struct>
8001a150:	00000000 	nop
8001a154:	afc00030 	sw	zero,48(s8)
8001a158:	8fc20040 	lw	v0,64(s8)
8001a15c:	8c44000c 	lw	a0,12(v0)
8001a160:	8fc20044 	lw	v0,68(s8)
8001a164:	8c45000c 	lw	a1,12(v0)
8001a168:	8fc20028 	lw	v0,40(s8)
8001a16c:	8c430004 	lw	v1,4(v0)
8001a170:	8fc20028 	lw	v0,40(s8)
8001a174:	8c420008 	lw	v0,8(v0)
8001a178:	8fc60030 	lw	a2,48(s8)
8001a17c:	afa60010 	sw	a2,16(sp)
8001a180:	00603021 	move	a2,v1
8001a184:	00403821 	move	a3,v0
8001a188:	0c0057a2 	jal	80015e88 <copy_range>
8001a18c:	00000000 	nop
8001a190:	10400004 	beqz	v0,8001a1a4 <dup_mmap+0x11c>
8001a194:	00000000 	nop
8001a198:	2402fffc 	li	v0,-4
8001a19c:	08006873 	j	8001a1cc <dup_mmap+0x144>
8001a1a0:	00000000 	nop
8001a1a4:	8fc20020 	lw	v0,32(s8)
8001a1a8:	afc20034 	sw	v0,52(s8)
8001a1ac:	8fc20034 	lw	v0,52(s8)
8001a1b0:	8c420000 	lw	v0,0(v0)
8001a1b4:	afc20020 	sw	v0,32(s8)
8001a1b8:	8fc30020 	lw	v1,32(s8)
8001a1bc:	8fc20024 	lw	v0,36(s8)
8001a1c0:	1462ffcc 	bne	v1,v0,8001a0f4 <dup_mmap+0x6c>
8001a1c4:	00000000 	nop
8001a1c8:	00001021 	move	v0,zero
8001a1cc:	03c0e821 	move	sp,s8
8001a1d0:	8fbf003c 	lw	ra,60(sp)
8001a1d4:	8fbe0038 	lw	s8,56(sp)
8001a1d8:	27bd0040 	addiu	sp,sp,64
8001a1dc:	03e00008 	jr	ra
8001a1e0:	00000000 	nop

8001a1e4 <exit_mmap>:
8001a1e4:	27bdffc0 	addiu	sp,sp,-64
8001a1e8:	afbf003c 	sw	ra,60(sp)
8001a1ec:	afbe0038 	sw	s8,56(sp)
8001a1f0:	03a0f021 	move	s8,sp
8001a1f4:	afc40040 	sw	a0,64(s8)
8001a1f8:	8fc20040 	lw	v0,64(s8)
8001a1fc:	10400006 	beqz	v0,8001a218 <exit_mmap+0x34>
8001a200:	00000000 	nop
8001a204:	8fc40040 	lw	a0,64(s8)
8001a208:	0c0065f4 	jal	800197d0 <mm_count>
8001a20c:	00000000 	nop
8001a210:	1040000a 	beqz	v0,8001a23c <exit_mmap+0x58>
8001a214:	00000000 	nop
8001a218:	3c028002 	lui	v0,0x8002
8001a21c:	244439e0 	addiu	a0,v0,14816
8001a220:	240500d5 	li	a1,213
8001a224:	3c028002 	lui	v0,0x8002
8001a228:	244639f0 	addiu	a2,v0,14832
8001a22c:	3c028002 	lui	v0,0x8002
8001a230:	24473ac0 	addiu	a3,v0,15040
8001a234:	0c004544 	jal	80011510 <__panic>
8001a238:	00000000 	nop
8001a23c:	8fc20040 	lw	v0,64(s8)
8001a240:	8c42000c 	lw	v0,12(v0)
8001a244:	afc2001c 	sw	v0,28(s8)
8001a248:	8fc20040 	lw	v0,64(s8)
8001a24c:	afc20020 	sw	v0,32(s8)
8001a250:	8fc20020 	lw	v0,32(s8)
8001a254:	afc20018 	sw	v0,24(s8)
8001a258:	080068a4 	j	8001a290 <exit_mmap+0xac>
8001a25c:	00000000 	nop
8001a260:	8fc20018 	lw	v0,24(s8)
8001a264:	2442fff0 	addiu	v0,v0,-16
8001a268:	afc20024 	sw	v0,36(s8)
8001a26c:	8fc20024 	lw	v0,36(s8)
8001a270:	8c430004 	lw	v1,4(v0)
8001a274:	8fc20024 	lw	v0,36(s8)
8001a278:	8c420008 	lw	v0,8(v0)
8001a27c:	8fc4001c 	lw	a0,28(s8)
8001a280:	00602821 	move	a1,v1
8001a284:	00403021 	move	a2,v0
8001a288:	0c0056df 	jal	80015b7c <unmap_range>
8001a28c:	00000000 	nop
8001a290:	8fc20018 	lw	v0,24(s8)
8001a294:	afc2002c 	sw	v0,44(s8)
8001a298:	8fc2002c 	lw	v0,44(s8)
8001a29c:	8c420004 	lw	v0,4(v0)
8001a2a0:	afc20018 	sw	v0,24(s8)
8001a2a4:	8fc30018 	lw	v1,24(s8)
8001a2a8:	8fc20020 	lw	v0,32(s8)
8001a2ac:	1462ffec 	bne	v1,v0,8001a260 <exit_mmap+0x7c>
8001a2b0:	00000000 	nop
8001a2b4:	080068bb 	j	8001a2ec <exit_mmap+0x108>
8001a2b8:	00000000 	nop
8001a2bc:	8fc20018 	lw	v0,24(s8)
8001a2c0:	2442fff0 	addiu	v0,v0,-16
8001a2c4:	afc20028 	sw	v0,40(s8)
8001a2c8:	8fc20028 	lw	v0,40(s8)
8001a2cc:	8c430004 	lw	v1,4(v0)
8001a2d0:	8fc20028 	lw	v0,40(s8)
8001a2d4:	8c420008 	lw	v0,8(v0)
8001a2d8:	8fc4001c 	lw	a0,28(s8)
8001a2dc:	00602821 	move	a1,v1
8001a2e0:	00403021 	move	a2,v0
8001a2e4:	0c00573d 	jal	80015cf4 <exit_range>
8001a2e8:	00000000 	nop
8001a2ec:	8fc20018 	lw	v0,24(s8)
8001a2f0:	afc20030 	sw	v0,48(s8)
8001a2f4:	8fc20030 	lw	v0,48(s8)
8001a2f8:	8c420004 	lw	v0,4(v0)
8001a2fc:	afc20018 	sw	v0,24(s8)
8001a300:	8fc30018 	lw	v1,24(s8)
8001a304:	8fc20020 	lw	v0,32(s8)
8001a308:	1462ffec 	bne	v1,v0,8001a2bc <exit_mmap+0xd8>
8001a30c:	00000000 	nop
8001a310:	03c0e821 	move	sp,s8
8001a314:	8fbf003c 	lw	ra,60(sp)
8001a318:	8fbe0038 	lw	s8,56(sp)
8001a31c:	27bd0040 	addiu	sp,sp,64
8001a320:	03e00008 	jr	ra
8001a324:	00000000 	nop

8001a328 <copy_from_user>:
8001a328:	27bdffe0 	addiu	sp,sp,-32
8001a32c:	afbf001c 	sw	ra,28(sp)
8001a330:	afbe0018 	sw	s8,24(sp)
8001a334:	03a0f021 	move	s8,sp
8001a338:	afc40020 	sw	a0,32(s8)
8001a33c:	afc50024 	sw	a1,36(s8)
8001a340:	afc60028 	sw	a2,40(s8)
8001a344:	afc7002c 	sw	a3,44(s8)
8001a348:	8fc20028 	lw	v0,40(s8)
8001a34c:	8fc40020 	lw	a0,32(s8)
8001a350:	00402821 	move	a1,v0
8001a354:	8fc6002c 	lw	a2,44(s8)
8001a358:	8fc70030 	lw	a3,48(s8)
8001a35c:	0c006c31 	jal	8001b0c4 <user_mem_check>
8001a360:	00000000 	nop
8001a364:	14400004 	bnez	v0,8001a378 <copy_from_user+0x50>
8001a368:	00000000 	nop
8001a36c:	00001021 	move	v0,zero
8001a370:	080068e4 	j	8001a390 <copy_from_user+0x68>
8001a374:	00000000 	nop
8001a378:	8fc40024 	lw	a0,36(s8)
8001a37c:	8fc50028 	lw	a1,40(s8)
8001a380:	8fc6002c 	lw	a2,44(s8)
8001a384:	0c0087de 	jal	80021f78 <memcpy>
8001a388:	00000000 	nop
8001a38c:	24020001 	li	v0,1
8001a390:	03c0e821 	move	sp,s8
8001a394:	8fbf001c 	lw	ra,28(sp)
8001a398:	8fbe0018 	lw	s8,24(sp)
8001a39c:	27bd0020 	addiu	sp,sp,32
8001a3a0:	03e00008 	jr	ra
8001a3a4:	00000000 	nop

8001a3a8 <copy_to_user>:
8001a3a8:	27bdffe0 	addiu	sp,sp,-32
8001a3ac:	afbf001c 	sw	ra,28(sp)
8001a3b0:	afbe0018 	sw	s8,24(sp)
8001a3b4:	03a0f021 	move	s8,sp
8001a3b8:	afc40020 	sw	a0,32(s8)
8001a3bc:	afc50024 	sw	a1,36(s8)
8001a3c0:	afc60028 	sw	a2,40(s8)
8001a3c4:	afc7002c 	sw	a3,44(s8)
8001a3c8:	8fc20024 	lw	v0,36(s8)
8001a3cc:	8fc40020 	lw	a0,32(s8)
8001a3d0:	00402821 	move	a1,v0
8001a3d4:	8fc6002c 	lw	a2,44(s8)
8001a3d8:	24070001 	li	a3,1
8001a3dc:	0c006c31 	jal	8001b0c4 <user_mem_check>
8001a3e0:	00000000 	nop
8001a3e4:	14400004 	bnez	v0,8001a3f8 <copy_to_user+0x50>
8001a3e8:	00000000 	nop
8001a3ec:	00001021 	move	v0,zero
8001a3f0:	08006904 	j	8001a410 <copy_to_user+0x68>
8001a3f4:	00000000 	nop
8001a3f8:	8fc40024 	lw	a0,36(s8)
8001a3fc:	8fc50028 	lw	a1,40(s8)
8001a400:	8fc6002c 	lw	a2,44(s8)
8001a404:	0c0087de 	jal	80021f78 <memcpy>
8001a408:	00000000 	nop
8001a40c:	24020001 	li	v0,1
8001a410:	03c0e821 	move	sp,s8
8001a414:	8fbf001c 	lw	ra,28(sp)
8001a418:	8fbe0018 	lw	s8,24(sp)
8001a41c:	27bd0020 	addiu	sp,sp,32
8001a420:	03e00008 	jr	ra
8001a424:	00000000 	nop

8001a428 <vmm_init>:
8001a428:	27bdffe0 	addiu	sp,sp,-32
8001a42c:	afbf001c 	sw	ra,28(sp)
8001a430:	afbe0018 	sw	s8,24(sp)
8001a434:	03a0f021 	move	s8,sp
8001a438:	0c006916 	jal	8001a458 <check_vmm>
8001a43c:	00000000 	nop
8001a440:	03c0e821 	move	sp,s8
8001a444:	8fbf001c 	lw	ra,28(sp)
8001a448:	8fbe0018 	lw	s8,24(sp)
8001a44c:	27bd0020 	addiu	sp,sp,32
8001a450:	03e00008 	jr	ra
8001a454:	00000000 	nop

8001a458 <check_vmm>:
8001a458:	27bdffd0 	addiu	sp,sp,-48
8001a45c:	afbf002c 	sw	ra,44(sp)
8001a460:	afbe0028 	sw	s8,40(sp)
8001a464:	03a0f021 	move	s8,sp
8001a468:	0c0054ac 	jal	800152b0 <nr_free_pages>
8001a46c:	00000000 	nop
8001a470:	afc20020 	sw	v0,32(s8)
8001a474:	0c006940 	jal	8001a500 <check_vma_struct>
8001a478:	00000000 	nop
8001a47c:	0c006ad3 	jal	8001ab4c <check_pgfault>
8001a480:	00000000 	nop
8001a484:	0c0054ac 	jal	800152b0 <nr_free_pages>
8001a488:	00000000 	nop
8001a48c:	00401821 	move	v1,v0
8001a490:	8fc20020 	lw	v0,32(s8)
8001a494:	10620010 	beq	v1,v0,8001a4d8 <check_vmm+0x80>
8001a498:	00000000 	nop
8001a49c:	0c0054ac 	jal	800152b0 <nr_free_pages>
8001a4a0:	00000000 	nop
8001a4a4:	24030105 	li	v1,261
8001a4a8:	afa30010 	sw	v1,16(sp)
8001a4ac:	3c038002 	lui	v1,0x8002
8001a4b0:	24633e7c 	addiu	v1,v1,15996
8001a4b4:	afa30014 	sw	v1,20(sp)
8001a4b8:	3c038002 	lui	v1,0x8002
8001a4bc:	24643ae0 	addiu	a0,v1,15072
8001a4c0:	8fc50020 	lw	a1,32(s8)
8001a4c4:	00403021 	move	a2,v0
8001a4c8:	3c028002 	lui	v0,0x8002
8001a4cc:	244739e0 	addiu	a3,v0,14816
8001a4d0:	0c00413e 	jal	800104f8 <cprintf>
8001a4d4:	00000000 	nop
8001a4d8:	3c028002 	lui	v0,0x8002
8001a4dc:	24443b14 	addiu	a0,v0,15124
8001a4e0:	0c00413e 	jal	800104f8 <cprintf>
8001a4e4:	00000000 	nop
8001a4e8:	03c0e821 	move	sp,s8
8001a4ec:	8fbf002c 	lw	ra,44(sp)
8001a4f0:	8fbe0028 	lw	s8,40(sp)
8001a4f4:	27bd0030 	addiu	sp,sp,48
8001a4f8:	03e00008 	jr	ra
8001a4fc:	00000000 	nop

8001a500 <check_vma_struct>:
8001a500:	27bdff90 	addiu	sp,sp,-112
8001a504:	afbf006c 	sw	ra,108(sp)
8001a508:	afbe0068 	sw	s8,104(sp)
8001a50c:	03a0f021 	move	s8,sp
8001a510:	0c0054ac 	jal	800152b0 <nr_free_pages>
8001a514:	00000000 	nop
8001a518:	afc20028 	sw	v0,40(s8)
8001a51c:	0c00662b 	jal	800198ac <mm_create>
8001a520:	00000000 	nop
8001a524:	afc2002c 	sw	v0,44(s8)
8001a528:	8fc2002c 	lw	v0,44(s8)
8001a52c:	1440000a 	bnez	v0,8001a558 <check_vma_struct+0x58>
8001a530:	00000000 	nop
8001a534:	3c028002 	lui	v0,0x8002
8001a538:	244439e0 	addiu	a0,v0,14816
8001a53c:	2405010f 	li	a1,271
8001a540:	3c028002 	lui	v0,0x8002
8001a544:	244639f0 	addiu	a2,v0,14832
8001a548:	3c028002 	lui	v0,0x8002
8001a54c:	24473a98 	addiu	a3,v0,15000
8001a550:	0c004544 	jal	80011510 <__panic>
8001a554:	00000000 	nop
8001a558:	2402000a 	li	v0,10
8001a55c:	afc20030 	sw	v0,48(s8)
8001a560:	8fc20030 	lw	v0,48(s8)
8001a564:	00021040 	sll	v0,v0,0x1
8001a568:	00021880 	sll	v1,v0,0x2
8001a56c:	00431021 	addu	v0,v0,v1
8001a570:	afc20034 	sw	v0,52(s8)
8001a574:	8fc20030 	lw	v0,48(s8)
8001a578:	afc20020 	sw	v0,32(s8)
8001a57c:	08006983 	j	8001a60c <check_vma_struct+0x10c>
8001a580:	00000000 	nop
8001a584:	8fc30020 	lw	v1,32(s8)
8001a588:	00601021 	move	v0,v1
8001a58c:	00021080 	sll	v0,v0,0x2
8001a590:	00431021 	addu	v0,v0,v1
8001a594:	00402021 	move	a0,v0
8001a598:	8fc30020 	lw	v1,32(s8)
8001a59c:	00601021 	move	v0,v1
8001a5a0:	00021080 	sll	v0,v0,0x2
8001a5a4:	00431021 	addu	v0,v0,v1
8001a5a8:	24420002 	addiu	v0,v0,2
8001a5ac:	00402821 	move	a1,v0
8001a5b0:	00003021 	move	a2,zero
8001a5b4:	0c006661 	jal	80019984 <vma_create>
8001a5b8:	00000000 	nop
8001a5bc:	afc20038 	sw	v0,56(s8)
8001a5c0:	8fc20038 	lw	v0,56(s8)
8001a5c4:	1440000a 	bnez	v0,8001a5f0 <check_vma_struct+0xf0>
8001a5c8:	00000000 	nop
8001a5cc:	3c028002 	lui	v0,0x8002
8001a5d0:	244439e0 	addiu	a0,v0,14816
8001a5d4:	24050116 	li	a1,278
8001a5d8:	3c028002 	lui	v0,0x8002
8001a5dc:	244639f0 	addiu	a2,v0,14832
8001a5e0:	3c028002 	lui	v0,0x8002
8001a5e4:	24473b2c 	addiu	a3,v0,15148
8001a5e8:	0c004544 	jal	80011510 <__panic>
8001a5ec:	00000000 	nop
8001a5f0:	8fc4002c 	lw	a0,44(s8)
8001a5f4:	8fc50038 	lw	a1,56(s8)
8001a5f8:	0c006709 	jal	80019c24 <insert_vma_struct>
8001a5fc:	00000000 	nop
8001a600:	8fc20020 	lw	v0,32(s8)
8001a604:	2442ffff 	addiu	v0,v0,-1
8001a608:	afc20020 	sw	v0,32(s8)
8001a60c:	8fc20020 	lw	v0,32(s8)
8001a610:	1c40ffdc 	bgtz	v0,8001a584 <check_vma_struct+0x84>
8001a614:	00000000 	nop
8001a618:	8fc20030 	lw	v0,48(s8)
8001a61c:	24420001 	addiu	v0,v0,1
8001a620:	afc20020 	sw	v0,32(s8)
8001a624:	080069ad 	j	8001a6b4 <check_vma_struct+0x1b4>
8001a628:	00000000 	nop
8001a62c:	8fc30020 	lw	v1,32(s8)
8001a630:	00601021 	move	v0,v1
8001a634:	00021080 	sll	v0,v0,0x2
8001a638:	00431021 	addu	v0,v0,v1
8001a63c:	00402021 	move	a0,v0
8001a640:	8fc30020 	lw	v1,32(s8)
8001a644:	00601021 	move	v0,v1
8001a648:	00021080 	sll	v0,v0,0x2
8001a64c:	00431021 	addu	v0,v0,v1
8001a650:	24420002 	addiu	v0,v0,2
8001a654:	00402821 	move	a1,v0
8001a658:	00003021 	move	a2,zero
8001a65c:	0c006661 	jal	80019984 <vma_create>
8001a660:	00000000 	nop
8001a664:	afc2003c 	sw	v0,60(s8)
8001a668:	8fc2003c 	lw	v0,60(s8)
8001a66c:	1440000a 	bnez	v0,8001a698 <check_vma_struct+0x198>
8001a670:	00000000 	nop
8001a674:	3c028002 	lui	v0,0x8002
8001a678:	244439e0 	addiu	a0,v0,14816
8001a67c:	2405011c 	li	a1,284
8001a680:	3c028002 	lui	v0,0x8002
8001a684:	244639f0 	addiu	a2,v0,14832
8001a688:	3c028002 	lui	v0,0x8002
8001a68c:	24473b2c 	addiu	a3,v0,15148
8001a690:	0c004544 	jal	80011510 <__panic>
8001a694:	00000000 	nop
8001a698:	8fc4002c 	lw	a0,44(s8)
8001a69c:	8fc5003c 	lw	a1,60(s8)
8001a6a0:	0c006709 	jal	80019c24 <insert_vma_struct>
8001a6a4:	00000000 	nop
8001a6a8:	8fc20020 	lw	v0,32(s8)
8001a6ac:	24420001 	addiu	v0,v0,1
8001a6b0:	afc20020 	sw	v0,32(s8)
8001a6b4:	8fc30020 	lw	v1,32(s8)
8001a6b8:	8fc20034 	lw	v0,52(s8)
8001a6bc:	0043102a 	slt	v0,v0,v1
8001a6c0:	1040ffda 	beqz	v0,8001a62c <check_vma_struct+0x12c>
8001a6c4:	00000000 	nop
8001a6c8:	8fc2002c 	lw	v0,44(s8)
8001a6cc:	afc2005c 	sw	v0,92(s8)
8001a6d0:	8fc2005c 	lw	v0,92(s8)
8001a6d4:	8c420004 	lw	v0,4(v0)
8001a6d8:	afc20024 	sw	v0,36(s8)
8001a6dc:	24020001 	li	v0,1
8001a6e0:	afc20020 	sw	v0,32(s8)
8001a6e4:	080069ed 	j	8001a7b4 <check_vma_struct+0x2b4>
8001a6e8:	00000000 	nop
8001a6ec:	8fc3002c 	lw	v1,44(s8)
8001a6f0:	8fc20024 	lw	v0,36(s8)
8001a6f4:	1462000a 	bne	v1,v0,8001a720 <check_vma_struct+0x220>
8001a6f8:	00000000 	nop
8001a6fc:	3c028002 	lui	v0,0x8002
8001a700:	244439e0 	addiu	a0,v0,14816
8001a704:	24050123 	li	a1,291
8001a708:	3c028002 	lui	v0,0x8002
8001a70c:	244639f0 	addiu	a2,v0,14832
8001a710:	3c028002 	lui	v0,0x8002
8001a714:	24473b38 	addiu	a3,v0,15160
8001a718:	0c004544 	jal	80011510 <__panic>
8001a71c:	00000000 	nop
8001a720:	8fc20024 	lw	v0,36(s8)
8001a724:	2442fff0 	addiu	v0,v0,-16
8001a728:	afc20040 	sw	v0,64(s8)
8001a72c:	8fc20040 	lw	v0,64(s8)
8001a730:	8c440004 	lw	a0,4(v0)
8001a734:	8fc30020 	lw	v1,32(s8)
8001a738:	00601021 	move	v0,v1
8001a73c:	00021080 	sll	v0,v0,0x2
8001a740:	00431021 	addu	v0,v0,v1
8001a744:	1482000a 	bne	a0,v0,8001a770 <check_vma_struct+0x270>
8001a748:	00000000 	nop
8001a74c:	8fc20040 	lw	v0,64(s8)
8001a750:	8c440008 	lw	a0,8(v0)
8001a754:	8fc30020 	lw	v1,32(s8)
8001a758:	00601021 	move	v0,v1
8001a75c:	00021080 	sll	v0,v0,0x2
8001a760:	00431021 	addu	v0,v0,v1
8001a764:	24420002 	addiu	v0,v0,2
8001a768:	1082000a 	beq	a0,v0,8001a794 <check_vma_struct+0x294>
8001a76c:	00000000 	nop
8001a770:	3c028002 	lui	v0,0x8002
8001a774:	244439e0 	addiu	a0,v0,14816
8001a778:	24050125 	li	a1,293
8001a77c:	3c028002 	lui	v0,0x8002
8001a780:	244639f0 	addiu	a2,v0,14832
8001a784:	3c028002 	lui	v0,0x8002
8001a788:	24473b50 	addiu	a3,v0,15184
8001a78c:	0c004544 	jal	80011510 <__panic>
8001a790:	00000000 	nop
8001a794:	8fc20024 	lw	v0,36(s8)
8001a798:	afc20060 	sw	v0,96(s8)
8001a79c:	8fc20060 	lw	v0,96(s8)
8001a7a0:	8c420004 	lw	v0,4(v0)
8001a7a4:	afc20024 	sw	v0,36(s8)
8001a7a8:	8fc20020 	lw	v0,32(s8)
8001a7ac:	24420001 	addiu	v0,v0,1
8001a7b0:	afc20020 	sw	v0,32(s8)
8001a7b4:	8fc30020 	lw	v1,32(s8)
8001a7b8:	8fc20034 	lw	v0,52(s8)
8001a7bc:	0043102a 	slt	v0,v0,v1
8001a7c0:	1040ffca 	beqz	v0,8001a6ec <check_vma_struct+0x1ec>
8001a7c4:	00000000 	nop
8001a7c8:	24020005 	li	v0,5
8001a7cc:	afc20020 	sw	v0,32(s8)
8001a7d0:	08006a7f 	j	8001a9fc <check_vma_struct+0x4fc>
8001a7d4:	00000000 	nop
8001a7d8:	8fc20020 	lw	v0,32(s8)
8001a7dc:	8fc4002c 	lw	a0,44(s8)
8001a7e0:	00402821 	move	a1,v0
8001a7e4:	0c00667f 	jal	800199fc <find_vma>
8001a7e8:	00000000 	nop
8001a7ec:	afc20044 	sw	v0,68(s8)
8001a7f0:	8fc20044 	lw	v0,68(s8)
8001a7f4:	1440000a 	bnez	v0,8001a820 <check_vma_struct+0x320>
8001a7f8:	00000000 	nop
8001a7fc:	3c028002 	lui	v0,0x8002
8001a800:	244439e0 	addiu	a0,v0,14816
8001a804:	2405012b 	li	a1,299
8001a808:	3c028002 	lui	v0,0x8002
8001a80c:	244639f0 	addiu	a2,v0,14832
8001a810:	3c028002 	lui	v0,0x8002
8001a814:	24473b88 	addiu	a3,v0,15240
8001a818:	0c004544 	jal	80011510 <__panic>
8001a81c:	00000000 	nop
8001a820:	8fc20020 	lw	v0,32(s8)
8001a824:	24420001 	addiu	v0,v0,1
8001a828:	8fc4002c 	lw	a0,44(s8)
8001a82c:	00402821 	move	a1,v0
8001a830:	0c00667f 	jal	800199fc <find_vma>
8001a834:	00000000 	nop
8001a838:	afc20048 	sw	v0,72(s8)
8001a83c:	8fc20048 	lw	v0,72(s8)
8001a840:	1440000a 	bnez	v0,8001a86c <check_vma_struct+0x36c>
8001a844:	00000000 	nop
8001a848:	3c028002 	lui	v0,0x8002
8001a84c:	244439e0 	addiu	a0,v0,14816
8001a850:	2405012d 	li	a1,301
8001a854:	3c028002 	lui	v0,0x8002
8001a858:	244639f0 	addiu	a2,v0,14832
8001a85c:	3c028002 	lui	v0,0x8002
8001a860:	24473b98 	addiu	a3,v0,15256
8001a864:	0c004544 	jal	80011510 <__panic>
8001a868:	00000000 	nop
8001a86c:	8fc20020 	lw	v0,32(s8)
8001a870:	24420002 	addiu	v0,v0,2
8001a874:	8fc4002c 	lw	a0,44(s8)
8001a878:	00402821 	move	a1,v0
8001a87c:	0c00667f 	jal	800199fc <find_vma>
8001a880:	00000000 	nop
8001a884:	afc2004c 	sw	v0,76(s8)
8001a888:	8fc2004c 	lw	v0,76(s8)
8001a88c:	1040000a 	beqz	v0,8001a8b8 <check_vma_struct+0x3b8>
8001a890:	00000000 	nop
8001a894:	3c028002 	lui	v0,0x8002
8001a898:	244439e0 	addiu	a0,v0,14816
8001a89c:	2405012f 	li	a1,303
8001a8a0:	3c028002 	lui	v0,0x8002
8001a8a4:	244639f0 	addiu	a2,v0,14832
8001a8a8:	3c028002 	lui	v0,0x8002
8001a8ac:	24473ba8 	addiu	a3,v0,15272
8001a8b0:	0c004544 	jal	80011510 <__panic>
8001a8b4:	00000000 	nop
8001a8b8:	8fc20020 	lw	v0,32(s8)
8001a8bc:	24420003 	addiu	v0,v0,3
8001a8c0:	8fc4002c 	lw	a0,44(s8)
8001a8c4:	00402821 	move	a1,v0
8001a8c8:	0c00667f 	jal	800199fc <find_vma>
8001a8cc:	00000000 	nop
8001a8d0:	afc20050 	sw	v0,80(s8)
8001a8d4:	8fc20050 	lw	v0,80(s8)
8001a8d8:	1040000a 	beqz	v0,8001a904 <check_vma_struct+0x404>
8001a8dc:	00000000 	nop
8001a8e0:	3c028002 	lui	v0,0x8002
8001a8e4:	244439e0 	addiu	a0,v0,14816
8001a8e8:	24050131 	li	a1,305
8001a8ec:	3c028002 	lui	v0,0x8002
8001a8f0:	244639f0 	addiu	a2,v0,14832
8001a8f4:	3c028002 	lui	v0,0x8002
8001a8f8:	24473bb8 	addiu	a3,v0,15288
8001a8fc:	0c004544 	jal	80011510 <__panic>
8001a900:	00000000 	nop
8001a904:	8fc20020 	lw	v0,32(s8)
8001a908:	24420004 	addiu	v0,v0,4
8001a90c:	8fc4002c 	lw	a0,44(s8)
8001a910:	00402821 	move	a1,v0
8001a914:	0c00667f 	jal	800199fc <find_vma>
8001a918:	00000000 	nop
8001a91c:	afc20054 	sw	v0,84(s8)
8001a920:	8fc20054 	lw	v0,84(s8)
8001a924:	1040000a 	beqz	v0,8001a950 <check_vma_struct+0x450>
8001a928:	00000000 	nop
8001a92c:	3c028002 	lui	v0,0x8002
8001a930:	244439e0 	addiu	a0,v0,14816
8001a934:	24050133 	li	a1,307
8001a938:	3c028002 	lui	v0,0x8002
8001a93c:	244639f0 	addiu	a2,v0,14832
8001a940:	3c028002 	lui	v0,0x8002
8001a944:	24473bc8 	addiu	a3,v0,15304
8001a948:	0c004544 	jal	80011510 <__panic>
8001a94c:	00000000 	nop
8001a950:	8fc20044 	lw	v0,68(s8)
8001a954:	8c430004 	lw	v1,4(v0)
8001a958:	8fc20020 	lw	v0,32(s8)
8001a95c:	14620007 	bne	v1,v0,8001a97c <check_vma_struct+0x47c>
8001a960:	00000000 	nop
8001a964:	8fc20044 	lw	v0,68(s8)
8001a968:	8c430008 	lw	v1,8(v0)
8001a96c:	8fc20020 	lw	v0,32(s8)
8001a970:	24420002 	addiu	v0,v0,2
8001a974:	1062000a 	beq	v1,v0,8001a9a0 <check_vma_struct+0x4a0>
8001a978:	00000000 	nop
8001a97c:	3c028002 	lui	v0,0x8002
8001a980:	244439e0 	addiu	a0,v0,14816
8001a984:	24050135 	li	a1,309
8001a988:	3c028002 	lui	v0,0x8002
8001a98c:	244639f0 	addiu	a2,v0,14832
8001a990:	3c028002 	lui	v0,0x8002
8001a994:	24473bd8 	addiu	a3,v0,15320
8001a998:	0c004544 	jal	80011510 <__panic>
8001a99c:	00000000 	nop
8001a9a0:	8fc20048 	lw	v0,72(s8)
8001a9a4:	8c430004 	lw	v1,4(v0)
8001a9a8:	8fc20020 	lw	v0,32(s8)
8001a9ac:	14620007 	bne	v1,v0,8001a9cc <check_vma_struct+0x4cc>
8001a9b0:	00000000 	nop
8001a9b4:	8fc20048 	lw	v0,72(s8)
8001a9b8:	8c430008 	lw	v1,8(v0)
8001a9bc:	8fc20020 	lw	v0,32(s8)
8001a9c0:	24420002 	addiu	v0,v0,2
8001a9c4:	1062000a 	beq	v1,v0,8001a9f0 <check_vma_struct+0x4f0>
8001a9c8:	00000000 	nop
8001a9cc:	3c028002 	lui	v0,0x8002
8001a9d0:	244439e0 	addiu	a0,v0,14816
8001a9d4:	24050136 	li	a1,310
8001a9d8:	3c028002 	lui	v0,0x8002
8001a9dc:	244639f0 	addiu	a2,v0,14832
8001a9e0:	3c028002 	lui	v0,0x8002
8001a9e4:	24473c08 	addiu	a3,v0,15368
8001a9e8:	0c004544 	jal	80011510 <__panic>
8001a9ec:	00000000 	nop
8001a9f0:	8fc20020 	lw	v0,32(s8)
8001a9f4:	24420005 	addiu	v0,v0,5
8001a9f8:	afc20020 	sw	v0,32(s8)
8001a9fc:	8fc30034 	lw	v1,52(s8)
8001aa00:	00601021 	move	v0,v1
8001aa04:	00021080 	sll	v0,v0,0x2
8001aa08:	00431821 	addu	v1,v0,v1
8001aa0c:	8fc20020 	lw	v0,32(s8)
8001aa10:	0062102a 	slt	v0,v1,v0
8001aa14:	1040ff70 	beqz	v0,8001a7d8 <check_vma_struct+0x2d8>
8001aa18:	00000000 	nop
8001aa1c:	24020004 	li	v0,4
8001aa20:	afc20020 	sw	v0,32(s8)
8001aa24:	08006aae 	j	8001aab8 <check_vma_struct+0x5b8>
8001aa28:	00000000 	nop
8001aa2c:	8fc20020 	lw	v0,32(s8)
8001aa30:	8fc4002c 	lw	a0,44(s8)
8001aa34:	00402821 	move	a1,v0
8001aa38:	0c00667f 	jal	800199fc <find_vma>
8001aa3c:	00000000 	nop
8001aa40:	afc20058 	sw	v0,88(s8)
8001aa44:	8fc20058 	lw	v0,88(s8)
8001aa48:	1040000c 	beqz	v0,8001aa7c <check_vma_struct+0x57c>
8001aa4c:	00000000 	nop
8001aa50:	8fc20058 	lw	v0,88(s8)
8001aa54:	8c430004 	lw	v1,4(v0)
8001aa58:	8fc20058 	lw	v0,88(s8)
8001aa5c:	8c420008 	lw	v0,8(v0)
8001aa60:	3c048002 	lui	a0,0x8002
8001aa64:	24843c38 	addiu	a0,a0,15416
8001aa68:	8fc50020 	lw	a1,32(s8)
8001aa6c:	00603021 	move	a2,v1
8001aa70:	00403821 	move	a3,v0
8001aa74:	0c00413e 	jal	800104f8 <cprintf>
8001aa78:	00000000 	nop
8001aa7c:	8fc20058 	lw	v0,88(s8)
8001aa80:	1040000a 	beqz	v0,8001aaac <check_vma_struct+0x5ac>
8001aa84:	00000000 	nop
8001aa88:	3c028002 	lui	v0,0x8002
8001aa8c:	244439e0 	addiu	a0,v0,14816
8001aa90:	2405013e 	li	a1,318
8001aa94:	3c028002 	lui	v0,0x8002
8001aa98:	244639f0 	addiu	a2,v0,14832
8001aa9c:	3c028002 	lui	v0,0x8002
8001aaa0:	24473c60 	addiu	a3,v0,15456
8001aaa4:	0c004544 	jal	80011510 <__panic>
8001aaa8:	00000000 	nop
8001aaac:	8fc20020 	lw	v0,32(s8)
8001aab0:	2442ffff 	addiu	v0,v0,-1
8001aab4:	afc20020 	sw	v0,32(s8)
8001aab8:	8fc20020 	lw	v0,32(s8)
8001aabc:	0441ffdb 	bgez	v0,8001aa2c <check_vma_struct+0x52c>
8001aac0:	00000000 	nop
8001aac4:	8fc4002c 	lw	a0,44(s8)
8001aac8:	0c00677e 	jal	80019df8 <mm_destroy>
8001aacc:	00000000 	nop
8001aad0:	0c0054ac 	jal	800152b0 <nr_free_pages>
8001aad4:	00000000 	nop
8001aad8:	00401821 	move	v1,v0
8001aadc:	8fc20028 	lw	v0,40(s8)
8001aae0:	10620010 	beq	v1,v0,8001ab24 <check_vma_struct+0x624>
8001aae4:	00000000 	nop
8001aae8:	0c0054ac 	jal	800152b0 <nr_free_pages>
8001aaec:	00000000 	nop
8001aaf0:	24030145 	li	v1,325
8001aaf4:	afa30010 	sw	v1,16(sp)
8001aaf8:	3c038002 	lui	v1,0x8002
8001aafc:	24633e88 	addiu	v1,v1,16008
8001ab00:	afa30014 	sw	v1,20(sp)
8001ab04:	3c038002 	lui	v1,0x8002
8001ab08:	24643ae0 	addiu	a0,v1,15072
8001ab0c:	8fc50028 	lw	a1,40(s8)
8001ab10:	00403021 	move	a2,v0
8001ab14:	3c028002 	lui	v0,0x8002
8001ab18:	244739e0 	addiu	a3,v0,14816
8001ab1c:	0c00413e 	jal	800104f8 <cprintf>
8001ab20:	00000000 	nop
8001ab24:	3c028002 	lui	v0,0x8002
8001ab28:	24443c74 	addiu	a0,v0,15476
8001ab2c:	0c00413e 	jal	800104f8 <cprintf>
8001ab30:	00000000 	nop
8001ab34:	03c0e821 	move	sp,s8
8001ab38:	8fbf006c 	lw	ra,108(sp)
8001ab3c:	8fbe0068 	lw	s8,104(sp)
8001ab40:	27bd0070 	addiu	sp,sp,112
8001ab44:	03e00008 	jr	ra
8001ab48:	00000000 	nop

8001ab4c <check_pgfault>:
8001ab4c:	27bdffc0 	addiu	sp,sp,-64
8001ab50:	afbf003c 	sw	ra,60(sp)
8001ab54:	afbe0038 	sw	s8,56(sp)
8001ab58:	03a0f021 	move	s8,sp
8001ab5c:	0c0054ac 	jal	800152b0 <nr_free_pages>
8001ab60:	00000000 	nop
8001ab64:	afc20020 	sw	v0,32(s8)
8001ab68:	0c00662b 	jal	800198ac <mm_create>
8001ab6c:	00000000 	nop
8001ab70:	00401821 	move	v1,v0
8001ab74:	3c028036 	lui	v0,0x8036
8001ab78:	ac4322bc 	sw	v1,8892(v0)
8001ab7c:	3c028036 	lui	v0,0x8036
8001ab80:	8c4222bc 	lw	v0,8892(v0)
8001ab84:	1440000a 	bnez	v0,8001abb0 <check_pgfault+0x64>
8001ab88:	00000000 	nop
8001ab8c:	3c028002 	lui	v0,0x8002
8001ab90:	244439e0 	addiu	a0,v0,14816
8001ab94:	24050152 	li	a1,338
8001ab98:	3c028002 	lui	v0,0x8002
8001ab9c:	244639f0 	addiu	a2,v0,14832
8001aba0:	3c028002 	lui	v0,0x8002
8001aba4:	24473c94 	addiu	a3,v0,15508
8001aba8:	0c004544 	jal	80011510 <__panic>
8001abac:	00000000 	nop
8001abb0:	3c028036 	lui	v0,0x8036
8001abb4:	8c4222bc 	lw	v0,8892(v0)
8001abb8:	afc20024 	sw	v0,36(s8)
8001abbc:	3c028036 	lui	v0,0x8036
8001abc0:	8c430034 	lw	v1,52(v0)
8001abc4:	8fc20024 	lw	v0,36(s8)
8001abc8:	ac43000c 	sw	v1,12(v0)
8001abcc:	8fc20024 	lw	v0,36(s8)
8001abd0:	8c42000c 	lw	v0,12(v0)
8001abd4:	afc20028 	sw	v0,40(s8)
8001abd8:	8fc20028 	lw	v0,40(s8)
8001abdc:	8c420000 	lw	v0,0(v0)
8001abe0:	1040000a 	beqz	v0,8001ac0c <check_pgfault+0xc0>
8001abe4:	00000000 	nop
8001abe8:	3c028002 	lui	v0,0x8002
8001abec:	244439e0 	addiu	a0,v0,14816
8001abf0:	24050156 	li	a1,342
8001abf4:	3c028002 	lui	v0,0x8002
8001abf8:	244639f0 	addiu	a2,v0,14832
8001abfc:	3c028002 	lui	v0,0x8002
8001ac00:	24473cac 	addiu	a3,v0,15532
8001ac04:	0c004544 	jal	80011510 <__panic>
8001ac08:	00000000 	nop
8001ac0c:	00002021 	move	a0,zero
8001ac10:	3c050040 	lui	a1,0x40
8001ac14:	24060003 	li	a2,3
8001ac18:	0c006661 	jal	80019984 <vma_create>
8001ac1c:	00000000 	nop
8001ac20:	afc2002c 	sw	v0,44(s8)
8001ac24:	8fc2002c 	lw	v0,44(s8)
8001ac28:	1440000a 	bnez	v0,8001ac54 <check_pgfault+0x108>
8001ac2c:	00000000 	nop
8001ac30:	3c028002 	lui	v0,0x8002
8001ac34:	244439e0 	addiu	a0,v0,14816
8001ac38:	24050159 	li	a1,345
8001ac3c:	3c028002 	lui	v0,0x8002
8001ac40:	244639f0 	addiu	a2,v0,14832
8001ac44:	3c028002 	lui	v0,0x8002
8001ac48:	24473b2c 	addiu	a3,v0,15148
8001ac4c:	0c004544 	jal	80011510 <__panic>
8001ac50:	00000000 	nop
8001ac54:	8fc40024 	lw	a0,36(s8)
8001ac58:	8fc5002c 	lw	a1,44(s8)
8001ac5c:	0c006709 	jal	80019c24 <insert_vma_struct>
8001ac60:	00000000 	nop
8001ac64:	24020100 	li	v0,256
8001ac68:	afc20030 	sw	v0,48(s8)
8001ac6c:	8fc40024 	lw	a0,36(s8)
8001ac70:	8fc50030 	lw	a1,48(s8)
8001ac74:	0c00667f 	jal	800199fc <find_vma>
8001ac78:	00000000 	nop
8001ac7c:	00401821 	move	v1,v0
8001ac80:	8fc2002c 	lw	v0,44(s8)
8001ac84:	1062000a 	beq	v1,v0,8001acb0 <check_pgfault+0x164>
8001ac88:	00000000 	nop
8001ac8c:	3c028002 	lui	v0,0x8002
8001ac90:	244439e0 	addiu	a0,v0,14816
8001ac94:	2405015e 	li	a1,350
8001ac98:	3c028002 	lui	v0,0x8002
8001ac9c:	244639f0 	addiu	a2,v0,14832
8001aca0:	3c028002 	lui	v0,0x8002
8001aca4:	24473cbc 	addiu	a3,v0,15548
8001aca8:	0c004544 	jal	80011510 <__panic>
8001acac:	00000000 	nop
8001acb0:	afc0001c 	sw	zero,28(s8)
8001acb4:	afc00018 	sw	zero,24(s8)
8001acb8:	08006b3e 	j	8001acf8 <check_pgfault+0x1ac>
8001acbc:	00000000 	nop
8001acc0:	8fc30018 	lw	v1,24(s8)
8001acc4:	8fc20030 	lw	v0,48(s8)
8001acc8:	00621021 	addu	v0,v1,v0
8001accc:	8fc30018 	lw	v1,24(s8)
8001acd0:	00031e00 	sll	v1,v1,0x18
8001acd4:	00031e03 	sra	v1,v1,0x18
8001acd8:	a0430000 	sb	v1,0(v0)
8001acdc:	8fc3001c 	lw	v1,28(s8)
8001ace0:	8fc20018 	lw	v0,24(s8)
8001ace4:	00621021 	addu	v0,v1,v0
8001ace8:	afc2001c 	sw	v0,28(s8)
8001acec:	8fc20018 	lw	v0,24(s8)
8001acf0:	24420001 	addiu	v0,v0,1
8001acf4:	afc20018 	sw	v0,24(s8)
8001acf8:	8fc20018 	lw	v0,24(s8)
8001acfc:	28420064 	slti	v0,v0,100
8001ad00:	1440ffef 	bnez	v0,8001acc0 <check_pgfault+0x174>
8001ad04:	00000000 	nop
8001ad08:	afc00018 	sw	zero,24(s8)
8001ad0c:	08006b4f 	j	8001ad3c <check_pgfault+0x1f0>
8001ad10:	00000000 	nop
8001ad14:	8fc30018 	lw	v1,24(s8)
8001ad18:	8fc20030 	lw	v0,48(s8)
8001ad1c:	00621021 	addu	v0,v1,v0
8001ad20:	80420000 	lb	v0,0(v0)
8001ad24:	8fc3001c 	lw	v1,28(s8)
8001ad28:	00621023 	subu	v0,v1,v0
8001ad2c:	afc2001c 	sw	v0,28(s8)
8001ad30:	8fc20018 	lw	v0,24(s8)
8001ad34:	24420001 	addiu	v0,v0,1
8001ad38:	afc20018 	sw	v0,24(s8)
8001ad3c:	8fc20018 	lw	v0,24(s8)
8001ad40:	28420064 	slti	v0,v0,100
8001ad44:	1440fff3 	bnez	v0,8001ad14 <check_pgfault+0x1c8>
8001ad48:	00000000 	nop
8001ad4c:	8fc2001c 	lw	v0,28(s8)
8001ad50:	1040000a 	beqz	v0,8001ad7c <check_pgfault+0x230>
8001ad54:	00000000 	nop
8001ad58:	3c028002 	lui	v0,0x8002
8001ad5c:	244439e0 	addiu	a0,v0,14816
8001ad60:	24050168 	li	a1,360
8001ad64:	3c028002 	lui	v0,0x8002
8001ad68:	244639f0 	addiu	a2,v0,14832
8001ad6c:	3c028002 	lui	v0,0x8002
8001ad70:	24473cd8 	addiu	a3,v0,15576
8001ad74:	0c004544 	jal	80011510 <__panic>
8001ad78:	00000000 	nop
8001ad7c:	8fc20030 	lw	v0,48(s8)
8001ad80:	afc20034 	sw	v0,52(s8)
8001ad84:	8fc30034 	lw	v1,52(s8)
8001ad88:	2402f000 	li	v0,-4096
8001ad8c:	00621024 	and	v0,v1,v0
8001ad90:	8fc40028 	lw	a0,40(s8)
8001ad94:	00402821 	move	a1,v0
8001ad98:	0c005851 	jal	80016144 <page_remove>
8001ad9c:	00000000 	nop
8001ada0:	8fc20028 	lw	v0,40(s8)
8001ada4:	8c420000 	lw	v0,0(v0)
8001ada8:	00402021 	move	a0,v0
8001adac:	0c00660c 	jal	80019830 <pa2page>
8001adb0:	00000000 	nop
8001adb4:	00402021 	move	a0,v0
8001adb8:	24050001 	li	a1,1
8001adbc:	0c005492 	jal	80015248 <free_pages>
8001adc0:	00000000 	nop
8001adc4:	8fc20028 	lw	v0,40(s8)
8001adc8:	ac400000 	sw	zero,0(v0)
8001adcc:	8fc20024 	lw	v0,36(s8)
8001add0:	ac40000c 	sw	zero,12(v0)
8001add4:	8fc40024 	lw	a0,36(s8)
8001add8:	0c00677e 	jal	80019df8 <mm_destroy>
8001addc:	00000000 	nop
8001ade0:	3c028036 	lui	v0,0x8036
8001ade4:	ac4022bc 	sw	zero,8892(v0)
8001ade8:	0c0054ac 	jal	800152b0 <nr_free_pages>
8001adec:	00000000 	nop
8001adf0:	00401821 	move	v1,v0
8001adf4:	8fc20020 	lw	v0,32(s8)
8001adf8:	1062000a 	beq	v1,v0,8001ae24 <check_pgfault+0x2d8>
8001adfc:	00000000 	nop
8001ae00:	3c028002 	lui	v0,0x8002
8001ae04:	244439e0 	addiu	a0,v0,14816
8001ae08:	24050172 	li	a1,370
8001ae0c:	3c028002 	lui	v0,0x8002
8001ae10:	244639f0 	addiu	a2,v0,14832
8001ae14:	3c028002 	lui	v0,0x8002
8001ae18:	24473ce4 	addiu	a3,v0,15588
8001ae1c:	0c004544 	jal	80011510 <__panic>
8001ae20:	00000000 	nop
8001ae24:	3c028002 	lui	v0,0x8002
8001ae28:	24443d0c 	addiu	a0,v0,15628
8001ae2c:	0c00413e 	jal	800104f8 <cprintf>
8001ae30:	00000000 	nop
8001ae34:	03c0e821 	move	sp,s8
8001ae38:	8fbf003c 	lw	ra,60(sp)
8001ae3c:	8fbe0038 	lw	s8,56(sp)
8001ae40:	27bd0040 	addiu	sp,sp,64
8001ae44:	03e00008 	jr	ra
8001ae48:	00000000 	nop

8001ae4c <do_pgfault>:
8001ae4c:	27bdffc8 	addiu	sp,sp,-56
8001ae50:	afbf0034 	sw	ra,52(sp)
8001ae54:	afbe0030 	sw	s8,48(sp)
8001ae58:	03a0f021 	move	s8,sp
8001ae5c:	afc40038 	sw	a0,56(s8)
8001ae60:	afc5003c 	sw	a1,60(s8)
8001ae64:	afc60040 	sw	a2,64(s8)
8001ae68:	2402fffd 	li	v0,-3
8001ae6c:	afc20018 	sw	v0,24(s8)
8001ae70:	8fc40038 	lw	a0,56(s8)
8001ae74:	8fc50040 	lw	a1,64(s8)
8001ae78:	0c00667f 	jal	800199fc <find_vma>
8001ae7c:	00000000 	nop
8001ae80:	afc20020 	sw	v0,32(s8)
8001ae84:	3c028036 	lui	v0,0x8036
8001ae88:	8c420060 	lw	v0,96(v0)
8001ae8c:	24430001 	addiu	v1,v0,1
8001ae90:	3c028036 	lui	v0,0x8036
8001ae94:	ac430060 	sw	v1,96(v0)
8001ae98:	8fc20020 	lw	v0,32(s8)
8001ae9c:	10400007 	beqz	v0,8001aebc <do_pgfault+0x70>
8001aea0:	00000000 	nop
8001aea4:	8fc20020 	lw	v0,32(s8)
8001aea8:	8c430004 	lw	v1,4(v0)
8001aeac:	8fc20040 	lw	v0,64(s8)
8001aeb0:	0043102b 	sltu	v0,v0,v1
8001aeb4:	10400008 	beqz	v0,8001aed8 <do_pgfault+0x8c>
8001aeb8:	00000000 	nop
8001aebc:	3c028002 	lui	v0,0x8002
8001aec0:	24443d28 	addiu	a0,v0,15656
8001aec4:	8fc50040 	lw	a1,64(s8)
8001aec8:	0c00413e 	jal	800104f8 <cprintf>
8001aecc:	00000000 	nop
8001aed0:	08006c2a 	j	8001b0a8 <do_pgfault+0x25c>
8001aed4:	00000000 	nop
8001aed8:	8fc2003c 	lw	v0,60(s8)
8001aedc:	30420003 	andi	v0,v0,0x3
8001aee0:	10400017 	beqz	v0,8001af40 <do_pgfault+0xf4>
8001aee4:	00000000 	nop
8001aee8:	24030001 	li	v1,1
8001aeec:	1043000e 	beq	v0,v1,8001af28 <do_pgfault+0xdc>
8001aef0:	00000000 	nop
8001aef4:	8fc20020 	lw	v0,32(s8)
8001aef8:	8c42000c 	lw	v0,12(v0)
8001aefc:	30420002 	andi	v0,v0,0x2
8001af00:	14400007 	bnez	v0,8001af20 <do_pgfault+0xd4>
8001af04:	00000000 	nop
8001af08:	3c028002 	lui	v0,0x8002
8001af0c:	24443d58 	addiu	a0,v0,15704
8001af10:	0c00413e 	jal	800104f8 <cprintf>
8001af14:	00000000 	nop
8001af18:	08006c2a 	j	8001b0a8 <do_pgfault+0x25c>
8001af1c:	00000000 	nop
8001af20:	08006bdb 	j	8001af6c <do_pgfault+0x120>
8001af24:	00000000 	nop
8001af28:	3c028002 	lui	v0,0x8002
8001af2c:	24443db8 	addiu	a0,v0,15800
8001af30:	0c00413e 	jal	800104f8 <cprintf>
8001af34:	00000000 	nop
8001af38:	08006c2a 	j	8001b0a8 <do_pgfault+0x25c>
8001af3c:	00000000 	nop
8001af40:	8fc20020 	lw	v0,32(s8)
8001af44:	8c42000c 	lw	v0,12(v0)
8001af48:	30420005 	andi	v0,v0,0x5
8001af4c:	14400007 	bnez	v0,8001af6c <do_pgfault+0x120>
8001af50:	00000000 	nop
8001af54:	3c028002 	lui	v0,0x8002
8001af58:	24443df0 	addiu	a0,v0,15856
8001af5c:	0c00413e 	jal	800104f8 <cprintf>
8001af60:	00000000 	nop
8001af64:	08006c2a 	j	8001b0a8 <do_pgfault+0x25c>
8001af68:	00000000 	nop
8001af6c:	24020004 	li	v0,4
8001af70:	afc2001c 	sw	v0,28(s8)
8001af74:	8fc20020 	lw	v0,32(s8)
8001af78:	8c42000c 	lw	v0,12(v0)
8001af7c:	30420002 	andi	v0,v0,0x2
8001af80:	10400004 	beqz	v0,8001af94 <do_pgfault+0x148>
8001af84:	00000000 	nop
8001af88:	8fc2001c 	lw	v0,28(s8)
8001af8c:	34420002 	ori	v0,v0,0x2
8001af90:	afc2001c 	sw	v0,28(s8)
8001af94:	8fc20040 	lw	v0,64(s8)
8001af98:	afc20024 	sw	v0,36(s8)
8001af9c:	8fc30024 	lw	v1,36(s8)
8001afa0:	2402f000 	li	v0,-4096
8001afa4:	00621024 	and	v0,v1,v0
8001afa8:	afc20040 	sw	v0,64(s8)
8001afac:	2402fffc 	li	v0,-4
8001afb0:	afc20018 	sw	v0,24(s8)
8001afb4:	afc00028 	sw	zero,40(s8)
8001afb8:	8fc20038 	lw	v0,56(s8)
8001afbc:	8c42000c 	lw	v0,12(v0)
8001afc0:	00402021 	move	a0,v0
8001afc4:	8fc50040 	lw	a1,64(s8)
8001afc8:	24060001 	li	a2,1
8001afcc:	0c005621 	jal	80015884 <get_pte>
8001afd0:	00000000 	nop
8001afd4:	afc20028 	sw	v0,40(s8)
8001afd8:	8fc20028 	lw	v0,40(s8)
8001afdc:	8c420000 	lw	v0,0(v0)
8001afe0:	1440000a 	bnez	v0,8001b00c <do_pgfault+0x1c0>
8001afe4:	00000000 	nop
8001afe8:	8fc20038 	lw	v0,56(s8)
8001afec:	8c42000c 	lw	v0,12(v0)
8001aff0:	00402021 	move	a0,v0
8001aff4:	8fc50040 	lw	a1,64(s8)
8001aff8:	8fc6001c 	lw	a2,28(s8)
8001affc:	0c0058af 	jal	800162bc <pgdir_alloc_page>
8001b000:	00000000 	nop
8001b004:	08006c29 	j	8001b0a4 <do_pgfault+0x258>
8001b008:	00000000 	nop
8001b00c:	3c028036 	lui	v0,0x8036
8001b010:	8c420040 	lw	v0,64(v0)
8001b014:	1040001a 	beqz	v0,8001b080 <do_pgfault+0x234>
8001b018:	00000000 	nop
8001b01c:	afc0002c 	sw	zero,44(s8)
8001b020:	27c2002c 	addiu	v0,s8,44
8001b024:	8fc40038 	lw	a0,56(s8)
8001b028:	8fc50040 	lw	a1,64(s8)
8001b02c:	00403021 	move	a2,v0
8001b030:	0c005e29 	jal	800178a4 <swap_in>
8001b034:	00000000 	nop
8001b038:	8fc20038 	lw	v0,56(s8)
8001b03c:	8c43000c 	lw	v1,12(v0)
8001b040:	8fc2002c 	lw	v0,44(s8)
8001b044:	00602021 	move	a0,v1
8001b048:	00402821 	move	a1,v0
8001b04c:	8fc60040 	lw	a2,64(s8)
8001b050:	8fc7001c 	lw	a3,28(s8)
8001b054:	0c00586b 	jal	800161ac <page_insert>
8001b058:	00000000 	nop
8001b05c:	8fc2002c 	lw	v0,44(s8)
8001b060:	8fc40038 	lw	a0,56(s8)
8001b064:	8fc50040 	lw	a1,64(s8)
8001b068:	00403021 	move	a2,v0
8001b06c:	24070017 	li	a3,23
8001b070:	0c005d82 	jal	80017608 <swap_map_swappable>
8001b074:	00000000 	nop
8001b078:	08006c29 	j	8001b0a4 <do_pgfault+0x258>
8001b07c:	00000000 	nop
8001b080:	8fc20028 	lw	v0,40(s8)
8001b084:	8c420000 	lw	v0,0(v0)
8001b088:	3c038002 	lui	v1,0x8002
8001b08c:	24643e54 	addiu	a0,v1,15956
8001b090:	00402821 	move	a1,v0
8001b094:	0c00413e 	jal	800104f8 <cprintf>
8001b098:	00000000 	nop
8001b09c:	08006c2a 	j	8001b0a8 <do_pgfault+0x25c>
8001b0a0:	00000000 	nop
8001b0a4:	afc00018 	sw	zero,24(s8)
8001b0a8:	8fc20018 	lw	v0,24(s8)
8001b0ac:	03c0e821 	move	sp,s8
8001b0b0:	8fbf0034 	lw	ra,52(sp)
8001b0b4:	8fbe0030 	lw	s8,48(sp)
8001b0b8:	27bd0038 	addiu	sp,sp,56
8001b0bc:	03e00008 	jr	ra
8001b0c0:	00000000 	nop

8001b0c4 <user_mem_check>:
8001b0c4:	27bdffd0 	addiu	sp,sp,-48
8001b0c8:	afbf002c 	sw	ra,44(sp)
8001b0cc:	afbe0028 	sw	s8,40(sp)
8001b0d0:	03a0f021 	move	s8,sp
8001b0d4:	afc40030 	sw	a0,48(s8)
8001b0d8:	afc50034 	sw	a1,52(s8)
8001b0dc:	afc60038 	sw	a2,56(s8)
8001b0e0:	afc7003c 	sw	a3,60(s8)
8001b0e4:	8fc20030 	lw	v0,48(s8)
8001b0e8:	1040005d 	beqz	v0,8001b260 <user_mem_check+0x19c>
8001b0ec:	00000000 	nop
8001b0f0:	8fc30034 	lw	v1,52(s8)
8001b0f4:	3c020020 	lui	v0,0x20
8001b0f8:	0062102b 	sltu	v0,v1,v0
8001b0fc:	14400010 	bnez	v0,8001b140 <user_mem_check+0x7c>
8001b100:	00000000 	nop
8001b104:	8fc30034 	lw	v1,52(s8)
8001b108:	8fc20038 	lw	v0,56(s8)
8001b10c:	00621821 	addu	v1,v1,v0
8001b110:	8fc20034 	lw	v0,52(s8)
8001b114:	0043102b 	sltu	v0,v0,v1
8001b118:	10400009 	beqz	v0,8001b140 <user_mem_check+0x7c>
8001b11c:	00000000 	nop
8001b120:	8fc30034 	lw	v1,52(s8)
8001b124:	8fc20038 	lw	v0,56(s8)
8001b128:	00621821 	addu	v1,v1,v0
8001b12c:	3c028000 	lui	v0,0x8000
8001b130:	34420001 	ori	v0,v0,0x1
8001b134:	0062102b 	sltu	v0,v1,v0
8001b138:	14400004 	bnez	v0,8001b14c <user_mem_check+0x88>
8001b13c:	00000000 	nop
8001b140:	00001021 	move	v0,zero
8001b144:	08006cae 	j	8001b2b8 <user_mem_check+0x1f4>
8001b148:	00000000 	nop
8001b14c:	8fc20034 	lw	v0,52(s8)
8001b150:	afc20018 	sw	v0,24(s8)
8001b154:	8fc30034 	lw	v1,52(s8)
8001b158:	8fc20038 	lw	v0,56(s8)
8001b15c:	00621021 	addu	v0,v1,v0
8001b160:	afc2001c 	sw	v0,28(s8)
8001b164:	08006c90 	j	8001b240 <user_mem_check+0x17c>
8001b168:	00000000 	nop
8001b16c:	8fc40030 	lw	a0,48(s8)
8001b170:	8fc50018 	lw	a1,24(s8)
8001b174:	0c00667f 	jal	800199fc <find_vma>
8001b178:	00000000 	nop
8001b17c:	afc20020 	sw	v0,32(s8)
8001b180:	8fc20020 	lw	v0,32(s8)
8001b184:	10400007 	beqz	v0,8001b1a4 <user_mem_check+0xe0>
8001b188:	00000000 	nop
8001b18c:	8fc20020 	lw	v0,32(s8)
8001b190:	8c430004 	lw	v1,4(v0)
8001b194:	8fc20018 	lw	v0,24(s8)
8001b198:	0043102b 	sltu	v0,v0,v1
8001b19c:	10400004 	beqz	v0,8001b1b0 <user_mem_check+0xec>
8001b1a0:	00000000 	nop
8001b1a4:	00001021 	move	v0,zero
8001b1a8:	08006cae 	j	8001b2b8 <user_mem_check+0x1f4>
8001b1ac:	00000000 	nop
8001b1b0:	8fc20020 	lw	v0,32(s8)
8001b1b4:	8c43000c 	lw	v1,12(v0)
8001b1b8:	8fc2003c 	lw	v0,60(s8)
8001b1bc:	10400004 	beqz	v0,8001b1d0 <user_mem_check+0x10c>
8001b1c0:	00000000 	nop
8001b1c4:	24020002 	li	v0,2
8001b1c8:	08006c75 	j	8001b1d4 <user_mem_check+0x110>
8001b1cc:	00000000 	nop
8001b1d0:	24020001 	li	v0,1
8001b1d4:	00621024 	and	v0,v1,v0
8001b1d8:	14400004 	bnez	v0,8001b1ec <user_mem_check+0x128>
8001b1dc:	00000000 	nop
8001b1e0:	00001021 	move	v0,zero
8001b1e4:	08006cae 	j	8001b2b8 <user_mem_check+0x1f4>
8001b1e8:	00000000 	nop
8001b1ec:	8fc2003c 	lw	v0,60(s8)
8001b1f0:	10400010 	beqz	v0,8001b234 <user_mem_check+0x170>
8001b1f4:	00000000 	nop
8001b1f8:	8fc20020 	lw	v0,32(s8)
8001b1fc:	8c42000c 	lw	v0,12(v0)
8001b200:	30420008 	andi	v0,v0,0x8
8001b204:	1040000b 	beqz	v0,8001b234 <user_mem_check+0x170>
8001b208:	00000000 	nop
8001b20c:	8fc20020 	lw	v0,32(s8)
8001b210:	8c420004 	lw	v0,4(v0)
8001b214:	24431000 	addiu	v1,v0,4096
8001b218:	8fc20018 	lw	v0,24(s8)
8001b21c:	0043102b 	sltu	v0,v0,v1
8001b220:	10400004 	beqz	v0,8001b234 <user_mem_check+0x170>
8001b224:	00000000 	nop
8001b228:	00001021 	move	v0,zero
8001b22c:	08006cae 	j	8001b2b8 <user_mem_check+0x1f4>
8001b230:	00000000 	nop
8001b234:	8fc20020 	lw	v0,32(s8)
8001b238:	8c420008 	lw	v0,8(v0)
8001b23c:	afc20018 	sw	v0,24(s8)
8001b240:	8fc30018 	lw	v1,24(s8)
8001b244:	8fc2001c 	lw	v0,28(s8)
8001b248:	0062102b 	sltu	v0,v1,v0
8001b24c:	1440ffc7 	bnez	v0,8001b16c <user_mem_check+0xa8>
8001b250:	00000000 	nop
8001b254:	24020001 	li	v0,1
8001b258:	08006cae 	j	8001b2b8 <user_mem_check+0x1f4>
8001b25c:	00000000 	nop
8001b260:	8fc20034 	lw	v0,52(s8)
8001b264:	04410013 	bgez	v0,8001b2b4 <user_mem_check+0x1f0>
8001b268:	00000000 	nop
8001b26c:	8fc30034 	lw	v1,52(s8)
8001b270:	8fc20038 	lw	v0,56(s8)
8001b274:	00621821 	addu	v1,v1,v0
8001b278:	8fc20034 	lw	v0,52(s8)
8001b27c:	0043102b 	sltu	v0,v0,v1
8001b280:	1040000c 	beqz	v0,8001b2b4 <user_mem_check+0x1f0>
8001b284:	00000000 	nop
8001b288:	8fc30034 	lw	v1,52(s8)
8001b28c:	8fc20038 	lw	v0,56(s8)
8001b290:	00621821 	addu	v1,v1,v0
8001b294:	3c028080 	lui	v0,0x8080
8001b298:	34420001 	ori	v0,v0,0x1
8001b29c:	0062102b 	sltu	v0,v1,v0
8001b2a0:	10400004 	beqz	v0,8001b2b4 <user_mem_check+0x1f0>
8001b2a4:	00000000 	nop
8001b2a8:	24020001 	li	v0,1
8001b2ac:	08006cae 	j	8001b2b8 <user_mem_check+0x1f4>
8001b2b0:	00000000 	nop
8001b2b4:	00001021 	move	v0,zero
8001b2b8:	03c0e821 	move	sp,s8
8001b2bc:	8fbf002c 	lw	ra,44(sp)
8001b2c0:	8fbe0028 	lw	s8,40(sp)
8001b2c4:	27bd0030 	addiu	sp,sp,48
8001b2c8:	03e00008 	jr	ra
8001b2cc:	00000000 	nop

8001b2d0 <phi_test_sema>:
8001b2d0:	27bdffe0 	addiu	sp,sp,-32
8001b2d4:	afbf001c 	sw	ra,28(sp)
8001b2d8:	afbe0018 	sw	s8,24(sp)
8001b2dc:	03a0f021 	move	s8,sp
8001b2e0:	afc40020 	sw	a0,32(s8)
8001b2e4:	3c028036 	lui	v0,0x8036
8001b2e8:	8fc30020 	lw	v1,32(s8)
8001b2ec:	00031880 	sll	v1,v1,0x2
8001b2f0:	244221e4 	addiu	v0,v0,8676
8001b2f4:	00621021 	addu	v0,v1,v0
8001b2f8:	8c430000 	lw	v1,0(v0)
8001b2fc:	24020001 	li	v0,1
8001b300:	1462003e 	bne	v1,v0,8001b3fc <phi_test_sema+0x12c>
8001b304:	00000000 	nop
8001b308:	8fc20020 	lw	v0,32(s8)
8001b30c:	24440004 	addiu	a0,v0,4
8001b310:	3c026666 	lui	v0,0x6666
8001b314:	34426667 	ori	v0,v0,0x6667
8001b318:	00820018 	mult	a0,v0
8001b31c:	00001012 	mflo	v0
8001b320:	00001810 	mfhi	v1
8001b324:	00031843 	sra	v1,v1,0x1
8001b328:	000417c3 	sra	v0,a0,0x1f
8001b32c:	00621823 	subu	v1,v1,v0
8001b330:	00601021 	move	v0,v1
8001b334:	00021080 	sll	v0,v0,0x2
8001b338:	00431021 	addu	v0,v0,v1
8001b33c:	00821823 	subu	v1,a0,v0
8001b340:	3c028036 	lui	v0,0x8036
8001b344:	00031880 	sll	v1,v1,0x2
8001b348:	244221e4 	addiu	v0,v0,8676
8001b34c:	00621021 	addu	v0,v1,v0
8001b350:	8c430000 	lw	v1,0(v0)
8001b354:	24020002 	li	v0,2
8001b358:	10620028 	beq	v1,v0,8001b3fc <phi_test_sema+0x12c>
8001b35c:	00000000 	nop
8001b360:	8fc20020 	lw	v0,32(s8)
8001b364:	24440001 	addiu	a0,v0,1
8001b368:	3c026666 	lui	v0,0x6666
8001b36c:	34426667 	ori	v0,v0,0x6667
8001b370:	00820018 	mult	a0,v0
8001b374:	00001012 	mflo	v0
8001b378:	00001810 	mfhi	v1
8001b37c:	00031843 	sra	v1,v1,0x1
8001b380:	000417c3 	sra	v0,a0,0x1f
8001b384:	00621823 	subu	v1,v1,v0
8001b388:	00601021 	move	v0,v1
8001b38c:	00021080 	sll	v0,v0,0x2
8001b390:	00431021 	addu	v0,v0,v1
8001b394:	00821823 	subu	v1,a0,v0
8001b398:	3c028036 	lui	v0,0x8036
8001b39c:	00031880 	sll	v1,v1,0x2
8001b3a0:	244221e4 	addiu	v0,v0,8676
8001b3a4:	00621021 	addu	v0,v1,v0
8001b3a8:	8c430000 	lw	v1,0(v0)
8001b3ac:	24020002 	li	v0,2
8001b3b0:	10620012 	beq	v1,v0,8001b3fc <phi_test_sema+0x12c>
8001b3b4:	00000000 	nop
8001b3b8:	3c028036 	lui	v0,0x8036
8001b3bc:	8fc30020 	lw	v1,32(s8)
8001b3c0:	00031880 	sll	v1,v1,0x2
8001b3c4:	244221e4 	addiu	v0,v0,8676
8001b3c8:	00621021 	addu	v0,v1,v0
8001b3cc:	24030002 	li	v1,2
8001b3d0:	ac430000 	sw	v1,0(v0)
8001b3d4:	8fc20020 	lw	v0,32(s8)
8001b3d8:	00021080 	sll	v0,v0,0x2
8001b3dc:	00021880 	sll	v1,v0,0x2
8001b3e0:	00621823 	subu	v1,v1,v0
8001b3e4:	3c028036 	lui	v0,0x8036
8001b3e8:	24422260 	addiu	v0,v0,8800
8001b3ec:	00621021 	addu	v0,v1,v0
8001b3f0:	00402021 	move	a0,v0
8001b3f4:	0c0070e6 	jal	8001c398 <up>
8001b3f8:	00000000 	nop
8001b3fc:	03c0e821 	move	sp,s8
8001b400:	8fbf001c 	lw	ra,28(sp)
8001b404:	8fbe0018 	lw	s8,24(sp)
8001b408:	27bd0020 	addiu	sp,sp,32
8001b40c:	03e00008 	jr	ra
8001b410:	00000000 	nop

8001b414 <phi_take_forks_sema>:
8001b414:	27bdffe0 	addiu	sp,sp,-32
8001b418:	afbf001c 	sw	ra,28(sp)
8001b41c:	afbe0018 	sw	s8,24(sp)
8001b420:	03a0f021 	move	s8,sp
8001b424:	afc40020 	sw	a0,32(s8)
8001b428:	3c028036 	lui	v0,0x8036
8001b42c:	2444220c 	addiu	a0,v0,8716
8001b430:	0c0070f5 	jal	8001c3d4 <down>
8001b434:	00000000 	nop
8001b438:	3c028036 	lui	v0,0x8036
8001b43c:	8fc30020 	lw	v1,32(s8)
8001b440:	00031880 	sll	v1,v1,0x2
8001b444:	244221e4 	addiu	v0,v0,8676
8001b448:	00621021 	addu	v0,v1,v0
8001b44c:	24030001 	li	v1,1
8001b450:	ac430000 	sw	v1,0(v0)
8001b454:	8fc40020 	lw	a0,32(s8)
8001b458:	0c006cb4 	jal	8001b2d0 <phi_test_sema>
8001b45c:	00000000 	nop
8001b460:	3c028036 	lui	v0,0x8036
8001b464:	2444220c 	addiu	a0,v0,8716
8001b468:	0c0070e6 	jal	8001c398 <up>
8001b46c:	00000000 	nop
8001b470:	8fc20020 	lw	v0,32(s8)
8001b474:	00021080 	sll	v0,v0,0x2
8001b478:	00021880 	sll	v1,v0,0x2
8001b47c:	00621823 	subu	v1,v1,v0
8001b480:	3c028036 	lui	v0,0x8036
8001b484:	24422260 	addiu	v0,v0,8800
8001b488:	00621021 	addu	v0,v1,v0
8001b48c:	00402021 	move	a0,v0
8001b490:	0c0070f5 	jal	8001c3d4 <down>
8001b494:	00000000 	nop
8001b498:	03c0e821 	move	sp,s8
8001b49c:	8fbf001c 	lw	ra,28(sp)
8001b4a0:	8fbe0018 	lw	s8,24(sp)
8001b4a4:	27bd0020 	addiu	sp,sp,32
8001b4a8:	03e00008 	jr	ra
8001b4ac:	00000000 	nop

8001b4b0 <phi_put_forks_sema>:
8001b4b0:	27bdffe0 	addiu	sp,sp,-32
8001b4b4:	afbf001c 	sw	ra,28(sp)
8001b4b8:	afbe0018 	sw	s8,24(sp)
8001b4bc:	03a0f021 	move	s8,sp
8001b4c0:	afc40020 	sw	a0,32(s8)
8001b4c4:	3c028036 	lui	v0,0x8036
8001b4c8:	2444220c 	addiu	a0,v0,8716
8001b4cc:	0c0070f5 	jal	8001c3d4 <down>
8001b4d0:	00000000 	nop
8001b4d4:	3c028036 	lui	v0,0x8036
8001b4d8:	8fc30020 	lw	v1,32(s8)
8001b4dc:	00031880 	sll	v1,v1,0x2
8001b4e0:	244221e4 	addiu	v0,v0,8676
8001b4e4:	00621021 	addu	v0,v1,v0
8001b4e8:	ac400000 	sw	zero,0(v0)
8001b4ec:	8fc20020 	lw	v0,32(s8)
8001b4f0:	24440004 	addiu	a0,v0,4
8001b4f4:	3c026666 	lui	v0,0x6666
8001b4f8:	34426667 	ori	v0,v0,0x6667
8001b4fc:	00820018 	mult	a0,v0
8001b500:	00001012 	mflo	v0
8001b504:	00001810 	mfhi	v1
8001b508:	00031843 	sra	v1,v1,0x1
8001b50c:	000417c3 	sra	v0,a0,0x1f
8001b510:	00621823 	subu	v1,v1,v0
8001b514:	00601021 	move	v0,v1
8001b518:	00021080 	sll	v0,v0,0x2
8001b51c:	00431021 	addu	v0,v0,v1
8001b520:	00821823 	subu	v1,a0,v0
8001b524:	00602021 	move	a0,v1
8001b528:	0c006cb4 	jal	8001b2d0 <phi_test_sema>
8001b52c:	00000000 	nop
8001b530:	8fc20020 	lw	v0,32(s8)
8001b534:	24440001 	addiu	a0,v0,1
8001b538:	3c026666 	lui	v0,0x6666
8001b53c:	34426667 	ori	v0,v0,0x6667
8001b540:	00820018 	mult	a0,v0
8001b544:	00001012 	mflo	v0
8001b548:	00001810 	mfhi	v1
8001b54c:	00031843 	sra	v1,v1,0x1
8001b550:	000417c3 	sra	v0,a0,0x1f
8001b554:	00621823 	subu	v1,v1,v0
8001b558:	00601021 	move	v0,v1
8001b55c:	00021080 	sll	v0,v0,0x2
8001b560:	00431021 	addu	v0,v0,v1
8001b564:	00821823 	subu	v1,a0,v0
8001b568:	00602021 	move	a0,v1
8001b56c:	0c006cb4 	jal	8001b2d0 <phi_test_sema>
8001b570:	00000000 	nop
8001b574:	3c028036 	lui	v0,0x8036
8001b578:	2444220c 	addiu	a0,v0,8716
8001b57c:	0c0070e6 	jal	8001c398 <up>
8001b580:	00000000 	nop
8001b584:	03c0e821 	move	sp,s8
8001b588:	8fbf001c 	lw	ra,28(sp)
8001b58c:	8fbe0018 	lw	s8,24(sp)
8001b590:	27bd0020 	addiu	sp,sp,32
8001b594:	03e00008 	jr	ra
8001b598:	00000000 	nop

8001b59c <philosopher_using_semaphore>:
8001b59c:	27bdffd8 	addiu	sp,sp,-40
8001b5a0:	afbf0024 	sw	ra,36(sp)
8001b5a4:	afbe0020 	sw	s8,32(sp)
8001b5a8:	03a0f021 	move	s8,sp
8001b5ac:	afc40028 	sw	a0,40(s8)
8001b5b0:	afc00018 	sw	zero,24(s8)
8001b5b4:	8fc20028 	lw	v0,40(s8)
8001b5b8:	afc2001c 	sw	v0,28(s8)
8001b5bc:	3c028002 	lui	v0,0x8002
8001b5c0:	24443ea0 	addiu	a0,v0,16032
8001b5c4:	8fc5001c 	lw	a1,28(s8)
8001b5c8:	0c00413e 	jal	800104f8 <cprintf>
8001b5cc:	00000000 	nop
8001b5d0:	08006d8e 	j	8001b638 <philosopher_using_semaphore+0x9c>
8001b5d4:	00000000 	nop
8001b5d8:	3c028002 	lui	v0,0x8002
8001b5dc:	24443ec0 	addiu	a0,v0,16064
8001b5e0:	8fc50018 	lw	a1,24(s8)
8001b5e4:	8fc6001c 	lw	a2,28(s8)
8001b5e8:	0c00413e 	jal	800104f8 <cprintf>
8001b5ec:	00000000 	nop
8001b5f0:	2404000a 	li	a0,10
8001b5f4:	0c007d7f 	jal	8001f5fc <do_sleep>
8001b5f8:	00000000 	nop
8001b5fc:	8fc4001c 	lw	a0,28(s8)
8001b600:	0c006d05 	jal	8001b414 <phi_take_forks_sema>
8001b604:	00000000 	nop
8001b608:	3c028002 	lui	v0,0x8002
8001b60c:	24443ef0 	addiu	a0,v0,16112
8001b610:	8fc50018 	lw	a1,24(s8)
8001b614:	8fc6001c 	lw	a2,28(s8)
8001b618:	0c00413e 	jal	800104f8 <cprintf>
8001b61c:	00000000 	nop
8001b620:	2404000a 	li	a0,10
8001b624:	0c007d7f 	jal	8001f5fc <do_sleep>
8001b628:	00000000 	nop
8001b62c:	8fc4001c 	lw	a0,28(s8)
8001b630:	0c006d2c 	jal	8001b4b0 <phi_put_forks_sema>
8001b634:	00000000 	nop
8001b638:	8fc20018 	lw	v0,24(s8)
8001b63c:	24430001 	addiu	v1,v0,1
8001b640:	afc30018 	sw	v1,24(s8)
8001b644:	28420004 	slti	v0,v0,4
8001b648:	1440ffe3 	bnez	v0,8001b5d8 <philosopher_using_semaphore+0x3c>
8001b64c:	00000000 	nop
8001b650:	3c028002 	lui	v0,0x8002
8001b654:	24443f1c 	addiu	a0,v0,16156
8001b658:	8fc5001c 	lw	a1,28(s8)
8001b65c:	0c00413e 	jal	800104f8 <cprintf>
8001b660:	00000000 	nop
8001b664:	00001021 	move	v0,zero
8001b668:	03c0e821 	move	sp,s8
8001b66c:	8fbf0024 	lw	ra,36(sp)
8001b670:	8fbe0020 	lw	s8,32(sp)
8001b674:	27bd0028 	addiu	sp,sp,40
8001b678:	03e00008 	jr	ra
8001b67c:	00000000 	nop

8001b680 <phi_test_condvar>:
8001b680:	27bdffe0 	addiu	sp,sp,-32
8001b684:	afbf001c 	sw	ra,28(sp)
8001b688:	afbe0018 	sw	s8,24(sp)
8001b68c:	03a0f021 	move	s8,sp
8001b690:	afc40020 	sw	a0,32(s8)
8001b694:	3c028036 	lui	v0,0x8036
8001b698:	8fc30020 	lw	v1,32(s8)
8001b69c:	00031880 	sll	v1,v1,0x2
8001b6a0:	24422238 	addiu	v0,v0,8760
8001b6a4:	00621021 	addu	v0,v1,v0
8001b6a8:	8c430000 	lw	v1,0(v0)
8001b6ac:	24020001 	li	v0,1
8001b6b0:	14620049 	bne	v1,v0,8001b7d8 <phi_test_condvar+0x158>
8001b6b4:	00000000 	nop
8001b6b8:	8fc20020 	lw	v0,32(s8)
8001b6bc:	24440004 	addiu	a0,v0,4
8001b6c0:	3c026666 	lui	v0,0x6666
8001b6c4:	34426667 	ori	v0,v0,0x6667
8001b6c8:	00820018 	mult	a0,v0
8001b6cc:	00001012 	mflo	v0
8001b6d0:	00001810 	mfhi	v1
8001b6d4:	00031843 	sra	v1,v1,0x1
8001b6d8:	000417c3 	sra	v0,a0,0x1f
8001b6dc:	00621823 	subu	v1,v1,v0
8001b6e0:	00601021 	move	v0,v1
8001b6e4:	00021080 	sll	v0,v0,0x2
8001b6e8:	00431021 	addu	v0,v0,v1
8001b6ec:	00821823 	subu	v1,a0,v0
8001b6f0:	3c028036 	lui	v0,0x8036
8001b6f4:	00031880 	sll	v1,v1,0x2
8001b6f8:	24422238 	addiu	v0,v0,8760
8001b6fc:	00621021 	addu	v0,v1,v0
8001b700:	8c430000 	lw	v1,0(v0)
8001b704:	24020002 	li	v0,2
8001b708:	10620033 	beq	v1,v0,8001b7d8 <phi_test_condvar+0x158>
8001b70c:	00000000 	nop
8001b710:	8fc20020 	lw	v0,32(s8)
8001b714:	24440001 	addiu	a0,v0,1
8001b718:	3c026666 	lui	v0,0x6666
8001b71c:	34426667 	ori	v0,v0,0x6667
8001b720:	00820018 	mult	a0,v0
8001b724:	00001012 	mflo	v0
8001b728:	00001810 	mfhi	v1
8001b72c:	00031843 	sra	v1,v1,0x1
8001b730:	000417c3 	sra	v0,a0,0x1f
8001b734:	00621823 	subu	v1,v1,v0
8001b738:	00601021 	move	v0,v1
8001b73c:	00021080 	sll	v0,v0,0x2
8001b740:	00431021 	addu	v0,v0,v1
8001b744:	00821823 	subu	v1,a0,v0
8001b748:	3c028036 	lui	v0,0x8036
8001b74c:	00031880 	sll	v1,v1,0x2
8001b750:	24422238 	addiu	v0,v0,8760
8001b754:	00621021 	addu	v0,v1,v0
8001b758:	8c430000 	lw	v1,0(v0)
8001b75c:	24020002 	li	v0,2
8001b760:	1062001d 	beq	v1,v0,8001b7d8 <phi_test_condvar+0x158>
8001b764:	00000000 	nop
8001b768:	3c028002 	lui	v0,0x8002
8001b76c:	24443f3c 	addiu	a0,v0,16188
8001b770:	8fc50020 	lw	a1,32(s8)
8001b774:	0c00413e 	jal	800104f8 <cprintf>
8001b778:	00000000 	nop
8001b77c:	3c028036 	lui	v0,0x8036
8001b780:	8fc30020 	lw	v1,32(s8)
8001b784:	00031880 	sll	v1,v1,0x2
8001b788:	24422238 	addiu	v0,v0,8760
8001b78c:	00621021 	addu	v0,v1,v0
8001b790:	24030002 	li	v1,2
8001b794:	ac430000 	sw	v1,0(v0)
8001b798:	3c028002 	lui	v0,0x8002
8001b79c:	24443f70 	addiu	a0,v0,16240
8001b7a0:	8fc50020 	lw	a1,32(s8)
8001b7a4:	0c00413e 	jal	800104f8 <cprintf>
8001b7a8:	00000000 	nop
8001b7ac:	3c028036 	lui	v0,0x8036
8001b7b0:	8c42f580 	lw	v0,-2688(v0)
8001b7b4:	8c43001c 	lw	v1,28(v0)
8001b7b8:	8fc20020 	lw	v0,32(s8)
8001b7bc:	00021080 	sll	v0,v0,0x2
8001b7c0:	00022080 	sll	a0,v0,0x2
8001b7c4:	00441021 	addu	v0,v0,a0
8001b7c8:	00621021 	addu	v0,v1,v0
8001b7cc:	00402021 	move	a0,v0
8001b7d0:	0c006fad 	jal	8001beb4 <cond_signal>
8001b7d4:	00000000 	nop
8001b7d8:	03c0e821 	move	sp,s8
8001b7dc:	8fbf001c 	lw	ra,28(sp)
8001b7e0:	8fbe0018 	lw	s8,24(sp)
8001b7e4:	27bd0020 	addiu	sp,sp,32
8001b7e8:	03e00008 	jr	ra
8001b7ec:	00000000 	nop

8001b7f0 <phi_take_forks_condvar>:
8001b7f0:	27bdffe0 	addiu	sp,sp,-32
8001b7f4:	afbf001c 	sw	ra,28(sp)
8001b7f8:	afbe0018 	sw	s8,24(sp)
8001b7fc:	03a0f021 	move	s8,sp
8001b800:	afc40020 	sw	a0,32(s8)
8001b804:	3c028036 	lui	v0,0x8036
8001b808:	8c42f580 	lw	v0,-2688(v0)
8001b80c:	00402021 	move	a0,v0
8001b810:	0c0070f5 	jal	8001c3d4 <down>
8001b814:	00000000 	nop
8001b818:	3c028036 	lui	v0,0x8036
8001b81c:	8fc30020 	lw	v1,32(s8)
8001b820:	00031880 	sll	v1,v1,0x2
8001b824:	24422238 	addiu	v0,v0,8760
8001b828:	00621021 	addu	v0,v1,v0
8001b82c:	24030001 	li	v1,1
8001b830:	ac430000 	sw	v1,0(v0)
8001b834:	8fc40020 	lw	a0,32(s8)
8001b838:	0c006da0 	jal	8001b680 <phi_test_condvar>
8001b83c:	00000000 	nop
8001b840:	3c028036 	lui	v0,0x8036
8001b844:	8fc30020 	lw	v1,32(s8)
8001b848:	00031880 	sll	v1,v1,0x2
8001b84c:	24422238 	addiu	v0,v0,8760
8001b850:	00621021 	addu	v0,v1,v0
8001b854:	8c430000 	lw	v1,0(v0)
8001b858:	24020002 	li	v0,2
8001b85c:	1062000c 	beq	v1,v0,8001b890 <phi_take_forks_condvar+0xa0>
8001b860:	00000000 	nop
8001b864:	3c028036 	lui	v0,0x8036
8001b868:	8c42f580 	lw	v0,-2688(v0)
8001b86c:	8c43001c 	lw	v1,28(v0)
8001b870:	8fc20020 	lw	v0,32(s8)
8001b874:	00021080 	sll	v0,v0,0x2
8001b878:	00022080 	sll	a0,v0,0x2
8001b87c:	00441021 	addu	v0,v0,a0
8001b880:	00621021 	addu	v0,v1,v0
8001b884:	00402021 	move	a0,v0
8001b888:	0c006fe8 	jal	8001bfa0 <cond_wait>
8001b88c:	00000000 	nop
8001b890:	3c028036 	lui	v0,0x8036
8001b894:	8c42f580 	lw	v0,-2688(v0)
8001b898:	8c420018 	lw	v0,24(v0)
8001b89c:	18400009 	blez	v0,8001b8c4 <phi_take_forks_condvar+0xd4>
8001b8a0:	00000000 	nop
8001b8a4:	3c028036 	lui	v0,0x8036
8001b8a8:	8c42f580 	lw	v0,-2688(v0)
8001b8ac:	2442000c 	addiu	v0,v0,12
8001b8b0:	00402021 	move	a0,v0
8001b8b4:	0c0070e6 	jal	8001c398 <up>
8001b8b8:	00000000 	nop
8001b8bc:	08006e36 	j	8001b8d8 <phi_take_forks_condvar+0xe8>
8001b8c0:	00000000 	nop
8001b8c4:	3c028036 	lui	v0,0x8036
8001b8c8:	8c42f580 	lw	v0,-2688(v0)
8001b8cc:	00402021 	move	a0,v0
8001b8d0:	0c0070e6 	jal	8001c398 <up>
8001b8d4:	00000000 	nop
8001b8d8:	03c0e821 	move	sp,s8
8001b8dc:	8fbf001c 	lw	ra,28(sp)
8001b8e0:	8fbe0018 	lw	s8,24(sp)
8001b8e4:	27bd0020 	addiu	sp,sp,32
8001b8e8:	03e00008 	jr	ra
8001b8ec:	00000000 	nop

8001b8f0 <phi_put_forks_condvar>:
8001b8f0:	27bdffe0 	addiu	sp,sp,-32
8001b8f4:	afbf001c 	sw	ra,28(sp)
8001b8f8:	afbe0018 	sw	s8,24(sp)
8001b8fc:	03a0f021 	move	s8,sp
8001b900:	afc40020 	sw	a0,32(s8)
8001b904:	3c028036 	lui	v0,0x8036
8001b908:	8c42f580 	lw	v0,-2688(v0)
8001b90c:	00402021 	move	a0,v0
8001b910:	0c0070f5 	jal	8001c3d4 <down>
8001b914:	00000000 	nop
8001b918:	3c028036 	lui	v0,0x8036
8001b91c:	8fc30020 	lw	v1,32(s8)
8001b920:	00031880 	sll	v1,v1,0x2
8001b924:	24422238 	addiu	v0,v0,8760
8001b928:	00621021 	addu	v0,v1,v0
8001b92c:	ac400000 	sw	zero,0(v0)
8001b930:	8fc20020 	lw	v0,32(s8)
8001b934:	24440004 	addiu	a0,v0,4
8001b938:	3c026666 	lui	v0,0x6666
8001b93c:	34426667 	ori	v0,v0,0x6667
8001b940:	00820018 	mult	a0,v0
8001b944:	00001012 	mflo	v0
8001b948:	00001810 	mfhi	v1
8001b94c:	00031843 	sra	v1,v1,0x1
8001b950:	000417c3 	sra	v0,a0,0x1f
8001b954:	00621823 	subu	v1,v1,v0
8001b958:	00601021 	move	v0,v1
8001b95c:	00021080 	sll	v0,v0,0x2
8001b960:	00431021 	addu	v0,v0,v1
8001b964:	00821823 	subu	v1,a0,v0
8001b968:	00602021 	move	a0,v1
8001b96c:	0c006da0 	jal	8001b680 <phi_test_condvar>
8001b970:	00000000 	nop
8001b974:	8fc20020 	lw	v0,32(s8)
8001b978:	24440001 	addiu	a0,v0,1
8001b97c:	3c026666 	lui	v0,0x6666
8001b980:	34426667 	ori	v0,v0,0x6667
8001b984:	00820018 	mult	a0,v0
8001b988:	00001012 	mflo	v0
8001b98c:	00001810 	mfhi	v1
8001b990:	00031843 	sra	v1,v1,0x1
8001b994:	000417c3 	sra	v0,a0,0x1f
8001b998:	00621823 	subu	v1,v1,v0
8001b99c:	00601021 	move	v0,v1
8001b9a0:	00021080 	sll	v0,v0,0x2
8001b9a4:	00431021 	addu	v0,v0,v1
8001b9a8:	00821823 	subu	v1,a0,v0
8001b9ac:	00602021 	move	a0,v1
8001b9b0:	0c006da0 	jal	8001b680 <phi_test_condvar>
8001b9b4:	00000000 	nop
8001b9b8:	3c028036 	lui	v0,0x8036
8001b9bc:	8c42f580 	lw	v0,-2688(v0)
8001b9c0:	8c420018 	lw	v0,24(v0)
8001b9c4:	18400009 	blez	v0,8001b9ec <phi_put_forks_condvar+0xfc>
8001b9c8:	00000000 	nop
8001b9cc:	3c028036 	lui	v0,0x8036
8001b9d0:	8c42f580 	lw	v0,-2688(v0)
8001b9d4:	2442000c 	addiu	v0,v0,12
8001b9d8:	00402021 	move	a0,v0
8001b9dc:	0c0070e6 	jal	8001c398 <up>
8001b9e0:	00000000 	nop
8001b9e4:	08006e80 	j	8001ba00 <phi_put_forks_condvar+0x110>
8001b9e8:	00000000 	nop
8001b9ec:	3c028036 	lui	v0,0x8036
8001b9f0:	8c42f580 	lw	v0,-2688(v0)
8001b9f4:	00402021 	move	a0,v0
8001b9f8:	0c0070e6 	jal	8001c398 <up>
8001b9fc:	00000000 	nop
8001ba00:	03c0e821 	move	sp,s8
8001ba04:	8fbf001c 	lw	ra,28(sp)
8001ba08:	8fbe0018 	lw	s8,24(sp)
8001ba0c:	27bd0020 	addiu	sp,sp,32
8001ba10:	03e00008 	jr	ra
8001ba14:	00000000 	nop

8001ba18 <philosopher_using_condvar>:
8001ba18:	27bdffd8 	addiu	sp,sp,-40
8001ba1c:	afbf0024 	sw	ra,36(sp)
8001ba20:	afbe0020 	sw	s8,32(sp)
8001ba24:	03a0f021 	move	s8,sp
8001ba28:	afc40028 	sw	a0,40(s8)
8001ba2c:	afc00018 	sw	zero,24(s8)
8001ba30:	8fc20028 	lw	v0,40(s8)
8001ba34:	afc2001c 	sw	v0,28(s8)
8001ba38:	3c028002 	lui	v0,0x8002
8001ba3c:	24443f98 	addiu	a0,v0,16280
8001ba40:	8fc5001c 	lw	a1,28(s8)
8001ba44:	0c00413e 	jal	800104f8 <cprintf>
8001ba48:	00000000 	nop
8001ba4c:	08006ead 	j	8001bab4 <philosopher_using_condvar+0x9c>
8001ba50:	00000000 	nop
8001ba54:	3c028002 	lui	v0,0x8002
8001ba58:	24443fb8 	addiu	a0,v0,16312
8001ba5c:	8fc50018 	lw	a1,24(s8)
8001ba60:	8fc6001c 	lw	a2,28(s8)
8001ba64:	0c00413e 	jal	800104f8 <cprintf>
8001ba68:	00000000 	nop
8001ba6c:	2404000a 	li	a0,10
8001ba70:	0c007d7f 	jal	8001f5fc <do_sleep>
8001ba74:	00000000 	nop
8001ba78:	8fc4001c 	lw	a0,28(s8)
8001ba7c:	0c006dfc 	jal	8001b7f0 <phi_take_forks_condvar>
8001ba80:	00000000 	nop
8001ba84:	3c028002 	lui	v0,0x8002
8001ba88:	24443fe8 	addiu	a0,v0,16360
8001ba8c:	8fc50018 	lw	a1,24(s8)
8001ba90:	8fc6001c 	lw	a2,28(s8)
8001ba94:	0c00413e 	jal	800104f8 <cprintf>
8001ba98:	00000000 	nop
8001ba9c:	2404000a 	li	a0,10
8001baa0:	0c007d7f 	jal	8001f5fc <do_sleep>
8001baa4:	00000000 	nop
8001baa8:	8fc4001c 	lw	a0,28(s8)
8001baac:	0c006e3c 	jal	8001b8f0 <phi_put_forks_condvar>
8001bab0:	00000000 	nop
8001bab4:	8fc20018 	lw	v0,24(s8)
8001bab8:	24430001 	addiu	v1,v0,1
8001babc:	afc30018 	sw	v1,24(s8)
8001bac0:	28420004 	slti	v0,v0,4
8001bac4:	1440ffe3 	bnez	v0,8001ba54 <philosopher_using_condvar+0x3c>
8001bac8:	00000000 	nop
8001bacc:	3c028002 	lui	v0,0x8002
8001bad0:	24444018 	addiu	a0,v0,16408
8001bad4:	8fc5001c 	lw	a1,28(s8)
8001bad8:	0c00413e 	jal	800104f8 <cprintf>
8001badc:	00000000 	nop
8001bae0:	00001021 	move	v0,zero
8001bae4:	03c0e821 	move	sp,s8
8001bae8:	8fbf0024 	lw	ra,36(sp)
8001baec:	8fbe0020 	lw	s8,32(sp)
8001baf0:	27bd0028 	addiu	sp,sp,40
8001baf4:	03e00008 	jr	ra
8001baf8:	00000000 	nop

8001bafc <check_sync>:
8001bafc:	27bdffd0 	addiu	sp,sp,-48
8001bb00:	afbf002c 	sw	ra,44(sp)
8001bb04:	afbe0028 	sw	s8,40(sp)
8001bb08:	03a0f021 	move	s8,sp
8001bb0c:	3c028036 	lui	v0,0x8036
8001bb10:	2444220c 	addiu	a0,v0,8716
8001bb14:	24050001 	li	a1,1
8001bb18:	0c007052 	jal	8001c148 <sem_init>
8001bb1c:	00000000 	nop
8001bb20:	afc00018 	sw	zero,24(s8)
8001bb24:	08006f00 	j	8001bc00 <check_sync+0x104>
8001bb28:	00000000 	nop
8001bb2c:	8fc20018 	lw	v0,24(s8)
8001bb30:	00021080 	sll	v0,v0,0x2
8001bb34:	00021880 	sll	v1,v0,0x2
8001bb38:	00621823 	subu	v1,v1,v0
8001bb3c:	3c028036 	lui	v0,0x8036
8001bb40:	24422260 	addiu	v0,v0,8800
8001bb44:	00621021 	addu	v0,v1,v0
8001bb48:	00402021 	move	a0,v0
8001bb4c:	00002821 	move	a1,zero
8001bb50:	0c007052 	jal	8001c148 <sem_init>
8001bb54:	00000000 	nop
8001bb58:	8fc20018 	lw	v0,24(s8)
8001bb5c:	3c038002 	lui	v1,0x8002
8001bb60:	2464b59c 	addiu	a0,v1,-19044
8001bb64:	00402821 	move	a1,v0
8001bb68:	00003021 	move	a2,zero
8001bb6c:	0c0076bd 	jal	8001daf4 <kernel_thread>
8001bb70:	00000000 	nop
8001bb74:	afc2001c 	sw	v0,28(s8)
8001bb78:	8fc2001c 	lw	v0,28(s8)
8001bb7c:	1c400008 	bgtz	v0,8001bba0 <check_sync+0xa4>
8001bb80:	00000000 	nop
8001bb84:	3c028002 	lui	v0,0x8002
8001bb88:	24444038 	addiu	a0,v0,16440
8001bb8c:	240500bb 	li	a1,187
8001bb90:	3c028002 	lui	v0,0x8002
8001bb94:	24464050 	addiu	a2,v0,16464
8001bb98:	0c004544 	jal	80011510 <__panic>
8001bb9c:	00000000 	nop
8001bba0:	8fc4001c 	lw	a0,28(s8)
8001bba4:	0c007688 	jal	8001da20 <find_proc>
8001bba8:	00000000 	nop
8001bbac:	00401821 	move	v1,v0
8001bbb0:	3c028036 	lui	v0,0x8036
8001bbb4:	8fc40018 	lw	a0,24(s8)
8001bbb8:	00042080 	sll	a0,a0,0x2
8001bbbc:	2442224c 	addiu	v0,v0,8780
8001bbc0:	00821021 	addu	v0,a0,v0
8001bbc4:	ac430000 	sw	v1,0(v0)
8001bbc8:	3c028036 	lui	v0,0x8036
8001bbcc:	8fc30018 	lw	v1,24(s8)
8001bbd0:	00031880 	sll	v1,v1,0x2
8001bbd4:	2442224c 	addiu	v0,v0,8780
8001bbd8:	00621021 	addu	v0,v1,v0
8001bbdc:	8c420000 	lw	v0,0(v0)
8001bbe0:	00402021 	move	a0,v0
8001bbe4:	3c028002 	lui	v0,0x8002
8001bbe8:	24454084 	addiu	a1,v0,16516
8001bbec:	0c0074ef 	jal	8001d3bc <set_proc_name>
8001bbf0:	00000000 	nop
8001bbf4:	8fc20018 	lw	v0,24(s8)
8001bbf8:	24420001 	addiu	v0,v0,1
8001bbfc:	afc20018 	sw	v0,24(s8)
8001bc00:	8fc20018 	lw	v0,24(s8)
8001bc04:	28420005 	slti	v0,v0,5
8001bc08:	1440ffc8 	bnez	v0,8001bb2c <check_sync+0x30>
8001bc0c:	00000000 	nop
8001bc10:	3c028036 	lui	v0,0x8036
8001bc14:	24442218 	addiu	a0,v0,8728
8001bc18:	24050005 	li	a1,5
8001bc1c:	0c006f48 	jal	8001bd20 <monitor_init>
8001bc20:	00000000 	nop
8001bc24:	afc00018 	sw	zero,24(s8)
8001bc28:	08006f3c 	j	8001bcf0 <check_sync+0x1f4>
8001bc2c:	00000000 	nop
8001bc30:	3c028036 	lui	v0,0x8036
8001bc34:	8fc30018 	lw	v1,24(s8)
8001bc38:	00031880 	sll	v1,v1,0x2
8001bc3c:	24422238 	addiu	v0,v0,8760
8001bc40:	00621021 	addu	v0,v1,v0
8001bc44:	ac400000 	sw	zero,0(v0)
8001bc48:	8fc20018 	lw	v0,24(s8)
8001bc4c:	3c038002 	lui	v1,0x8002
8001bc50:	2464ba18 	addiu	a0,v1,-17896
8001bc54:	00402821 	move	a1,v0
8001bc58:	00003021 	move	a2,zero
8001bc5c:	0c0076bd 	jal	8001daf4 <kernel_thread>
8001bc60:	00000000 	nop
8001bc64:	afc20020 	sw	v0,32(s8)
8001bc68:	8fc20020 	lw	v0,32(s8)
8001bc6c:	1c400008 	bgtz	v0,8001bc90 <check_sync+0x194>
8001bc70:	00000000 	nop
8001bc74:	3c028002 	lui	v0,0x8002
8001bc78:	24444038 	addiu	a0,v0,16440
8001bc7c:	240500c7 	li	a1,199
8001bc80:	3c028002 	lui	v0,0x8002
8001bc84:	2446409c 	addiu	a2,v0,16540
8001bc88:	0c004544 	jal	80011510 <__panic>
8001bc8c:	00000000 	nop
8001bc90:	8fc40020 	lw	a0,32(s8)
8001bc94:	0c007688 	jal	8001da20 <find_proc>
8001bc98:	00000000 	nop
8001bc9c:	00401821 	move	v1,v0
8001bca0:	3c028036 	lui	v0,0x8036
8001bca4:	8fc40018 	lw	a0,24(s8)
8001bca8:	00042080 	sll	a0,a0,0x2
8001bcac:	244221f8 	addiu	v0,v0,8696
8001bcb0:	00821021 	addu	v0,a0,v0
8001bcb4:	ac430000 	sw	v1,0(v0)
8001bcb8:	3c028036 	lui	v0,0x8036
8001bcbc:	8fc30018 	lw	v1,24(s8)
8001bcc0:	00031880 	sll	v1,v1,0x2
8001bcc4:	244221f8 	addiu	v0,v0,8696
8001bcc8:	00621021 	addu	v0,v1,v0
8001bccc:	8c420000 	lw	v0,0(v0)
8001bcd0:	00402021 	move	a0,v0
8001bcd4:	3c028002 	lui	v0,0x8002
8001bcd8:	244540cc 	addiu	a1,v0,16588
8001bcdc:	0c0074ef 	jal	8001d3bc <set_proc_name>
8001bce0:	00000000 	nop
8001bce4:	8fc20018 	lw	v0,24(s8)
8001bce8:	24420001 	addiu	v0,v0,1
8001bcec:	afc20018 	sw	v0,24(s8)
8001bcf0:	8fc20018 	lw	v0,24(s8)
8001bcf4:	28420005 	slti	v0,v0,5
8001bcf8:	1440ffcd 	bnez	v0,8001bc30 <check_sync+0x134>
8001bcfc:	00000000 	nop
8001bd00:	03c0e821 	move	sp,s8
8001bd04:	8fbf002c 	lw	ra,44(sp)
8001bd08:	8fbe0028 	lw	s8,40(sp)
8001bd0c:	27bd0030 	addiu	sp,sp,48
8001bd10:	03e00008 	jr	ra
8001bd14:	00000000 	nop
	...

8001bd20 <monitor_init>:
8001bd20:	27bdffd8 	addiu	sp,sp,-40
8001bd24:	afbf0024 	sw	ra,36(sp)
8001bd28:	afbe0020 	sw	s8,32(sp)
8001bd2c:	03a0f021 	move	s8,sp
8001bd30:	afc40028 	sw	a0,40(s8)
8001bd34:	afc5002c 	sw	a1,44(s8)
8001bd38:	8fc2002c 	lw	v0,44(s8)
8001bd3c:	1440000a 	bnez	v0,8001bd68 <monitor_init+0x48>
8001bd40:	00000000 	nop
8001bd44:	3c028002 	lui	v0,0x8002
8001bd48:	244440f0 	addiu	a0,v0,16624
8001bd4c:	2405000b 	li	a1,11
8001bd50:	3c028002 	lui	v0,0x8002
8001bd54:	24464104 	addiu	a2,v0,16644
8001bd58:	3c028002 	lui	v0,0x8002
8001bd5c:	2447411c 	addiu	a3,v0,16668
8001bd60:	0c004544 	jal	80011510 <__panic>
8001bd64:	00000000 	nop
8001bd68:	8fc20028 	lw	v0,40(s8)
8001bd6c:	ac400018 	sw	zero,24(v0)
8001bd70:	8fc20028 	lw	v0,40(s8)
8001bd74:	ac40001c 	sw	zero,28(v0)
8001bd78:	8fc20028 	lw	v0,40(s8)
8001bd7c:	00402021 	move	a0,v0
8001bd80:	24050001 	li	a1,1
8001bd84:	0c007052 	jal	8001c148 <sem_init>
8001bd88:	00000000 	nop
8001bd8c:	8fc20028 	lw	v0,40(s8)
8001bd90:	2442000c 	addiu	v0,v0,12
8001bd94:	00402021 	move	a0,v0
8001bd98:	00002821 	move	a1,zero
8001bd9c:	0c007052 	jal	8001c148 <sem_init>
8001bda0:	00000000 	nop
8001bda4:	8fc2002c 	lw	v0,44(s8)
8001bda8:	00021080 	sll	v0,v0,0x2
8001bdac:	00021880 	sll	v1,v0,0x2
8001bdb0:	00431021 	addu	v0,v0,v1
8001bdb4:	00402021 	move	a0,v0
8001bdb8:	0c0052a3 	jal	80014a8c <kmalloc>
8001bdbc:	00000000 	nop
8001bdc0:	00401821 	move	v1,v0
8001bdc4:	8fc20028 	lw	v0,40(s8)
8001bdc8:	ac43001c 	sw	v1,28(v0)
8001bdcc:	8fc20028 	lw	v0,40(s8)
8001bdd0:	8c42001c 	lw	v0,28(v0)
8001bdd4:	1440000a 	bnez	v0,8001be00 <monitor_init+0xe0>
8001bdd8:	00000000 	nop
8001bddc:	3c028002 	lui	v0,0x8002
8001bde0:	244440f0 	addiu	a0,v0,16624
8001bde4:	24050011 	li	a1,17
8001bde8:	3c028002 	lui	v0,0x8002
8001bdec:	24464104 	addiu	a2,v0,16644
8001bdf0:	3c028002 	lui	v0,0x8002
8001bdf4:	24474128 	addiu	a3,v0,16680
8001bdf8:	0c004544 	jal	80011510 <__panic>
8001bdfc:	00000000 	nop
8001be00:	afc00018 	sw	zero,24(s8)
8001be04:	08006fa2 	j	8001be88 <monitor_init+0x168>
8001be08:	00000000 	nop
8001be0c:	8fc20028 	lw	v0,40(s8)
8001be10:	8c43001c 	lw	v1,28(v0)
8001be14:	8fc20018 	lw	v0,24(s8)
8001be18:	00021080 	sll	v0,v0,0x2
8001be1c:	00022080 	sll	a0,v0,0x2
8001be20:	00441021 	addu	v0,v0,a0
8001be24:	00621021 	addu	v0,v1,v0
8001be28:	ac40000c 	sw	zero,12(v0)
8001be2c:	8fc20028 	lw	v0,40(s8)
8001be30:	8c43001c 	lw	v1,28(v0)
8001be34:	8fc20018 	lw	v0,24(s8)
8001be38:	00021080 	sll	v0,v0,0x2
8001be3c:	00022080 	sll	a0,v0,0x2
8001be40:	00441021 	addu	v0,v0,a0
8001be44:	00621021 	addu	v0,v1,v0
8001be48:	00402021 	move	a0,v0
8001be4c:	00002821 	move	a1,zero
8001be50:	0c007052 	jal	8001c148 <sem_init>
8001be54:	00000000 	nop
8001be58:	8fc20028 	lw	v0,40(s8)
8001be5c:	8c43001c 	lw	v1,28(v0)
8001be60:	8fc20018 	lw	v0,24(s8)
8001be64:	00021080 	sll	v0,v0,0x2
8001be68:	00022080 	sll	a0,v0,0x2
8001be6c:	00441021 	addu	v0,v0,a0
8001be70:	00621021 	addu	v0,v1,v0
8001be74:	8fc30028 	lw	v1,40(s8)
8001be78:	ac430010 	sw	v1,16(v0)
8001be7c:	8fc20018 	lw	v0,24(s8)
8001be80:	24420001 	addiu	v0,v0,1
8001be84:	afc20018 	sw	v0,24(s8)
8001be88:	8fc30018 	lw	v1,24(s8)
8001be8c:	8fc2002c 	lw	v0,44(s8)
8001be90:	0062102b 	sltu	v0,v1,v0
8001be94:	1440ffdd 	bnez	v0,8001be0c <monitor_init+0xec>
8001be98:	00000000 	nop
8001be9c:	03c0e821 	move	sp,s8
8001bea0:	8fbf0024 	lw	ra,36(sp)
8001bea4:	8fbe0020 	lw	s8,32(sp)
8001bea8:	27bd0028 	addiu	sp,sp,40
8001beac:	03e00008 	jr	ra
8001beb0:	00000000 	nop

8001beb4 <cond_signal>:
8001beb4:	27bdffe0 	addiu	sp,sp,-32
8001beb8:	afbf001c 	sw	ra,28(sp)
8001bebc:	afbe0018 	sw	s8,24(sp)
8001bec0:	03a0f021 	move	s8,sp
8001bec4:	afc40020 	sw	a0,32(s8)
8001bec8:	8fc20020 	lw	v0,32(s8)
8001becc:	8c43000c 	lw	v1,12(v0)
8001bed0:	8fc20020 	lw	v0,32(s8)
8001bed4:	8c420010 	lw	v0,16(v0)
8001bed8:	8c420018 	lw	v0,24(v0)
8001bedc:	3c048002 	lui	a0,0x8002
8001bee0:	24844138 	addiu	a0,a0,16696
8001bee4:	8fc50020 	lw	a1,32(s8)
8001bee8:	00603021 	move	a2,v1
8001beec:	00403821 	move	a3,v0
8001bef0:	0c00413e 	jal	800104f8 <cprintf>
8001bef4:	00000000 	nop
8001bef8:	8fc20020 	lw	v0,32(s8)
8001befc:	8c42000c 	lw	v0,12(v0)
8001bf00:	18400015 	blez	v0,8001bf58 <cond_signal+0xa4>
8001bf04:	00000000 	nop
8001bf08:	8fc20020 	lw	v0,32(s8)
8001bf0c:	8c420010 	lw	v0,16(v0)
8001bf10:	8c430018 	lw	v1,24(v0)
8001bf14:	24630001 	addiu	v1,v1,1
8001bf18:	ac430018 	sw	v1,24(v0)
8001bf1c:	8fc20020 	lw	v0,32(s8)
8001bf20:	00402021 	move	a0,v0
8001bf24:	0c0070e6 	jal	8001c398 <up>
8001bf28:	00000000 	nop
8001bf2c:	8fc20020 	lw	v0,32(s8)
8001bf30:	8c420010 	lw	v0,16(v0)
8001bf34:	2442000c 	addiu	v0,v0,12
8001bf38:	00402021 	move	a0,v0
8001bf3c:	0c0070f5 	jal	8001c3d4 <down>
8001bf40:	00000000 	nop
8001bf44:	8fc20020 	lw	v0,32(s8)
8001bf48:	8c420010 	lw	v0,16(v0)
8001bf4c:	8c430018 	lw	v1,24(v0)
8001bf50:	2463ffff 	addiu	v1,v1,-1
8001bf54:	ac430018 	sw	v1,24(v0)
8001bf58:	8fc20020 	lw	v0,32(s8)
8001bf5c:	8c43000c 	lw	v1,12(v0)
8001bf60:	8fc20020 	lw	v0,32(s8)
8001bf64:	8c420010 	lw	v0,16(v0)
8001bf68:	8c420018 	lw	v0,24(v0)
8001bf6c:	3c048002 	lui	a0,0x8002
8001bf70:	24844180 	addiu	a0,a0,16768
8001bf74:	8fc50020 	lw	a1,32(s8)
8001bf78:	00603021 	move	a2,v1
8001bf7c:	00403821 	move	a3,v0
8001bf80:	0c00413e 	jal	800104f8 <cprintf>
8001bf84:	00000000 	nop
8001bf88:	03c0e821 	move	sp,s8
8001bf8c:	8fbf001c 	lw	ra,28(sp)
8001bf90:	8fbe0018 	lw	s8,24(sp)
8001bf94:	27bd0020 	addiu	sp,sp,32
8001bf98:	03e00008 	jr	ra
8001bf9c:	00000000 	nop

8001bfa0 <cond_wait>:
8001bfa0:	27bdffe0 	addiu	sp,sp,-32
8001bfa4:	afbf001c 	sw	ra,28(sp)
8001bfa8:	afbe0018 	sw	s8,24(sp)
8001bfac:	03a0f021 	move	s8,sp
8001bfb0:	afc40020 	sw	a0,32(s8)
8001bfb4:	8fc20020 	lw	v0,32(s8)
8001bfb8:	8c43000c 	lw	v1,12(v0)
8001bfbc:	8fc20020 	lw	v0,32(s8)
8001bfc0:	8c420010 	lw	v0,16(v0)
8001bfc4:	8c420018 	lw	v0,24(v0)
8001bfc8:	3c048002 	lui	a0,0x8002
8001bfcc:	248441c4 	addiu	a0,a0,16836
8001bfd0:	8fc50020 	lw	a1,32(s8)
8001bfd4:	00603021 	move	a2,v1
8001bfd8:	00403821 	move	a3,v0
8001bfdc:	0c00413e 	jal	800104f8 <cprintf>
8001bfe0:	00000000 	nop
8001bfe4:	8fc20020 	lw	v0,32(s8)
8001bfe8:	8c42000c 	lw	v0,12(v0)
8001bfec:	24430001 	addiu	v1,v0,1
8001bff0:	8fc20020 	lw	v0,32(s8)
8001bff4:	ac43000c 	sw	v1,12(v0)
8001bff8:	8fc20020 	lw	v0,32(s8)
8001bffc:	8c420010 	lw	v0,16(v0)
8001c000:	8c420018 	lw	v0,24(v0)
8001c004:	18400009 	blez	v0,8001c02c <cond_wait+0x8c>
8001c008:	00000000 	nop
8001c00c:	8fc20020 	lw	v0,32(s8)
8001c010:	8c420010 	lw	v0,16(v0)
8001c014:	2442000c 	addiu	v0,v0,12
8001c018:	00402021 	move	a0,v0
8001c01c:	0c0070e6 	jal	8001c398 <up>
8001c020:	00000000 	nop
8001c024:	08007010 	j	8001c040 <cond_wait+0xa0>
8001c028:	00000000 	nop
8001c02c:	8fc20020 	lw	v0,32(s8)
8001c030:	8c420010 	lw	v0,16(v0)
8001c034:	00402021 	move	a0,v0
8001c038:	0c0070e6 	jal	8001c398 <up>
8001c03c:	00000000 	nop
8001c040:	8fc20020 	lw	v0,32(s8)
8001c044:	00402021 	move	a0,v0
8001c048:	0c0070f5 	jal	8001c3d4 <down>
8001c04c:	00000000 	nop
8001c050:	8fc20020 	lw	v0,32(s8)
8001c054:	8c42000c 	lw	v0,12(v0)
8001c058:	2443ffff 	addiu	v1,v0,-1
8001c05c:	8fc20020 	lw	v0,32(s8)
8001c060:	ac43000c 	sw	v1,12(v0)
8001c064:	8fc20020 	lw	v0,32(s8)
8001c068:	8c43000c 	lw	v1,12(v0)
8001c06c:	8fc20020 	lw	v0,32(s8)
8001c070:	8c420010 	lw	v0,16(v0)
8001c074:	8c420018 	lw	v0,24(v0)
8001c078:	3c048002 	lui	a0,0x8002
8001c07c:	24844208 	addiu	a0,a0,16904
8001c080:	8fc50020 	lw	a1,32(s8)
8001c084:	00603021 	move	a2,v1
8001c088:	00403821 	move	a3,v0
8001c08c:	0c00413e 	jal	800104f8 <cprintf>
8001c090:	00000000 	nop
8001c094:	03c0e821 	move	sp,s8
8001c098:	8fbf001c 	lw	ra,28(sp)
8001c09c:	8fbe0018 	lw	s8,24(sp)
8001c0a0:	27bd0020 	addiu	sp,sp,32
8001c0a4:	03e00008 	jr	ra
8001c0a8:	00000000 	nop
8001c0ac:	00000000 	nop

8001c0b0 <__intr_save>:
8001c0b0:	27bdffd8 	addiu	sp,sp,-40
8001c0b4:	afbf0024 	sw	ra,36(sp)
8001c0b8:	afbe0020 	sw	s8,32(sp)
8001c0bc:	03a0f021 	move	s8,sp
8001c0c0:	40026000 	mfc0	v0,c0_status
8001c0c4:	afc20018 	sw	v0,24(s8)
8001c0c8:	8fc20018 	lw	v0,24(s8)
8001c0cc:	30420001 	andi	v0,v0,0x1
8001c0d0:	10400006 	beqz	v0,8001c0ec <__intr_save+0x3c>
8001c0d4:	00000000 	nop
8001c0d8:	0c0046d7 	jal	80011b5c <intr_disable>
8001c0dc:	00000000 	nop
8001c0e0:	24020001 	li	v0,1
8001c0e4:	0800703c 	j	8001c0f0 <__intr_save+0x40>
8001c0e8:	00000000 	nop
8001c0ec:	00001021 	move	v0,zero
8001c0f0:	03c0e821 	move	sp,s8
8001c0f4:	8fbf0024 	lw	ra,36(sp)
8001c0f8:	8fbe0020 	lw	s8,32(sp)
8001c0fc:	27bd0028 	addiu	sp,sp,40
8001c100:	03e00008 	jr	ra
8001c104:	00000000 	nop

8001c108 <__intr_restore>:
8001c108:	27bdffe0 	addiu	sp,sp,-32
8001c10c:	afbf001c 	sw	ra,28(sp)
8001c110:	afbe0018 	sw	s8,24(sp)
8001c114:	03a0f021 	move	s8,sp
8001c118:	afc40020 	sw	a0,32(s8)
8001c11c:	8fc20020 	lw	v0,32(s8)
8001c120:	10400003 	beqz	v0,8001c130 <__intr_restore+0x28>
8001c124:	00000000 	nop
8001c128:	0c0046c8 	jal	80011b20 <intr_enable>
8001c12c:	00000000 	nop
8001c130:	03c0e821 	move	sp,s8
8001c134:	8fbf001c 	lw	ra,28(sp)
8001c138:	8fbe0018 	lw	s8,24(sp)
8001c13c:	27bd0020 	addiu	sp,sp,32
8001c140:	03e00008 	jr	ra
8001c144:	00000000 	nop

8001c148 <sem_init>:
8001c148:	27bdffe0 	addiu	sp,sp,-32
8001c14c:	afbf001c 	sw	ra,28(sp)
8001c150:	afbe0018 	sw	s8,24(sp)
8001c154:	03a0f021 	move	s8,sp
8001c158:	afc40020 	sw	a0,32(s8)
8001c15c:	afc50024 	sw	a1,36(s8)
8001c160:	8fc20020 	lw	v0,32(s8)
8001c164:	8fc30024 	lw	v1,36(s8)
8001c168:	ac430000 	sw	v1,0(v0)
8001c16c:	8fc20020 	lw	v0,32(s8)
8001c170:	24420004 	addiu	v0,v0,4
8001c174:	00402021 	move	a0,v0
8001c178:	0c00714a 	jal	8001c528 <wait_queue_init>
8001c17c:	00000000 	nop
8001c180:	03c0e821 	move	sp,s8
8001c184:	8fbf001c 	lw	ra,28(sp)
8001c188:	8fbe0018 	lw	s8,24(sp)
8001c18c:	27bd0020 	addiu	sp,sp,32
8001c190:	03e00008 	jr	ra
8001c194:	00000000 	nop

8001c198 <__up>:
8001c198:	27bdffd8 	addiu	sp,sp,-40
8001c19c:	afbf0024 	sw	ra,36(sp)
8001c1a0:	afbe0020 	sw	s8,32(sp)
8001c1a4:	03a0f021 	move	s8,sp
8001c1a8:	afc40028 	sw	a0,40(s8)
8001c1ac:	afc5002c 	sw	a1,44(s8)
8001c1b0:	0c00702c 	jal	8001c0b0 <__intr_save>
8001c1b4:	00000000 	nop
8001c1b8:	afc20018 	sw	v0,24(s8)
8001c1bc:	8fc20028 	lw	v0,40(s8)
8001c1c0:	24420004 	addiu	v0,v0,4
8001c1c4:	00402021 	move	a0,v0
8001c1c8:	0c007243 	jal	8001c90c <wait_queue_first>
8001c1cc:	00000000 	nop
8001c1d0:	afc2001c 	sw	v0,28(s8)
8001c1d4:	8fc2001c 	lw	v0,28(s8)
8001c1d8:	14400008 	bnez	v0,8001c1fc <__up+0x64>
8001c1dc:	00000000 	nop
8001c1e0:	8fc20028 	lw	v0,40(s8)
8001c1e4:	8c420000 	lw	v0,0(v0)
8001c1e8:	24430001 	addiu	v1,v0,1
8001c1ec:	8fc20028 	lw	v0,40(s8)
8001c1f0:	ac430000 	sw	v1,0(v0)
8001c1f4:	08007096 	j	8001c258 <__up+0xc0>
8001c1f8:	00000000 	nop
8001c1fc:	8fc2001c 	lw	v0,28(s8)
8001c200:	8c420000 	lw	v0,0(v0)
8001c204:	8c4300a0 	lw	v1,160(v0)
8001c208:	8fc2002c 	lw	v0,44(s8)
8001c20c:	1062000a 	beq	v1,v0,8001c238 <__up+0xa0>
8001c210:	00000000 	nop
8001c214:	3c028002 	lui	v0,0x8002
8001c218:	24444250 	addiu	a0,v0,16976
8001c21c:	24050019 	li	a1,25
8001c220:	3c028002 	lui	v0,0x8002
8001c224:	24464260 	addiu	a2,v0,16992
8001c228:	3c028002 	lui	v0,0x8002
8001c22c:	24474278 	addiu	a3,v0,17016
8001c230:	0c004544 	jal	80011510 <__panic>
8001c234:	00000000 	nop
8001c238:	8fc20028 	lw	v0,40(s8)
8001c23c:	24420004 	addiu	v0,v0,4
8001c240:	00402021 	move	a0,v0
8001c244:	8fc5001c 	lw	a1,28(s8)
8001c248:	8fc6002c 	lw	a2,44(s8)
8001c24c:	24070001 	li	a3,1
8001c250:	0c007296 	jal	8001ca58 <wakeup_wait>
8001c254:	00000000 	nop
8001c258:	8fc40018 	lw	a0,24(s8)
8001c25c:	0c007042 	jal	8001c108 <__intr_restore>
8001c260:	00000000 	nop
8001c264:	03c0e821 	move	sp,s8
8001c268:	8fbf0024 	lw	ra,36(sp)
8001c26c:	8fbe0020 	lw	s8,32(sp)
8001c270:	27bd0028 	addiu	sp,sp,40
8001c274:	03e00008 	jr	ra
8001c278:	00000000 	nop

8001c27c <__down>:
8001c27c:	27bdffc0 	addiu	sp,sp,-64
8001c280:	afbf003c 	sw	ra,60(sp)
8001c284:	afbe0038 	sw	s8,56(sp)
8001c288:	03a0f021 	move	s8,sp
8001c28c:	afc40040 	sw	a0,64(s8)
8001c290:	afc50044 	sw	a1,68(s8)
8001c294:	0c00702c 	jal	8001c0b0 <__intr_save>
8001c298:	00000000 	nop
8001c29c:	afc20018 	sw	v0,24(s8)
8001c2a0:	8fc20040 	lw	v0,64(s8)
8001c2a4:	8c420000 	lw	v0,0(v0)
8001c2a8:	1840000c 	blez	v0,8001c2dc <__down+0x60>
8001c2ac:	00000000 	nop
8001c2b0:	8fc20040 	lw	v0,64(s8)
8001c2b4:	8c420000 	lw	v0,0(v0)
8001c2b8:	2443ffff 	addiu	v1,v0,-1
8001c2bc:	8fc20040 	lw	v0,64(s8)
8001c2c0:	ac430000 	sw	v1,0(v0)
8001c2c4:	8fc40018 	lw	a0,24(s8)
8001c2c8:	0c007042 	jal	8001c108 <__intr_restore>
8001c2cc:	00000000 	nop
8001c2d0:	00001021 	move	v0,zero
8001c2d4:	080070e0 	j	8001c380 <__down+0x104>
8001c2d8:	00000000 	nop
8001c2dc:	27c20020 	addiu	v0,s8,32
8001c2e0:	afc2001c 	sw	v0,28(s8)
8001c2e4:	8fc20040 	lw	v0,64(s8)
8001c2e8:	24420004 	addiu	v0,v0,4
8001c2ec:	00402021 	move	a0,v0
8001c2f0:	8fc5001c 	lw	a1,28(s8)
8001c2f4:	8fc60044 	lw	a2,68(s8)
8001c2f8:	0c007301 	jal	8001cc04 <wait_current_set>
8001c2fc:	00000000 	nop
8001c300:	8fc40018 	lw	a0,24(s8)
8001c304:	0c007042 	jal	8001c108 <__intr_restore>
8001c308:	00000000 	nop
8001c30c:	0c007f9e 	jal	8001fe78 <schedule>
8001c310:	00000000 	nop
8001c314:	0c00702c 	jal	8001c0b0 <__intr_save>
8001c318:	00000000 	nop
8001c31c:	afc20018 	sw	v0,24(s8)
8001c320:	8fc4001c 	lw	a0,28(s8)
8001c324:	0c007282 	jal	8001ca08 <wait_in_queue>
8001c328:	00000000 	nop
8001c32c:	10400007 	beqz	v0,8001c34c <__down+0xd0>
8001c330:	00000000 	nop
8001c334:	8fc20040 	lw	v0,64(s8)
8001c338:	24420004 	addiu	v0,v0,4
8001c33c:	00402021 	move	a0,v0
8001c340:	8fc5001c 	lw	a1,28(s8)
8001c344:	0c00719c 	jal	8001c670 <wait_queue_del>
8001c348:	00000000 	nop
8001c34c:	8fc40018 	lw	a0,24(s8)
8001c350:	0c007042 	jal	8001c108 <__intr_restore>
8001c354:	00000000 	nop
8001c358:	8fc2001c 	lw	v0,28(s8)
8001c35c:	8c430004 	lw	v1,4(v0)
8001c360:	8fc20044 	lw	v0,68(s8)
8001c364:	10620005 	beq	v1,v0,8001c37c <__down+0x100>
8001c368:	00000000 	nop
8001c36c:	8fc2001c 	lw	v0,28(s8)
8001c370:	8c420004 	lw	v0,4(v0)
8001c374:	080070e0 	j	8001c380 <__down+0x104>
8001c378:	00000000 	nop
8001c37c:	00001021 	move	v0,zero
8001c380:	03c0e821 	move	sp,s8
8001c384:	8fbf003c 	lw	ra,60(sp)
8001c388:	8fbe0038 	lw	s8,56(sp)
8001c38c:	27bd0040 	addiu	sp,sp,64
8001c390:	03e00008 	jr	ra
8001c394:	00000000 	nop

8001c398 <up>:
8001c398:	27bdffe0 	addiu	sp,sp,-32
8001c39c:	afbf001c 	sw	ra,28(sp)
8001c3a0:	afbe0018 	sw	s8,24(sp)
8001c3a4:	03a0f021 	move	s8,sp
8001c3a8:	afc40020 	sw	a0,32(s8)
8001c3ac:	8fc40020 	lw	a0,32(s8)
8001c3b0:	24050100 	li	a1,256
8001c3b4:	0c007066 	jal	8001c198 <__up>
8001c3b8:	00000000 	nop
8001c3bc:	03c0e821 	move	sp,s8
8001c3c0:	8fbf001c 	lw	ra,28(sp)
8001c3c4:	8fbe0018 	lw	s8,24(sp)
8001c3c8:	27bd0020 	addiu	sp,sp,32
8001c3cc:	03e00008 	jr	ra
8001c3d0:	00000000 	nop

8001c3d4 <down>:
8001c3d4:	27bdffd8 	addiu	sp,sp,-40
8001c3d8:	afbf0024 	sw	ra,36(sp)
8001c3dc:	afbe0020 	sw	s8,32(sp)
8001c3e0:	03a0f021 	move	s8,sp
8001c3e4:	afc40028 	sw	a0,40(s8)
8001c3e8:	8fc40028 	lw	a0,40(s8)
8001c3ec:	24050100 	li	a1,256
8001c3f0:	0c00709f 	jal	8001c27c <__down>
8001c3f4:	00000000 	nop
8001c3f8:	afc20018 	sw	v0,24(s8)
8001c3fc:	8fc20018 	lw	v0,24(s8)
8001c400:	1040000a 	beqz	v0,8001c42c <down+0x58>
8001c404:	00000000 	nop
8001c408:	3c028002 	lui	v0,0x8002
8001c40c:	24444250 	addiu	a0,v0,16976
8001c410:	24050040 	li	a1,64
8001c414:	3c028002 	lui	v0,0x8002
8001c418:	24464260 	addiu	a2,v0,16992
8001c41c:	3c028002 	lui	v0,0x8002
8001c420:	244742a0 	addiu	a3,v0,17056
8001c424:	0c004544 	jal	80011510 <__panic>
8001c428:	00000000 	nop
8001c42c:	03c0e821 	move	sp,s8
8001c430:	8fbf0024 	lw	ra,36(sp)
8001c434:	8fbe0020 	lw	s8,32(sp)
8001c438:	27bd0028 	addiu	sp,sp,40
8001c43c:	03e00008 	jr	ra
8001c440:	00000000 	nop

8001c444 <try_down>:
8001c444:	27bdffd8 	addiu	sp,sp,-40
8001c448:	afbf0024 	sw	ra,36(sp)
8001c44c:	afbe0020 	sw	s8,32(sp)
8001c450:	03a0f021 	move	s8,sp
8001c454:	afc40028 	sw	a0,40(s8)
8001c458:	afc00018 	sw	zero,24(s8)
8001c45c:	0c00702c 	jal	8001c0b0 <__intr_save>
8001c460:	00000000 	nop
8001c464:	afc2001c 	sw	v0,28(s8)
8001c468:	8fc20028 	lw	v0,40(s8)
8001c46c:	8c420000 	lw	v0,0(v0)
8001c470:	18400008 	blez	v0,8001c494 <try_down+0x50>
8001c474:	00000000 	nop
8001c478:	8fc20028 	lw	v0,40(s8)
8001c47c:	8c420000 	lw	v0,0(v0)
8001c480:	2443ffff 	addiu	v1,v0,-1
8001c484:	8fc20028 	lw	v0,40(s8)
8001c488:	ac430000 	sw	v1,0(v0)
8001c48c:	24020001 	li	v0,1
8001c490:	afc20018 	sw	v0,24(s8)
8001c494:	8fc4001c 	lw	a0,28(s8)
8001c498:	0c007042 	jal	8001c108 <__intr_restore>
8001c49c:	00000000 	nop
8001c4a0:	8fc20018 	lw	v0,24(s8)
8001c4a4:	03c0e821 	move	sp,s8
8001c4a8:	8fbf0024 	lw	ra,36(sp)
8001c4ac:	8fbe0020 	lw	s8,32(sp)
8001c4b0:	27bd0028 	addiu	sp,sp,40
8001c4b4:	03e00008 	jr	ra
8001c4b8:	00000000 	nop
8001c4bc:	00000000 	nop

8001c4c0 <wait_init>:
8001c4c0:	27bdffe8 	addiu	sp,sp,-24
8001c4c4:	afbe0014 	sw	s8,20(sp)
8001c4c8:	03a0f021 	move	s8,sp
8001c4cc:	afc40018 	sw	a0,24(s8)
8001c4d0:	afc5001c 	sw	a1,28(s8)
8001c4d4:	8fc20018 	lw	v0,24(s8)
8001c4d8:	8fc3001c 	lw	v1,28(s8)
8001c4dc:	ac430000 	sw	v1,0(v0)
8001c4e0:	8fc20018 	lw	v0,24(s8)
8001c4e4:	3c038000 	lui	v1,0x8000
8001c4e8:	ac430004 	sw	v1,4(v0)
8001c4ec:	8fc20018 	lw	v0,24(s8)
8001c4f0:	2442000c 	addiu	v0,v0,12
8001c4f4:	afc20008 	sw	v0,8(s8)
8001c4f8:	8fc20008 	lw	v0,8(s8)
8001c4fc:	8fc30008 	lw	v1,8(s8)
8001c500:	ac430004 	sw	v1,4(v0)
8001c504:	8fc20008 	lw	v0,8(s8)
8001c508:	8c430004 	lw	v1,4(v0)
8001c50c:	8fc20008 	lw	v0,8(s8)
8001c510:	ac430000 	sw	v1,0(v0)
8001c514:	03c0e821 	move	sp,s8
8001c518:	8fbe0014 	lw	s8,20(sp)
8001c51c:	27bd0018 	addiu	sp,sp,24
8001c520:	03e00008 	jr	ra
8001c524:	00000000 	nop

8001c528 <wait_queue_init>:
8001c528:	27bdffe8 	addiu	sp,sp,-24
8001c52c:	afbe0014 	sw	s8,20(sp)
8001c530:	03a0f021 	move	s8,sp
8001c534:	afc40018 	sw	a0,24(s8)
8001c538:	8fc20018 	lw	v0,24(s8)
8001c53c:	afc20008 	sw	v0,8(s8)
8001c540:	8fc20008 	lw	v0,8(s8)
8001c544:	8fc30008 	lw	v1,8(s8)
8001c548:	ac430004 	sw	v1,4(v0)
8001c54c:	8fc20008 	lw	v0,8(s8)
8001c550:	8c430004 	lw	v1,4(v0)
8001c554:	8fc20008 	lw	v0,8(s8)
8001c558:	ac430000 	sw	v1,0(v0)
8001c55c:	03c0e821 	move	sp,s8
8001c560:	8fbe0014 	lw	s8,20(sp)
8001c564:	27bd0018 	addiu	sp,sp,24
8001c568:	03e00008 	jr	ra
8001c56c:	00000000 	nop

8001c570 <wait_queue_add>:
8001c570:	27bdffc8 	addiu	sp,sp,-56
8001c574:	afbf0034 	sw	ra,52(sp)
8001c578:	afbe0030 	sw	s8,48(sp)
8001c57c:	03a0f021 	move	s8,sp
8001c580:	afc40038 	sw	a0,56(s8)
8001c584:	afc5003c 	sw	a1,60(s8)
8001c588:	8fc2003c 	lw	v0,60(s8)
8001c58c:	2442000c 	addiu	v0,v0,12
8001c590:	afc20018 	sw	v0,24(s8)
8001c594:	8fc20018 	lw	v0,24(s8)
8001c598:	8c430004 	lw	v1,4(v0)
8001c59c:	8fc20018 	lw	v0,24(s8)
8001c5a0:	00621026 	xor	v0,v1,v0
8001c5a4:	2c420001 	sltiu	v0,v0,1
8001c5a8:	304200ff 	andi	v0,v0,0xff
8001c5ac:	10400005 	beqz	v0,8001c5c4 <wait_queue_add+0x54>
8001c5b0:	00000000 	nop
8001c5b4:	8fc2003c 	lw	v0,60(s8)
8001c5b8:	8c420000 	lw	v0,0(v0)
8001c5bc:	1440000a 	bnez	v0,8001c5e8 <wait_queue_add+0x78>
8001c5c0:	00000000 	nop
8001c5c4:	3c028002 	lui	v0,0x8002
8001c5c8:	244442b0 	addiu	a0,v0,17072
8001c5cc:	24050015 	li	a1,21
8001c5d0:	3c028002 	lui	v0,0x8002
8001c5d4:	244642c4 	addiu	a2,v0,17092
8001c5d8:	3c028002 	lui	v0,0x8002
8001c5dc:	244742dc 	addiu	a3,v0,17116
8001c5e0:	0c004544 	jal	80011510 <__panic>
8001c5e4:	00000000 	nop
8001c5e8:	8fc2003c 	lw	v0,60(s8)
8001c5ec:	8fc30038 	lw	v1,56(s8)
8001c5f0:	ac430008 	sw	v1,8(v0)
8001c5f4:	8fc30038 	lw	v1,56(s8)
8001c5f8:	8fc2003c 	lw	v0,60(s8)
8001c5fc:	2442000c 	addiu	v0,v0,12
8001c600:	afc3001c 	sw	v1,28(s8)
8001c604:	afc20020 	sw	v0,32(s8)
8001c608:	8fc2001c 	lw	v0,28(s8)
8001c60c:	8c420000 	lw	v0,0(v0)
8001c610:	8fc30020 	lw	v1,32(s8)
8001c614:	afc30024 	sw	v1,36(s8)
8001c618:	afc20028 	sw	v0,40(s8)
8001c61c:	8fc2001c 	lw	v0,28(s8)
8001c620:	afc2002c 	sw	v0,44(s8)
8001c624:	8fc2002c 	lw	v0,44(s8)
8001c628:	8fc30024 	lw	v1,36(s8)
8001c62c:	ac430000 	sw	v1,0(v0)
8001c630:	8fc2002c 	lw	v0,44(s8)
8001c634:	8c430000 	lw	v1,0(v0)
8001c638:	8fc20028 	lw	v0,40(s8)
8001c63c:	ac430004 	sw	v1,4(v0)
8001c640:	8fc20024 	lw	v0,36(s8)
8001c644:	8fc3002c 	lw	v1,44(s8)
8001c648:	ac430004 	sw	v1,4(v0)
8001c64c:	8fc20024 	lw	v0,36(s8)
8001c650:	8fc30028 	lw	v1,40(s8)
8001c654:	ac430000 	sw	v1,0(v0)
8001c658:	03c0e821 	move	sp,s8
8001c65c:	8fbf0034 	lw	ra,52(sp)
8001c660:	8fbe0030 	lw	s8,48(sp)
8001c664:	27bd0038 	addiu	sp,sp,56
8001c668:	03e00008 	jr	ra
8001c66c:	00000000 	nop

8001c670 <wait_queue_del>:
8001c670:	27bdffc8 	addiu	sp,sp,-56
8001c674:	afbf0034 	sw	ra,52(sp)
8001c678:	afbe0030 	sw	s8,48(sp)
8001c67c:	03a0f021 	move	s8,sp
8001c680:	afc40038 	sw	a0,56(s8)
8001c684:	afc5003c 	sw	a1,60(s8)
8001c688:	8fc2003c 	lw	v0,60(s8)
8001c68c:	2442000c 	addiu	v0,v0,12
8001c690:	afc20018 	sw	v0,24(s8)
8001c694:	8fc20018 	lw	v0,24(s8)
8001c698:	8c430004 	lw	v1,4(v0)
8001c69c:	8fc20018 	lw	v0,24(s8)
8001c6a0:	00621026 	xor	v0,v1,v0
8001c6a4:	2c420001 	sltiu	v0,v0,1
8001c6a8:	304200ff 	andi	v0,v0,0xff
8001c6ac:	14400006 	bnez	v0,8001c6c8 <wait_queue_del+0x58>
8001c6b0:	00000000 	nop
8001c6b4:	8fc2003c 	lw	v0,60(s8)
8001c6b8:	8c430008 	lw	v1,8(v0)
8001c6bc:	8fc20038 	lw	v0,56(s8)
8001c6c0:	1062000a 	beq	v1,v0,8001c6ec <wait_queue_del+0x7c>
8001c6c4:	00000000 	nop
8001c6c8:	3c028002 	lui	v0,0x8002
8001c6cc:	244442b0 	addiu	a0,v0,17072
8001c6d0:	2405001c 	li	a1,28
8001c6d4:	3c028002 	lui	v0,0x8002
8001c6d8:	244642c4 	addiu	a2,v0,17092
8001c6dc:	3c028002 	lui	v0,0x8002
8001c6e0:	24474314 	addiu	a3,v0,17172
8001c6e4:	0c004544 	jal	80011510 <__panic>
8001c6e8:	00000000 	nop
8001c6ec:	8fc2003c 	lw	v0,60(s8)
8001c6f0:	2442000c 	addiu	v0,v0,12
8001c6f4:	afc2001c 	sw	v0,28(s8)
8001c6f8:	8fc2001c 	lw	v0,28(s8)
8001c6fc:	afc20020 	sw	v0,32(s8)
8001c700:	8fc20020 	lw	v0,32(s8)
8001c704:	8c430000 	lw	v1,0(v0)
8001c708:	8fc20020 	lw	v0,32(s8)
8001c70c:	8c420004 	lw	v0,4(v0)
8001c710:	afc30024 	sw	v1,36(s8)
8001c714:	afc20028 	sw	v0,40(s8)
8001c718:	8fc20024 	lw	v0,36(s8)
8001c71c:	8fc30028 	lw	v1,40(s8)
8001c720:	ac430004 	sw	v1,4(v0)
8001c724:	8fc20028 	lw	v0,40(s8)
8001c728:	8fc30024 	lw	v1,36(s8)
8001c72c:	ac430000 	sw	v1,0(v0)
8001c730:	8fc2001c 	lw	v0,28(s8)
8001c734:	afc2002c 	sw	v0,44(s8)
8001c738:	8fc2002c 	lw	v0,44(s8)
8001c73c:	8fc3002c 	lw	v1,44(s8)
8001c740:	ac430004 	sw	v1,4(v0)
8001c744:	8fc2002c 	lw	v0,44(s8)
8001c748:	8c430004 	lw	v1,4(v0)
8001c74c:	8fc2002c 	lw	v0,44(s8)
8001c750:	ac430000 	sw	v1,0(v0)
8001c754:	03c0e821 	move	sp,s8
8001c758:	8fbf0034 	lw	ra,52(sp)
8001c75c:	8fbe0030 	lw	s8,48(sp)
8001c760:	27bd0038 	addiu	sp,sp,56
8001c764:	03e00008 	jr	ra
8001c768:	00000000 	nop

8001c76c <wait_queue_next>:
8001c76c:	27bdffd0 	addiu	sp,sp,-48
8001c770:	afbf002c 	sw	ra,44(sp)
8001c774:	afbe0028 	sw	s8,40(sp)
8001c778:	03a0f021 	move	s8,sp
8001c77c:	afc40030 	sw	a0,48(s8)
8001c780:	afc50034 	sw	a1,52(s8)
8001c784:	8fc20034 	lw	v0,52(s8)
8001c788:	2442000c 	addiu	v0,v0,12
8001c78c:	afc2001c 	sw	v0,28(s8)
8001c790:	8fc2001c 	lw	v0,28(s8)
8001c794:	8c430004 	lw	v1,4(v0)
8001c798:	8fc2001c 	lw	v0,28(s8)
8001c79c:	00621026 	xor	v0,v1,v0
8001c7a0:	2c420001 	sltiu	v0,v0,1
8001c7a4:	304200ff 	andi	v0,v0,0xff
8001c7a8:	14400006 	bnez	v0,8001c7c4 <wait_queue_next+0x58>
8001c7ac:	00000000 	nop
8001c7b0:	8fc20034 	lw	v0,52(s8)
8001c7b4:	8c430008 	lw	v1,8(v0)
8001c7b8:	8fc20030 	lw	v0,48(s8)
8001c7bc:	1062000a 	beq	v1,v0,8001c7e8 <wait_queue_next+0x7c>
8001c7c0:	00000000 	nop
8001c7c4:	3c028002 	lui	v0,0x8002
8001c7c8:	244442b0 	addiu	a0,v0,17072
8001c7cc:	24050022 	li	a1,34
8001c7d0:	3c028002 	lui	v0,0x8002
8001c7d4:	244642c4 	addiu	a2,v0,17092
8001c7d8:	3c028002 	lui	v0,0x8002
8001c7dc:	24474314 	addiu	a3,v0,17172
8001c7e0:	0c004544 	jal	80011510 <__panic>
8001c7e4:	00000000 	nop
8001c7e8:	8fc20034 	lw	v0,52(s8)
8001c7ec:	2442000c 	addiu	v0,v0,12
8001c7f0:	afc20020 	sw	v0,32(s8)
8001c7f4:	8fc20020 	lw	v0,32(s8)
8001c7f8:	8c420004 	lw	v0,4(v0)
8001c7fc:	afc20018 	sw	v0,24(s8)
8001c800:	8fc30030 	lw	v1,48(s8)
8001c804:	8fc20018 	lw	v0,24(s8)
8001c808:	10620005 	beq	v1,v0,8001c820 <wait_queue_next+0xb4>
8001c80c:	00000000 	nop
8001c810:	8fc20018 	lw	v0,24(s8)
8001c814:	2442fff4 	addiu	v0,v0,-12
8001c818:	08007209 	j	8001c824 <wait_queue_next+0xb8>
8001c81c:	00000000 	nop
8001c820:	00001021 	move	v0,zero
8001c824:	03c0e821 	move	sp,s8
8001c828:	8fbf002c 	lw	ra,44(sp)
8001c82c:	8fbe0028 	lw	s8,40(sp)
8001c830:	27bd0030 	addiu	sp,sp,48
8001c834:	03e00008 	jr	ra
8001c838:	00000000 	nop

8001c83c <wait_queue_prev>:
8001c83c:	27bdffd0 	addiu	sp,sp,-48
8001c840:	afbf002c 	sw	ra,44(sp)
8001c844:	afbe0028 	sw	s8,40(sp)
8001c848:	03a0f021 	move	s8,sp
8001c84c:	afc40030 	sw	a0,48(s8)
8001c850:	afc50034 	sw	a1,52(s8)
8001c854:	8fc20034 	lw	v0,52(s8)
8001c858:	2442000c 	addiu	v0,v0,12
8001c85c:	afc2001c 	sw	v0,28(s8)
8001c860:	8fc2001c 	lw	v0,28(s8)
8001c864:	8c430004 	lw	v1,4(v0)
8001c868:	8fc2001c 	lw	v0,28(s8)
8001c86c:	00621026 	xor	v0,v1,v0
8001c870:	2c420001 	sltiu	v0,v0,1
8001c874:	304200ff 	andi	v0,v0,0xff
8001c878:	14400006 	bnez	v0,8001c894 <wait_queue_prev+0x58>
8001c87c:	00000000 	nop
8001c880:	8fc20034 	lw	v0,52(s8)
8001c884:	8c430008 	lw	v1,8(v0)
8001c888:	8fc20030 	lw	v0,48(s8)
8001c88c:	1062000a 	beq	v1,v0,8001c8b8 <wait_queue_prev+0x7c>
8001c890:	00000000 	nop
8001c894:	3c028002 	lui	v0,0x8002
8001c898:	244442b0 	addiu	a0,v0,17072
8001c89c:	2405002c 	li	a1,44
8001c8a0:	3c028002 	lui	v0,0x8002
8001c8a4:	244642c4 	addiu	a2,v0,17092
8001c8a8:	3c028002 	lui	v0,0x8002
8001c8ac:	24474314 	addiu	a3,v0,17172
8001c8b0:	0c004544 	jal	80011510 <__panic>
8001c8b4:	00000000 	nop
8001c8b8:	8fc20034 	lw	v0,52(s8)
8001c8bc:	2442000c 	addiu	v0,v0,12
8001c8c0:	afc20020 	sw	v0,32(s8)
8001c8c4:	8fc20020 	lw	v0,32(s8)
8001c8c8:	8c420000 	lw	v0,0(v0)
8001c8cc:	afc20018 	sw	v0,24(s8)
8001c8d0:	8fc30030 	lw	v1,48(s8)
8001c8d4:	8fc20018 	lw	v0,24(s8)
8001c8d8:	10620005 	beq	v1,v0,8001c8f0 <wait_queue_prev+0xb4>
8001c8dc:	00000000 	nop
8001c8e0:	8fc20018 	lw	v0,24(s8)
8001c8e4:	2442fff4 	addiu	v0,v0,-12
8001c8e8:	0800723d 	j	8001c8f4 <wait_queue_prev+0xb8>
8001c8ec:	00000000 	nop
8001c8f0:	00001021 	move	v0,zero
8001c8f4:	03c0e821 	move	sp,s8
8001c8f8:	8fbf002c 	lw	ra,44(sp)
8001c8fc:	8fbe0028 	lw	s8,40(sp)
8001c900:	27bd0030 	addiu	sp,sp,48
8001c904:	03e00008 	jr	ra
8001c908:	00000000 	nop

8001c90c <wait_queue_first>:
8001c90c:	27bdffe8 	addiu	sp,sp,-24
8001c910:	afbe0014 	sw	s8,20(sp)
8001c914:	03a0f021 	move	s8,sp
8001c918:	afc40018 	sw	a0,24(s8)
8001c91c:	8fc20018 	lw	v0,24(s8)
8001c920:	afc2000c 	sw	v0,12(s8)
8001c924:	8fc2000c 	lw	v0,12(s8)
8001c928:	8c420004 	lw	v0,4(v0)
8001c92c:	afc20008 	sw	v0,8(s8)
8001c930:	8fc30018 	lw	v1,24(s8)
8001c934:	8fc20008 	lw	v0,8(s8)
8001c938:	10620005 	beq	v1,v0,8001c950 <wait_queue_first+0x44>
8001c93c:	00000000 	nop
8001c940:	8fc20008 	lw	v0,8(s8)
8001c944:	2442fff4 	addiu	v0,v0,-12
8001c948:	08007255 	j	8001c954 <wait_queue_first+0x48>
8001c94c:	00000000 	nop
8001c950:	00001021 	move	v0,zero
8001c954:	03c0e821 	move	sp,s8
8001c958:	8fbe0014 	lw	s8,20(sp)
8001c95c:	27bd0018 	addiu	sp,sp,24
8001c960:	03e00008 	jr	ra
8001c964:	00000000 	nop

8001c968 <wait_queue_last>:
8001c968:	27bdffe8 	addiu	sp,sp,-24
8001c96c:	afbe0014 	sw	s8,20(sp)
8001c970:	03a0f021 	move	s8,sp
8001c974:	afc40018 	sw	a0,24(s8)
8001c978:	8fc20018 	lw	v0,24(s8)
8001c97c:	afc2000c 	sw	v0,12(s8)
8001c980:	8fc2000c 	lw	v0,12(s8)
8001c984:	8c420000 	lw	v0,0(v0)
8001c988:	afc20008 	sw	v0,8(s8)
8001c98c:	8fc30018 	lw	v1,24(s8)
8001c990:	8fc20008 	lw	v0,8(s8)
8001c994:	10620005 	beq	v1,v0,8001c9ac <wait_queue_last+0x44>
8001c998:	00000000 	nop
8001c99c:	8fc20008 	lw	v0,8(s8)
8001c9a0:	2442fff4 	addiu	v0,v0,-12
8001c9a4:	0800726c 	j	8001c9b0 <wait_queue_last+0x48>
8001c9a8:	00000000 	nop
8001c9ac:	00001021 	move	v0,zero
8001c9b0:	03c0e821 	move	sp,s8
8001c9b4:	8fbe0014 	lw	s8,20(sp)
8001c9b8:	27bd0018 	addiu	sp,sp,24
8001c9bc:	03e00008 	jr	ra
8001c9c0:	00000000 	nop

8001c9c4 <wait_queue_empty>:
8001c9c4:	27bdffe8 	addiu	sp,sp,-24
8001c9c8:	afbe0014 	sw	s8,20(sp)
8001c9cc:	03a0f021 	move	s8,sp
8001c9d0:	afc40018 	sw	a0,24(s8)
8001c9d4:	8fc20018 	lw	v0,24(s8)
8001c9d8:	afc20008 	sw	v0,8(s8)
8001c9dc:	8fc20008 	lw	v0,8(s8)
8001c9e0:	8c430004 	lw	v1,4(v0)
8001c9e4:	8fc20008 	lw	v0,8(s8)
8001c9e8:	00621026 	xor	v0,v1,v0
8001c9ec:	2c420001 	sltiu	v0,v0,1
8001c9f0:	304200ff 	andi	v0,v0,0xff
8001c9f4:	03c0e821 	move	sp,s8
8001c9f8:	8fbe0014 	lw	s8,20(sp)
8001c9fc:	27bd0018 	addiu	sp,sp,24
8001ca00:	03e00008 	jr	ra
8001ca04:	00000000 	nop

8001ca08 <wait_in_queue>:
8001ca08:	27bdffe8 	addiu	sp,sp,-24
8001ca0c:	afbe0014 	sw	s8,20(sp)
8001ca10:	03a0f021 	move	s8,sp
8001ca14:	afc40018 	sw	a0,24(s8)
8001ca18:	8fc20018 	lw	v0,24(s8)
8001ca1c:	2442000c 	addiu	v0,v0,12
8001ca20:	afc20008 	sw	v0,8(s8)
8001ca24:	8fc20008 	lw	v0,8(s8)
8001ca28:	8c430004 	lw	v1,4(v0)
8001ca2c:	8fc20008 	lw	v0,8(s8)
8001ca30:	00621026 	xor	v0,v1,v0
8001ca34:	2c420001 	sltiu	v0,v0,1
8001ca38:	304200ff 	andi	v0,v0,0xff
8001ca3c:	2c420001 	sltiu	v0,v0,1
8001ca40:	304200ff 	andi	v0,v0,0xff
8001ca44:	03c0e821 	move	sp,s8
8001ca48:	8fbe0014 	lw	s8,20(sp)
8001ca4c:	27bd0018 	addiu	sp,sp,24
8001ca50:	03e00008 	jr	ra
8001ca54:	00000000 	nop

8001ca58 <wakeup_wait>:
8001ca58:	27bdffe0 	addiu	sp,sp,-32
8001ca5c:	afbf001c 	sw	ra,28(sp)
8001ca60:	afbe0018 	sw	s8,24(sp)
8001ca64:	03a0f021 	move	s8,sp
8001ca68:	afc40020 	sw	a0,32(s8)
8001ca6c:	afc50024 	sw	a1,36(s8)
8001ca70:	afc60028 	sw	a2,40(s8)
8001ca74:	afc7002c 	sw	a3,44(s8)
8001ca78:	8fc2002c 	lw	v0,44(s8)
8001ca7c:	10400005 	beqz	v0,8001ca94 <wakeup_wait+0x3c>
8001ca80:	00000000 	nop
8001ca84:	8fc40020 	lw	a0,32(s8)
8001ca88:	8fc50024 	lw	a1,36(s8)
8001ca8c:	0c00719c 	jal	8001c670 <wait_queue_del>
8001ca90:	00000000 	nop
8001ca94:	8fc20024 	lw	v0,36(s8)
8001ca98:	8fc30028 	lw	v1,40(s8)
8001ca9c:	ac430004 	sw	v1,4(v0)
8001caa0:	8fc20024 	lw	v0,36(s8)
8001caa4:	8c420000 	lw	v0,0(v0)
8001caa8:	00402021 	move	a0,v0
8001caac:	0c007f64 	jal	8001fd90 <wakeup_proc>
8001cab0:	00000000 	nop
8001cab4:	03c0e821 	move	sp,s8
8001cab8:	8fbf001c 	lw	ra,28(sp)
8001cabc:	8fbe0018 	lw	s8,24(sp)
8001cac0:	27bd0020 	addiu	sp,sp,32
8001cac4:	03e00008 	jr	ra
8001cac8:	00000000 	nop

8001cacc <wakeup_first>:
8001cacc:	27bdffd8 	addiu	sp,sp,-40
8001cad0:	afbf0024 	sw	ra,36(sp)
8001cad4:	afbe0020 	sw	s8,32(sp)
8001cad8:	03a0f021 	move	s8,sp
8001cadc:	afc40028 	sw	a0,40(s8)
8001cae0:	afc5002c 	sw	a1,44(s8)
8001cae4:	afc60030 	sw	a2,48(s8)
8001cae8:	8fc40028 	lw	a0,40(s8)
8001caec:	0c007243 	jal	8001c90c <wait_queue_first>
8001caf0:	00000000 	nop
8001caf4:	afc20018 	sw	v0,24(s8)
8001caf8:	8fc20018 	lw	v0,24(s8)
8001cafc:	10400007 	beqz	v0,8001cb1c <wakeup_first+0x50>
8001cb00:	00000000 	nop
8001cb04:	8fc40028 	lw	a0,40(s8)
8001cb08:	8fc50018 	lw	a1,24(s8)
8001cb0c:	8fc6002c 	lw	a2,44(s8)
8001cb10:	8fc70030 	lw	a3,48(s8)
8001cb14:	0c007296 	jal	8001ca58 <wakeup_wait>
8001cb18:	00000000 	nop
8001cb1c:	03c0e821 	move	sp,s8
8001cb20:	8fbf0024 	lw	ra,36(sp)
8001cb24:	8fbe0020 	lw	s8,32(sp)
8001cb28:	27bd0028 	addiu	sp,sp,40
8001cb2c:	03e00008 	jr	ra
8001cb30:	00000000 	nop

8001cb34 <wakeup_queue>:
8001cb34:	27bdffd8 	addiu	sp,sp,-40
8001cb38:	afbf0024 	sw	ra,36(sp)
8001cb3c:	afbe0020 	sw	s8,32(sp)
8001cb40:	03a0f021 	move	s8,sp
8001cb44:	afc40028 	sw	a0,40(s8)
8001cb48:	afc5002c 	sw	a1,44(s8)
8001cb4c:	afc60030 	sw	a2,48(s8)
8001cb50:	8fc40028 	lw	a0,40(s8)
8001cb54:	0c007243 	jal	8001c90c <wait_queue_first>
8001cb58:	00000000 	nop
8001cb5c:	afc20018 	sw	v0,24(s8)
8001cb60:	8fc20018 	lw	v0,24(s8)
8001cb64:	10400021 	beqz	v0,8001cbec <wakeup_queue+0xb8>
8001cb68:	00000000 	nop
8001cb6c:	8fc20030 	lw	v0,48(s8)
8001cb70:	10400010 	beqz	v0,8001cbb4 <wakeup_queue+0x80>
8001cb74:	00000000 	nop
8001cb78:	8fc40028 	lw	a0,40(s8)
8001cb7c:	8fc50018 	lw	a1,24(s8)
8001cb80:	8fc6002c 	lw	a2,44(s8)
8001cb84:	24070001 	li	a3,1
8001cb88:	0c007296 	jal	8001ca58 <wakeup_wait>
8001cb8c:	00000000 	nop
8001cb90:	8fc40028 	lw	a0,40(s8)
8001cb94:	0c007243 	jal	8001c90c <wait_queue_first>
8001cb98:	00000000 	nop
8001cb9c:	afc20018 	sw	v0,24(s8)
8001cba0:	8fc20018 	lw	v0,24(s8)
8001cba4:	1440fff4 	bnez	v0,8001cb78 <wakeup_queue+0x44>
8001cba8:	00000000 	nop
8001cbac:	080072fb 	j	8001cbec <wakeup_queue+0xb8>
8001cbb0:	00000000 	nop
8001cbb4:	8fc40028 	lw	a0,40(s8)
8001cbb8:	8fc50018 	lw	a1,24(s8)
8001cbbc:	8fc6002c 	lw	a2,44(s8)
8001cbc0:	00003821 	move	a3,zero
8001cbc4:	0c007296 	jal	8001ca58 <wakeup_wait>
8001cbc8:	00000000 	nop
8001cbcc:	8fc40028 	lw	a0,40(s8)
8001cbd0:	8fc50018 	lw	a1,24(s8)
8001cbd4:	0c0071db 	jal	8001c76c <wait_queue_next>
8001cbd8:	00000000 	nop
8001cbdc:	afc20018 	sw	v0,24(s8)
8001cbe0:	8fc20018 	lw	v0,24(s8)
8001cbe4:	1440fff3 	bnez	v0,8001cbb4 <wakeup_queue+0x80>
8001cbe8:	00000000 	nop
8001cbec:	03c0e821 	move	sp,s8
8001cbf0:	8fbf0024 	lw	ra,36(sp)
8001cbf4:	8fbe0020 	lw	s8,32(sp)
8001cbf8:	27bd0028 	addiu	sp,sp,40
8001cbfc:	03e00008 	jr	ra
8001cc00:	00000000 	nop

8001cc04 <wait_current_set>:
8001cc04:	27bdffe0 	addiu	sp,sp,-32
8001cc08:	afbf001c 	sw	ra,28(sp)
8001cc0c:	afbe0018 	sw	s8,24(sp)
8001cc10:	03a0f021 	move	s8,sp
8001cc14:	afc40020 	sw	a0,32(s8)
8001cc18:	afc50024 	sw	a1,36(s8)
8001cc1c:	afc60028 	sw	a2,40(s8)
8001cc20:	3c028036 	lui	v0,0x8036
8001cc24:	8c420078 	lw	v0,120(v0)
8001cc28:	1440000a 	bnez	v0,8001cc54 <wait_current_set+0x50>
8001cc2c:	00000000 	nop
8001cc30:	3c028002 	lui	v0,0x8002
8001cc34:	244442b0 	addiu	a0,v0,17072
8001cc38:	24050074 	li	a1,116
8001cc3c:	3c028002 	lui	v0,0x8002
8001cc40:	244642c4 	addiu	a2,v0,17092
8001cc44:	3c028002 	lui	v0,0x8002
8001cc48:	24474354 	addiu	a3,v0,17236
8001cc4c:	0c004544 	jal	80011510 <__panic>
8001cc50:	00000000 	nop
8001cc54:	3c028036 	lui	v0,0x8036
8001cc58:	8c420078 	lw	v0,120(v0)
8001cc5c:	8fc40024 	lw	a0,36(s8)
8001cc60:	00402821 	move	a1,v0
8001cc64:	0c007130 	jal	8001c4c0 <wait_init>
8001cc68:	00000000 	nop
8001cc6c:	3c028036 	lui	v0,0x8036
8001cc70:	8c420078 	lw	v0,120(v0)
8001cc74:	24030001 	li	v1,1
8001cc78:	ac430000 	sw	v1,0(v0)
8001cc7c:	3c028036 	lui	v0,0x8036
8001cc80:	8c420078 	lw	v0,120(v0)
8001cc84:	8fc30028 	lw	v1,40(s8)
8001cc88:	ac4300a0 	sw	v1,160(v0)
8001cc8c:	8fc40020 	lw	a0,32(s8)
8001cc90:	8fc50024 	lw	a1,36(s8)
8001cc94:	0c00715c 	jal	8001c570 <wait_queue_add>
8001cc98:	00000000 	nop
8001cc9c:	03c0e821 	move	sp,s8
8001cca0:	8fbf001c 	lw	ra,28(sp)
8001cca4:	8fbe0018 	lw	s8,24(sp)
8001cca8:	27bd0020 	addiu	sp,sp,32
8001ccac:	03e00008 	jr	ra
8001ccb0:	00000000 	nop
	...

8001ccc0 <swapfs_init>:
8001ccc0:	27bdffe0 	addiu	sp,sp,-32
8001ccc4:	afbf001c 	sw	ra,28(sp)
8001ccc8:	afbe0018 	sw	s8,24(sp)
8001cccc:	03a0f021 	move	s8,sp
8001ccd0:	3c028036 	lui	v0,0x8036
8001ccd4:	24030400 	li	v1,1024
8001ccd8:	ac4322ac 	sw	v1,8876(v0)
8001ccdc:	3c028036 	lui	v0,0x8036
8001cce0:	8c42f590 	lw	v0,-2672(v0)
8001cce4:	00402021 	move	a0,v0
8001cce8:	0c007381 	jal	8001ce04 <swapfs_clean>
8001ccec:	00000000 	nop
8001ccf0:	03c0e821 	move	sp,s8
8001ccf4:	8fbf001c 	lw	ra,28(sp)
8001ccf8:	8fbe0018 	lw	s8,24(sp)
8001ccfc:	27bd0020 	addiu	sp,sp,32
8001cd00:	03e00008 	jr	ra
8001cd04:	00000000 	nop

8001cd08 <swapfs_read>:
8001cd08:	27bdfff8 	addiu	sp,sp,-8
8001cd0c:	afbe0004 	sw	s8,4(sp)
8001cd10:	03a0f021 	move	s8,sp
8001cd14:	afc40008 	sw	a0,8(s8)
8001cd18:	afc5000c 	sw	a1,12(s8)
8001cd1c:	00001021 	move	v0,zero
8001cd20:	03c0e821 	move	sp,s8
8001cd24:	8fbe0004 	lw	s8,4(sp)
8001cd28:	27bd0008 	addiu	sp,sp,8
8001cd2c:	03e00008 	jr	ra
8001cd30:	00000000 	nop

8001cd34 <swapfs_write>:
8001cd34:	27bdffd8 	addiu	sp,sp,-40
8001cd38:	afbf0024 	sw	ra,36(sp)
8001cd3c:	afbe0020 	sw	s8,32(sp)
8001cd40:	03a0f021 	move	s8,sp
8001cd44:	afc40028 	sw	a0,40(s8)
8001cd48:	afc5002c 	sw	a1,44(s8)
8001cd4c:	3c02be42 	lui	v0,0xbe42
8001cd50:	34421000 	ori	v0,v0,0x1000
8001cd54:	afc20018 	sw	v0,24(s8)
8001cd58:	8fc20028 	lw	v0,40(s8)
8001cd5c:	1440000a 	bnez	v0,8001cd88 <swapfs_write+0x54>
8001cd60:	00000000 	nop
8001cd64:	3c028002 	lui	v0,0x8002
8001cd68:	24444370 	addiu	a0,v0,17264
8001cd6c:	24050036 	li	a1,54
8001cd70:	3c028002 	lui	v0,0x8002
8001cd74:	24464384 	addiu	a2,v0,17284
8001cd78:	3c028002 	lui	v0,0x8002
8001cd7c:	2447439c 	addiu	a3,v0,17308
8001cd80:	0c004544 	jal	80011510 <__panic>
8001cd84:	00000000 	nop
8001cd88:	8fc30018 	lw	v1,24(s8)
8001cd8c:	3c020001 	lui	v0,0x1
8001cd90:	3442f000 	ori	v0,v0,0xf000
8001cd94:	00621824 	and	v1,v1,v0
8001cd98:	3c028036 	lui	v0,0x8036
8001cd9c:	8c42f590 	lw	v0,-2672(v0)
8001cda0:	00621825 	or	v1,v1,v0
8001cda4:	8fc20028 	lw	v0,40(s8)
8001cda8:	8c420000 	lw	v0,0(v0)
8001cdac:	30420006 	andi	v0,v0,0x6
8001cdb0:	00621825 	or	v1,v1,v0
8001cdb4:	8fc20028 	lw	v0,40(s8)
8001cdb8:	ac430000 	sw	v1,0(v0)
8001cdbc:	8fc30018 	lw	v1,24(s8)
8001cdc0:	3c02ff7e 	lui	v0,0xff7e
8001cdc4:	00621024 	and	v0,v1,v0
8001cdc8:	00402021 	move	a0,v0
8001cdcc:	0c007381 	jal	8001ce04 <swapfs_clean>
8001cdd0:	00000000 	nop
8001cdd4:	8fc30018 	lw	v1,24(s8)
8001cdd8:	3c02ff7e 	lui	v0,0xff7e
8001cddc:	00621824 	and	v1,v1,v0
8001cde0:	3c028036 	lui	v0,0x8036
8001cde4:	ac43f590 	sw	v1,-2672(v0)
8001cde8:	00001021 	move	v0,zero
8001cdec:	03c0e821 	move	sp,s8
8001cdf0:	8fbf0024 	lw	ra,36(sp)
8001cdf4:	8fbe0020 	lw	s8,32(sp)
8001cdf8:	27bd0028 	addiu	sp,sp,40
8001cdfc:	03e00008 	jr	ra
8001ce00:	00000000 	nop

8001ce04 <swapfs_clean>:
8001ce04:	27bdffe0 	addiu	sp,sp,-32
8001ce08:	afbf001c 	sw	ra,28(sp)
8001ce0c:	afbe0018 	sw	s8,24(sp)
8001ce10:	03a0f021 	move	s8,sp
8001ce14:	afc40020 	sw	a0,32(s8)
8001ce18:	8fc30020 	lw	v1,32(s8)
8001ce1c:	3c02ff7e 	lui	v0,0xff7e
8001ce20:	00621824 	and	v1,v1,v0
8001ce24:	8fc20020 	lw	v0,32(s8)
8001ce28:	1062000a 	beq	v1,v0,8001ce54 <swapfs_clean+0x50>
8001ce2c:	00000000 	nop
8001ce30:	3c028002 	lui	v0,0x8002
8001ce34:	24444370 	addiu	a0,v0,17264
8001ce38:	2405003e 	li	a1,62
8001ce3c:	3c028002 	lui	v0,0x8002
8001ce40:	24464384 	addiu	a2,v0,17284
8001ce44:	3c028002 	lui	v0,0x8002
8001ce48:	244743ac 	addiu	a3,v0,17324
8001ce4c:	0c004544 	jal	80011510 <__panic>
8001ce50:	00000000 	nop
8001ce54:	03c0e821 	move	sp,s8
8001ce58:	8fbf001c 	lw	ra,28(sp)
8001ce5c:	8fbe0018 	lw	s8,24(sp)
8001ce60:	27bd0020 	addiu	sp,sp,32
8001ce64:	03e00008 	jr	ra
8001ce68:	00000000 	nop
8001ce6c:	00000000 	nop

8001ce70 <kernel_thread_entry>:
8001ce70:	27bdfff0 03a0f021 00a0f809 00000000     ...'!...........
8001ce80:	00402021 0c007847 00000000 00000000     ! @.Gx..........

8001ce90 <kernel_execve>:
8001ce90:	03e0a021 03c0a821 00808021 00a08821     !...!...!...!...
8001cea0:	00c09021 27bdfff0 03a0f021 0c0085d4     !......'!.......
8001ceb0:	00000000 02002021 00402821 02203021     ....! ..!(@.!0 .
8001cec0:	02403821 24020004 0000000c 27bd0010     !8@....$.......'
8001ced0:	0280f821 02a0f021 03e00008 00000000     !...!...........

8001cee0 <__intr_save>:
8001cee0:	27bdffd8 	addiu	sp,sp,-40
8001cee4:	afbf0024 	sw	ra,36(sp)
8001cee8:	afbe0020 	sw	s8,32(sp)
8001ceec:	03a0f021 	move	s8,sp
8001cef0:	40026000 	mfc0	v0,c0_status
8001cef4:	afc20018 	sw	v0,24(s8)
8001cef8:	8fc20018 	lw	v0,24(s8)
8001cefc:	30420001 	andi	v0,v0,0x1
8001cf00:	10400006 	beqz	v0,8001cf1c <__intr_save+0x3c>
8001cf04:	00000000 	nop
8001cf08:	0c0046d7 	jal	80011b5c <intr_disable>
8001cf0c:	00000000 	nop
8001cf10:	24020001 	li	v0,1
8001cf14:	080073c8 	j	8001cf20 <__intr_save+0x40>
8001cf18:	00000000 	nop
8001cf1c:	00001021 	move	v0,zero
8001cf20:	03c0e821 	move	sp,s8
8001cf24:	8fbf0024 	lw	ra,36(sp)
8001cf28:	8fbe0020 	lw	s8,32(sp)
8001cf2c:	27bd0028 	addiu	sp,sp,40
8001cf30:	03e00008 	jr	ra
8001cf34:	00000000 	nop

8001cf38 <__intr_restore>:
8001cf38:	27bdffe0 	addiu	sp,sp,-32
8001cf3c:	afbf001c 	sw	ra,28(sp)
8001cf40:	afbe0018 	sw	s8,24(sp)
8001cf44:	03a0f021 	move	s8,sp
8001cf48:	afc40020 	sw	a0,32(s8)
8001cf4c:	8fc20020 	lw	v0,32(s8)
8001cf50:	10400003 	beqz	v0,8001cf60 <__intr_restore+0x28>
8001cf54:	00000000 	nop
8001cf58:	0c0046c8 	jal	80011b20 <intr_enable>
8001cf5c:	00000000 	nop
8001cf60:	03c0e821 	move	sp,s8
8001cf64:	8fbf001c 	lw	ra,28(sp)
8001cf68:	8fbe0018 	lw	s8,24(sp)
8001cf6c:	27bd0020 	addiu	sp,sp,32
8001cf70:	03e00008 	jr	ra
8001cf74:	00000000 	nop

8001cf78 <timer_init>:
8001cf78:	27bdffe8 	addiu	sp,sp,-24
8001cf7c:	afbe0014 	sw	s8,20(sp)
8001cf80:	03a0f021 	move	s8,sp
8001cf84:	afc40018 	sw	a0,24(s8)
8001cf88:	afc5001c 	sw	a1,28(s8)
8001cf8c:	afc60020 	sw	a2,32(s8)
8001cf90:	8fc30020 	lw	v1,32(s8)
8001cf94:	8fc20018 	lw	v0,24(s8)
8001cf98:	ac430000 	sw	v1,0(v0)
8001cf9c:	8fc20018 	lw	v0,24(s8)
8001cfa0:	8fc3001c 	lw	v1,28(s8)
8001cfa4:	ac430004 	sw	v1,4(v0)
8001cfa8:	8fc20018 	lw	v0,24(s8)
8001cfac:	24420008 	addiu	v0,v0,8
8001cfb0:	afc20008 	sw	v0,8(s8)
8001cfb4:	8fc20008 	lw	v0,8(s8)
8001cfb8:	8fc30008 	lw	v1,8(s8)
8001cfbc:	ac430004 	sw	v1,4(v0)
8001cfc0:	8fc20008 	lw	v0,8(s8)
8001cfc4:	8c430004 	lw	v1,4(v0)
8001cfc8:	8fc20008 	lw	v0,8(s8)
8001cfcc:	ac430000 	sw	v1,0(v0)
8001cfd0:	8fc20018 	lw	v0,24(s8)
8001cfd4:	03c0e821 	move	sp,s8
8001cfd8:	8fbe0014 	lw	s8,20(sp)
8001cfdc:	27bd0018 	addiu	sp,sp,24
8001cfe0:	03e00008 	jr	ra
8001cfe4:	00000000 	nop

8001cfe8 <page2ppn>:
8001cfe8:	27bdfff8 	addiu	sp,sp,-8
8001cfec:	afbe0004 	sw	s8,4(sp)
8001cff0:	03a0f021 	move	s8,sp
8001cff4:	afc40008 	sw	a0,8(s8)
8001cff8:	8fc30008 	lw	v1,8(s8)
8001cffc:	3c028036 	lui	v0,0x8036
8001d000:	8c4222a8 	lw	v0,8872(v0)
8001d004:	00621023 	subu	v0,v1,v0
8001d008:	00021143 	sra	v0,v0,0x5
8001d00c:	03c0e821 	move	sp,s8
8001d010:	8fbe0004 	lw	s8,4(sp)
8001d014:	27bd0008 	addiu	sp,sp,8
8001d018:	03e00008 	jr	ra
8001d01c:	00000000 	nop

8001d020 <page2pa>:
8001d020:	27bdffe0 	addiu	sp,sp,-32
8001d024:	afbf001c 	sw	ra,28(sp)
8001d028:	afbe0018 	sw	s8,24(sp)
8001d02c:	03a0f021 	move	s8,sp
8001d030:	afc40020 	sw	a0,32(s8)
8001d034:	8fc40020 	lw	a0,32(s8)
8001d038:	0c0073fa 	jal	8001cfe8 <page2ppn>
8001d03c:	00000000 	nop
8001d040:	00021300 	sll	v0,v0,0xc
8001d044:	03c0e821 	move	sp,s8
8001d048:	8fbf001c 	lw	ra,28(sp)
8001d04c:	8fbe0018 	lw	s8,24(sp)
8001d050:	27bd0020 	addiu	sp,sp,32
8001d054:	03e00008 	jr	ra
8001d058:	00000000 	nop

8001d05c <pa2page>:
8001d05c:	27bdffe0 	addiu	sp,sp,-32
8001d060:	afbf001c 	sw	ra,28(sp)
8001d064:	afbe0018 	sw	s8,24(sp)
8001d068:	03a0f021 	move	s8,sp
8001d06c:	afc40020 	sw	a0,32(s8)
8001d070:	8fc20020 	lw	v0,32(s8)
8001d074:	00021b02 	srl	v1,v0,0xc
8001d078:	3c028036 	lui	v0,0x8036
8001d07c:	8c420030 	lw	v0,48(v0)
8001d080:	0062102b 	sltu	v0,v1,v0
8001d084:	14400008 	bnez	v0,8001d0a8 <pa2page+0x4c>
8001d088:	00000000 	nop
8001d08c:	3c028002 	lui	v0,0x8002
8001d090:	244443d0 	addiu	a0,v0,17360
8001d094:	2405005c 	li	a1,92
8001d098:	3c028002 	lui	v0,0x8002
8001d09c:	244643e0 	addiu	a2,v0,17376
8001d0a0:	0c004544 	jal	80011510 <__panic>
8001d0a4:	00000000 	nop
8001d0a8:	3c028036 	lui	v0,0x8036
8001d0ac:	8c4322a8 	lw	v1,8872(v0)
8001d0b0:	8fc20020 	lw	v0,32(s8)
8001d0b4:	00021302 	srl	v0,v0,0xc
8001d0b8:	00021140 	sll	v0,v0,0x5
8001d0bc:	00621021 	addu	v0,v1,v0
8001d0c0:	03c0e821 	move	sp,s8
8001d0c4:	8fbf001c 	lw	ra,28(sp)
8001d0c8:	8fbe0018 	lw	s8,24(sp)
8001d0cc:	27bd0020 	addiu	sp,sp,32
8001d0d0:	03e00008 	jr	ra
8001d0d4:	00000000 	nop

8001d0d8 <page2kva>:
8001d0d8:	27bdffd8 	addiu	sp,sp,-40
8001d0dc:	afbf0024 	sw	ra,36(sp)
8001d0e0:	afbe0020 	sw	s8,32(sp)
8001d0e4:	03a0f021 	move	s8,sp
8001d0e8:	afc40028 	sw	a0,40(s8)
8001d0ec:	8fc40028 	lw	a0,40(s8)
8001d0f0:	0c007408 	jal	8001d020 <page2pa>
8001d0f4:	00000000 	nop
8001d0f8:	afc20018 	sw	v0,24(s8)
8001d0fc:	8fc20018 	lw	v0,24(s8)
8001d100:	00021302 	srl	v0,v0,0xc
8001d104:	afc2001c 	sw	v0,28(s8)
8001d108:	3c028036 	lui	v0,0x8036
8001d10c:	8c420030 	lw	v0,48(v0)
8001d110:	8fc3001c 	lw	v1,28(s8)
8001d114:	0062102b 	sltu	v0,v1,v0
8001d118:	14400009 	bnez	v0,8001d140 <page2kva+0x68>
8001d11c:	00000000 	nop
8001d120:	3c028002 	lui	v0,0x8002
8001d124:	244443d0 	addiu	a0,v0,17360
8001d128:	24050063 	li	a1,99
8001d12c:	3c028002 	lui	v0,0x8002
8001d130:	24464400 	addiu	a2,v0,17408
8001d134:	8fc70018 	lw	a3,24(s8)
8001d138:	0c004544 	jal	80011510 <__panic>
8001d13c:	00000000 	nop
8001d140:	8fc30018 	lw	v1,24(s8)
8001d144:	3c028000 	lui	v0,0x8000
8001d148:	00621021 	addu	v0,v1,v0
8001d14c:	03c0e821 	move	sp,s8
8001d150:	8fbf0024 	lw	ra,36(sp)
8001d154:	8fbe0020 	lw	s8,32(sp)
8001d158:	27bd0028 	addiu	sp,sp,40
8001d15c:	03e00008 	jr	ra
8001d160:	00000000 	nop

8001d164 <kva2page>:
8001d164:	27bdffd8 	addiu	sp,sp,-40
8001d168:	afbf0024 	sw	ra,36(sp)
8001d16c:	afbe0020 	sw	s8,32(sp)
8001d170:	03a0f021 	move	s8,sp
8001d174:	afc40028 	sw	a0,40(s8)
8001d178:	8fc20028 	lw	v0,40(s8)
8001d17c:	afc20018 	sw	v0,24(s8)
8001d180:	8fc20018 	lw	v0,24(s8)
8001d184:	04400009 	bltz	v0,8001d1ac <kva2page+0x48>
8001d188:	00000000 	nop
8001d18c:	3c028002 	lui	v0,0x8002
8001d190:	244443d0 	addiu	a0,v0,17360
8001d194:	24050068 	li	a1,104
8001d198:	3c028002 	lui	v0,0x8002
8001d19c:	24464424 	addiu	a2,v0,17444
8001d1a0:	8fc70018 	lw	a3,24(s8)
8001d1a4:	0c004544 	jal	80011510 <__panic>
8001d1a8:	00000000 	nop
8001d1ac:	8fc30018 	lw	v1,24(s8)
8001d1b0:	3c028000 	lui	v0,0x8000
8001d1b4:	00621021 	addu	v0,v1,v0
8001d1b8:	00402021 	move	a0,v0
8001d1bc:	0c007417 	jal	8001d05c <pa2page>
8001d1c0:	00000000 	nop
8001d1c4:	03c0e821 	move	sp,s8
8001d1c8:	8fbf0024 	lw	ra,36(sp)
8001d1cc:	8fbe0020 	lw	s8,32(sp)
8001d1d0:	27bd0028 	addiu	sp,sp,40
8001d1d4:	03e00008 	jr	ra
8001d1d8:	00000000 	nop

8001d1dc <mm_count_inc>:
8001d1dc:	27bdfff8 	addiu	sp,sp,-8
8001d1e0:	afbe0004 	sw	s8,4(sp)
8001d1e4:	03a0f021 	move	s8,sp
8001d1e8:	afc40008 	sw	a0,8(s8)
8001d1ec:	8fc20008 	lw	v0,8(s8)
8001d1f0:	8c420018 	lw	v0,24(v0)
8001d1f4:	24430001 	addiu	v1,v0,1
8001d1f8:	8fc20008 	lw	v0,8(s8)
8001d1fc:	ac430018 	sw	v1,24(v0)
8001d200:	8fc20008 	lw	v0,8(s8)
8001d204:	8c420018 	lw	v0,24(v0)
8001d208:	03c0e821 	move	sp,s8
8001d20c:	8fbe0004 	lw	s8,4(sp)
8001d210:	27bd0008 	addiu	sp,sp,8
8001d214:	03e00008 	jr	ra
8001d218:	00000000 	nop

8001d21c <mm_count_dec>:
8001d21c:	27bdfff8 	addiu	sp,sp,-8
8001d220:	afbe0004 	sw	s8,4(sp)
8001d224:	03a0f021 	move	s8,sp
8001d228:	afc40008 	sw	a0,8(s8)
8001d22c:	8fc20008 	lw	v0,8(s8)
8001d230:	8c420018 	lw	v0,24(v0)
8001d234:	2443ffff 	addiu	v1,v0,-1
8001d238:	8fc20008 	lw	v0,8(s8)
8001d23c:	ac430018 	sw	v1,24(v0)
8001d240:	8fc20008 	lw	v0,8(s8)
8001d244:	8c420018 	lw	v0,24(v0)
8001d248:	03c0e821 	move	sp,s8
8001d24c:	8fbe0004 	lw	s8,4(sp)
8001d250:	27bd0008 	addiu	sp,sp,8
8001d254:	03e00008 	jr	ra
8001d258:	00000000 	nop

8001d25c <lock_mm>:
8001d25c:	27bdffe0 	addiu	sp,sp,-32
8001d260:	afbf001c 	sw	ra,28(sp)
8001d264:	afbe0018 	sw	s8,24(sp)
8001d268:	03a0f021 	move	s8,sp
8001d26c:	afc40020 	sw	a0,32(s8)
8001d270:	8fc20020 	lw	v0,32(s8)
8001d274:	1040000f 	beqz	v0,8001d2b4 <lock_mm+0x58>
8001d278:	00000000 	nop
8001d27c:	8fc20020 	lw	v0,32(s8)
8001d280:	2442001c 	addiu	v0,v0,28
8001d284:	00402021 	move	a0,v0
8001d288:	0c0070f5 	jal	8001c3d4 <down>
8001d28c:	00000000 	nop
8001d290:	3c028036 	lui	v0,0x8036
8001d294:	8c420078 	lw	v0,120(v0)
8001d298:	10400006 	beqz	v0,8001d2b4 <lock_mm+0x58>
8001d29c:	00000000 	nop
8001d2a0:	3c028036 	lui	v0,0x8036
8001d2a4:	8c420078 	lw	v0,120(v0)
8001d2a8:	8c430004 	lw	v1,4(v0)
8001d2ac:	8fc20020 	lw	v0,32(s8)
8001d2b0:	ac430028 	sw	v1,40(v0)
8001d2b4:	03c0e821 	move	sp,s8
8001d2b8:	8fbf001c 	lw	ra,28(sp)
8001d2bc:	8fbe0018 	lw	s8,24(sp)
8001d2c0:	27bd0020 	addiu	sp,sp,32
8001d2c4:	03e00008 	jr	ra
8001d2c8:	00000000 	nop

8001d2cc <unlock_mm>:
8001d2cc:	27bdffe0 	addiu	sp,sp,-32
8001d2d0:	afbf001c 	sw	ra,28(sp)
8001d2d4:	afbe0018 	sw	s8,24(sp)
8001d2d8:	03a0f021 	move	s8,sp
8001d2dc:	afc40020 	sw	a0,32(s8)
8001d2e0:	8fc20020 	lw	v0,32(s8)
8001d2e4:	10400008 	beqz	v0,8001d308 <unlock_mm+0x3c>
8001d2e8:	00000000 	nop
8001d2ec:	8fc20020 	lw	v0,32(s8)
8001d2f0:	2442001c 	addiu	v0,v0,28
8001d2f4:	00402021 	move	a0,v0
8001d2f8:	0c0070e6 	jal	8001c398 <up>
8001d2fc:	00000000 	nop
8001d300:	8fc20020 	lw	v0,32(s8)
8001d304:	ac400028 	sw	zero,40(v0)
8001d308:	03c0e821 	move	sp,s8
8001d30c:	8fbf001c 	lw	ra,28(sp)
8001d310:	8fbe0018 	lw	s8,24(sp)
8001d314:	27bd0020 	addiu	sp,sp,32
8001d318:	03e00008 	jr	ra
8001d31c:	00000000 	nop

8001d320 <alloc_proc>:
8001d320:	27bdffd8 	addiu	sp,sp,-40
8001d324:	afbf0024 	sw	ra,36(sp)
8001d328:	afbe0020 	sw	s8,32(sp)
8001d32c:	03a0f021 	move	s8,sp
8001d330:	240400d4 	li	a0,212
8001d334:	0c0052a3 	jal	80014a8c <kmalloc>
8001d338:	00000000 	nop
8001d33c:	afc20018 	sw	v0,24(s8)
8001d340:	8fc20018 	lw	v0,24(s8)
8001d344:	10400016 	beqz	v0,8001d3a0 <alloc_proc+0x80>
8001d348:	00000000 	nop
8001d34c:	8fc40018 	lw	a0,24(s8)
8001d350:	00002821 	move	a1,zero
8001d354:	240600d4 	li	a2,212
8001d358:	0c00877d 	jal	80021df4 <memset>
8001d35c:	00000000 	nop
8001d360:	8fc20018 	lw	v0,24(s8)
8001d364:	ac400000 	sw	zero,0(v0)
8001d368:	3c028036 	lui	v0,0x8036
8001d36c:	8c430034 	lw	v1,52(v0)
8001d370:	8fc20018 	lw	v0,24(s8)
8001d374:	ac430050 	sw	v1,80(v0)
8001d378:	8fc20018 	lw	v0,24(s8)
8001d37c:	244200b4 	addiu	v0,v0,180
8001d380:	afc2001c 	sw	v0,28(s8)
8001d384:	8fc2001c 	lw	v0,28(s8)
8001d388:	8fc3001c 	lw	v1,28(s8)
8001d38c:	ac430004 	sw	v1,4(v0)
8001d390:	8fc2001c 	lw	v0,28(s8)
8001d394:	8c430004 	lw	v1,4(v0)
8001d398:	8fc2001c 	lw	v0,28(s8)
8001d39c:	ac430000 	sw	v1,0(v0)
8001d3a0:	8fc20018 	lw	v0,24(s8)
8001d3a4:	03c0e821 	move	sp,s8
8001d3a8:	8fbf0024 	lw	ra,36(sp)
8001d3ac:	8fbe0020 	lw	s8,32(sp)
8001d3b0:	27bd0028 	addiu	sp,sp,40
8001d3b4:	03e00008 	jr	ra
8001d3b8:	00000000 	nop

8001d3bc <set_proc_name>:
8001d3bc:	27bdffe0 	addiu	sp,sp,-32
8001d3c0:	afbf001c 	sw	ra,28(sp)
8001d3c4:	afbe0018 	sw	s8,24(sp)
8001d3c8:	03a0f021 	move	s8,sp
8001d3cc:	afc40020 	sw	a0,32(s8)
8001d3d0:	afc50024 	sw	a1,36(s8)
8001d3d4:	8fc20020 	lw	v0,32(s8)
8001d3d8:	24420058 	addiu	v0,v0,88
8001d3dc:	00402021 	move	a0,v0
8001d3e0:	00002821 	move	a1,zero
8001d3e4:	24060033 	li	a2,51
8001d3e8:	0c00877d 	jal	80021df4 <memset>
8001d3ec:	00000000 	nop
8001d3f0:	8fc20020 	lw	v0,32(s8)
8001d3f4:	24420058 	addiu	v0,v0,88
8001d3f8:	00402021 	move	a0,v0
8001d3fc:	8fc50024 	lw	a1,36(s8)
8001d400:	24060032 	li	a2,50
8001d404:	0c0087de 	jal	80021f78 <memcpy>
8001d408:	00000000 	nop
8001d40c:	03c0e821 	move	sp,s8
8001d410:	8fbf001c 	lw	ra,28(sp)
8001d414:	8fbe0018 	lw	s8,24(sp)
8001d418:	27bd0020 	addiu	sp,sp,32
8001d41c:	03e00008 	jr	ra
8001d420:	00000000 	nop

8001d424 <get_proc_name>:
8001d424:	27bdffe0 	addiu	sp,sp,-32
8001d428:	afbf001c 	sw	ra,28(sp)
8001d42c:	afbe0018 	sw	s8,24(sp)
8001d430:	03a0f021 	move	s8,sp
8001d434:	afc40020 	sw	a0,32(s8)
8001d438:	3c028036 	lui	v0,0x8036
8001d43c:	24442080 	addiu	a0,v0,8320
8001d440:	00002821 	move	a1,zero
8001d444:	24060033 	li	a2,51
8001d448:	0c00877d 	jal	80021df4 <memset>
8001d44c:	00000000 	nop
8001d450:	8fc20020 	lw	v0,32(s8)
8001d454:	24420058 	addiu	v0,v0,88
8001d458:	3c038036 	lui	v1,0x8036
8001d45c:	24642080 	addiu	a0,v1,8320
8001d460:	00402821 	move	a1,v0
8001d464:	24060032 	li	a2,50
8001d468:	0c0087de 	jal	80021f78 <memcpy>
8001d46c:	00000000 	nop
8001d470:	03c0e821 	move	sp,s8
8001d474:	8fbf001c 	lw	ra,28(sp)
8001d478:	8fbe0018 	lw	s8,24(sp)
8001d47c:	27bd0020 	addiu	sp,sp,32
8001d480:	03e00008 	jr	ra
8001d484:	00000000 	nop

8001d488 <set_links>:
8001d488:	27bdffd0 	addiu	sp,sp,-48
8001d48c:	afbe002c 	sw	s8,44(sp)
8001d490:	03a0f021 	move	s8,sp
8001d494:	afc40030 	sw	a0,48(s8)
8001d498:	8fc20030 	lw	v0,48(s8)
8001d49c:	2442008c 	addiu	v0,v0,140
8001d4a0:	3c038036 	lui	v1,0x8036
8001d4a4:	246322c0 	addiu	v1,v1,8896
8001d4a8:	afc30008 	sw	v1,8(s8)
8001d4ac:	afc2000c 	sw	v0,12(s8)
8001d4b0:	8fc20008 	lw	v0,8(s8)
8001d4b4:	afc20010 	sw	v0,16(s8)
8001d4b8:	8fc2000c 	lw	v0,12(s8)
8001d4bc:	afc20014 	sw	v0,20(s8)
8001d4c0:	8fc20010 	lw	v0,16(s8)
8001d4c4:	8c420004 	lw	v0,4(v0)
8001d4c8:	8fc30014 	lw	v1,20(s8)
8001d4cc:	afc30018 	sw	v1,24(s8)
8001d4d0:	8fc30010 	lw	v1,16(s8)
8001d4d4:	afc3001c 	sw	v1,28(s8)
8001d4d8:	afc20020 	sw	v0,32(s8)
8001d4dc:	8fc20020 	lw	v0,32(s8)
8001d4e0:	8fc30018 	lw	v1,24(s8)
8001d4e4:	ac430000 	sw	v1,0(v0)
8001d4e8:	8fc20020 	lw	v0,32(s8)
8001d4ec:	8c430000 	lw	v1,0(v0)
8001d4f0:	8fc2001c 	lw	v0,28(s8)
8001d4f4:	ac430004 	sw	v1,4(v0)
8001d4f8:	8fc20018 	lw	v0,24(s8)
8001d4fc:	8fc30020 	lw	v1,32(s8)
8001d500:	ac430004 	sw	v1,4(v0)
8001d504:	8fc20018 	lw	v0,24(s8)
8001d508:	8fc3001c 	lw	v1,28(s8)
8001d50c:	ac430000 	sw	v1,0(v0)
8001d510:	8fc20030 	lw	v0,48(s8)
8001d514:	ac4000a8 	sw	zero,168(v0)
8001d518:	8fc20030 	lw	v0,48(s8)
8001d51c:	8c420014 	lw	v0,20(v0)
8001d520:	8c4300a4 	lw	v1,164(v0)
8001d524:	8fc20030 	lw	v0,48(s8)
8001d528:	ac4300ac 	sw	v1,172(v0)
8001d52c:	8fc20030 	lw	v0,48(s8)
8001d530:	8c4200ac 	lw	v0,172(v0)
8001d534:	10400005 	beqz	v0,8001d54c <set_links+0xc4>
8001d538:	00000000 	nop
8001d53c:	8fc20030 	lw	v0,48(s8)
8001d540:	8c4200ac 	lw	v0,172(v0)
8001d544:	8fc30030 	lw	v1,48(s8)
8001d548:	ac4300a8 	sw	v1,168(v0)
8001d54c:	8fc20030 	lw	v0,48(s8)
8001d550:	8c420014 	lw	v0,20(v0)
8001d554:	8fc30030 	lw	v1,48(s8)
8001d558:	ac4300a4 	sw	v1,164(v0)
8001d55c:	3c028036 	lui	v0,0x8036
8001d560:	8c42207c 	lw	v0,8316(v0)
8001d564:	24430001 	addiu	v1,v0,1
8001d568:	3c028036 	lui	v0,0x8036
8001d56c:	ac43207c 	sw	v1,8316(v0)
8001d570:	03c0e821 	move	sp,s8
8001d574:	8fbe002c 	lw	s8,44(sp)
8001d578:	27bd0030 	addiu	sp,sp,48
8001d57c:	03e00008 	jr	ra
8001d580:	00000000 	nop

8001d584 <remove_links>:
8001d584:	27bdffe0 	addiu	sp,sp,-32
8001d588:	afbe001c 	sw	s8,28(sp)
8001d58c:	03a0f021 	move	s8,sp
8001d590:	afc40020 	sw	a0,32(s8)
8001d594:	8fc20020 	lw	v0,32(s8)
8001d598:	2442008c 	addiu	v0,v0,140
8001d59c:	afc20008 	sw	v0,8(s8)
8001d5a0:	8fc20008 	lw	v0,8(s8)
8001d5a4:	8c430000 	lw	v1,0(v0)
8001d5a8:	8fc20008 	lw	v0,8(s8)
8001d5ac:	8c420004 	lw	v0,4(v0)
8001d5b0:	afc3000c 	sw	v1,12(s8)
8001d5b4:	afc20010 	sw	v0,16(s8)
8001d5b8:	8fc2000c 	lw	v0,12(s8)
8001d5bc:	8fc30010 	lw	v1,16(s8)
8001d5c0:	ac430004 	sw	v1,4(v0)
8001d5c4:	8fc20010 	lw	v0,16(s8)
8001d5c8:	8fc3000c 	lw	v1,12(s8)
8001d5cc:	ac430000 	sw	v1,0(v0)
8001d5d0:	8fc20020 	lw	v0,32(s8)
8001d5d4:	8c4200ac 	lw	v0,172(v0)
8001d5d8:	10400006 	beqz	v0,8001d5f4 <remove_links+0x70>
8001d5dc:	00000000 	nop
8001d5e0:	8fc20020 	lw	v0,32(s8)
8001d5e4:	8c4200ac 	lw	v0,172(v0)
8001d5e8:	8fc30020 	lw	v1,32(s8)
8001d5ec:	8c6300a8 	lw	v1,168(v1)
8001d5f0:	ac4300a8 	sw	v1,168(v0)
8001d5f4:	8fc20020 	lw	v0,32(s8)
8001d5f8:	8c4200a8 	lw	v0,168(v0)
8001d5fc:	10400008 	beqz	v0,8001d620 <remove_links+0x9c>
8001d600:	00000000 	nop
8001d604:	8fc20020 	lw	v0,32(s8)
8001d608:	8c4200a8 	lw	v0,168(v0)
8001d60c:	8fc30020 	lw	v1,32(s8)
8001d610:	8c6300ac 	lw	v1,172(v1)
8001d614:	ac4300ac 	sw	v1,172(v0)
8001d618:	0800758d 	j	8001d634 <remove_links+0xb0>
8001d61c:	00000000 	nop
8001d620:	8fc20020 	lw	v0,32(s8)
8001d624:	8c420014 	lw	v0,20(v0)
8001d628:	8fc30020 	lw	v1,32(s8)
8001d62c:	8c6300ac 	lw	v1,172(v1)
8001d630:	ac4300a4 	sw	v1,164(v0)
8001d634:	3c028036 	lui	v0,0x8036
8001d638:	8c42207c 	lw	v0,8316(v0)
8001d63c:	2443ffff 	addiu	v1,v0,-1
8001d640:	3c028036 	lui	v0,0x8036
8001d644:	ac43207c 	sw	v1,8316(v0)
8001d648:	03c0e821 	move	sp,s8
8001d64c:	8fbe001c 	lw	s8,28(sp)
8001d650:	27bd0020 	addiu	sp,sp,32
8001d654:	03e00008 	jr	ra
8001d658:	00000000 	nop

8001d65c <get_pid>:
8001d65c:	27bdffe0 	addiu	sp,sp,-32
8001d660:	afbe001c 	sw	s8,28(sp)
8001d664:	03a0f021 	move	s8,sp
8001d668:	3c028036 	lui	v0,0x8036
8001d66c:	244222c0 	addiu	v0,v0,8896
8001d670:	afc2000c 	sw	v0,12(s8)
8001d674:	3c028036 	lui	v0,0x8036
8001d678:	8c42f5a0 	lw	v0,-2656(v0)
8001d67c:	24430001 	addiu	v1,v0,1
8001d680:	3c028036 	lui	v0,0x8036
8001d684:	ac43f5a0 	sw	v1,-2656(v0)
8001d688:	3c028036 	lui	v0,0x8036
8001d68c:	8c42f5a0 	lw	v0,-2656(v0)
8001d690:	28422000 	slti	v0,v0,8192
8001d694:	14400006 	bnez	v0,8001d6b0 <get_pid+0x54>
8001d698:	00000000 	nop
8001d69c:	3c028036 	lui	v0,0x8036
8001d6a0:	24030001 	li	v1,1
8001d6a4:	ac43f5a0 	sw	v1,-2656(v0)
8001d6a8:	080075b3 	j	8001d6cc <get_pid+0x70>
8001d6ac:	00000000 	nop
8001d6b0:	3c028036 	lui	v0,0x8036
8001d6b4:	8c43f5a0 	lw	v1,-2656(v0)
8001d6b8:	3c028036 	lui	v0,0x8036
8001d6bc:	8c42f5a4 	lw	v0,-2652(v0)
8001d6c0:	0062102a 	slt	v0,v1,v0
8001d6c4:	14400045 	bnez	v0,8001d7dc <get_pid+0x180>
8001d6c8:	00000000 	nop
8001d6cc:	3c028036 	lui	v0,0x8036
8001d6d0:	24032000 	li	v1,8192
8001d6d4:	ac43f5a4 	sw	v1,-2652(v0)
8001d6d8:	8fc2000c 	lw	v0,12(s8)
8001d6dc:	afc20008 	sw	v0,8(s8)
8001d6e0:	080075ee 	j	8001d7b8 <get_pid+0x15c>
8001d6e4:	00000000 	nop
8001d6e8:	8fc20008 	lw	v0,8(s8)
8001d6ec:	2442ff74 	addiu	v0,v0,-140
8001d6f0:	afc20010 	sw	v0,16(s8)
8001d6f4:	8fc20010 	lw	v0,16(s8)
8001d6f8:	8c430004 	lw	v1,4(v0)
8001d6fc:	3c028036 	lui	v0,0x8036
8001d700:	8c42f5a0 	lw	v0,-2656(v0)
8001d704:	1462001a 	bne	v1,v0,8001d770 <get_pid+0x114>
8001d708:	00000000 	nop
8001d70c:	3c028036 	lui	v0,0x8036
8001d710:	8c42f5a0 	lw	v0,-2656(v0)
8001d714:	24430001 	addiu	v1,v0,1
8001d718:	3c028036 	lui	v0,0x8036
8001d71c:	ac43f5a0 	sw	v1,-2656(v0)
8001d720:	3c028036 	lui	v0,0x8036
8001d724:	8c43f5a0 	lw	v1,-2656(v0)
8001d728:	3c028036 	lui	v0,0x8036
8001d72c:	8c42f5a4 	lw	v0,-2652(v0)
8001d730:	0062102a 	slt	v0,v1,v0
8001d734:	14400020 	bnez	v0,8001d7b8 <get_pid+0x15c>
8001d738:	00000000 	nop
8001d73c:	3c028036 	lui	v0,0x8036
8001d740:	8c42f5a0 	lw	v0,-2656(v0)
8001d744:	28422000 	slti	v0,v0,8192
8001d748:	14400004 	bnez	v0,8001d75c <get_pid+0x100>
8001d74c:	00000000 	nop
8001d750:	3c028036 	lui	v0,0x8036
8001d754:	24030001 	li	v1,1
8001d758:	ac43f5a0 	sw	v1,-2656(v0)
8001d75c:	3c028036 	lui	v0,0x8036
8001d760:	24032000 	li	v1,8192
8001d764:	ac43f5a4 	sw	v1,-2652(v0)
8001d768:	080075b6 	j	8001d6d8 <get_pid+0x7c>
8001d76c:	00000000 	nop
8001d770:	8fc20010 	lw	v0,16(s8)
8001d774:	8c430004 	lw	v1,4(v0)
8001d778:	3c028036 	lui	v0,0x8036
8001d77c:	8c42f5a0 	lw	v0,-2656(v0)
8001d780:	0043102a 	slt	v0,v0,v1
8001d784:	1040000c 	beqz	v0,8001d7b8 <get_pid+0x15c>
8001d788:	00000000 	nop
8001d78c:	8fc20010 	lw	v0,16(s8)
8001d790:	8c430004 	lw	v1,4(v0)
8001d794:	3c028036 	lui	v0,0x8036
8001d798:	8c42f5a4 	lw	v0,-2652(v0)
8001d79c:	0062102a 	slt	v0,v1,v0
8001d7a0:	10400005 	beqz	v0,8001d7b8 <get_pid+0x15c>
8001d7a4:	00000000 	nop
8001d7a8:	8fc20010 	lw	v0,16(s8)
8001d7ac:	8c430004 	lw	v1,4(v0)
8001d7b0:	3c028036 	lui	v0,0x8036
8001d7b4:	ac43f5a4 	sw	v1,-2652(v0)
8001d7b8:	8fc20008 	lw	v0,8(s8)
8001d7bc:	afc20014 	sw	v0,20(s8)
8001d7c0:	8fc20014 	lw	v0,20(s8)
8001d7c4:	8c420004 	lw	v0,4(v0)
8001d7c8:	afc20008 	sw	v0,8(s8)
8001d7cc:	8fc30008 	lw	v1,8(s8)
8001d7d0:	8fc2000c 	lw	v0,12(s8)
8001d7d4:	1462ffc4 	bne	v1,v0,8001d6e8 <get_pid+0x8c>
8001d7d8:	00000000 	nop
8001d7dc:	3c028036 	lui	v0,0x8036
8001d7e0:	8c42f5a0 	lw	v0,-2656(v0)
8001d7e4:	03c0e821 	move	sp,s8
8001d7e8:	8fbe001c 	lw	s8,28(sp)
8001d7ec:	27bd0020 	addiu	sp,sp,32
8001d7f0:	03e00008 	jr	ra
8001d7f4:	00000000 	nop

8001d7f8 <proc_run>:
8001d7f8:	27bdffd0 	addiu	sp,sp,-48
8001d7fc:	afbf002c 	sw	ra,44(sp)
8001d800:	afbe0028 	sw	s8,40(sp)
8001d804:	03a0f021 	move	s8,sp
8001d808:	afc40030 	sw	a0,48(s8)
8001d80c:	3c028036 	lui	v0,0x8036
8001d810:	8c420078 	lw	v0,120(v0)
8001d814:	8fc30030 	lw	v1,48(s8)
8001d818:	10620022 	beq	v1,v0,8001d8a4 <proc_run+0xac>
8001d81c:	00000000 	nop
8001d820:	3c028036 	lui	v0,0x8036
8001d824:	8c420078 	lw	v0,120(v0)
8001d828:	afc20018 	sw	v0,24(s8)
8001d82c:	8fc20030 	lw	v0,48(s8)
8001d830:	afc2001c 	sw	v0,28(s8)
8001d834:	0c0073b8 	jal	8001cee0 <__intr_save>
8001d838:	00000000 	nop
8001d83c:	afc20020 	sw	v0,32(s8)
8001d840:	3c028036 	lui	v0,0x8036
8001d844:	8fc30030 	lw	v1,48(s8)
8001d848:	ac430078 	sw	v1,120(v0)
8001d84c:	8fc2001c 	lw	v0,28(s8)
8001d850:	8c42000c 	lw	v0,12(v0)
8001d854:	24422000 	addiu	v0,v0,8192
8001d858:	00402021 	move	a0,v0
8001d85c:	0c005426 	jal	80015098 <load_ksp>
8001d860:	00000000 	nop
8001d864:	8fc2001c 	lw	v0,28(s8)
8001d868:	8c420050 	lw	v0,80(v0)
8001d86c:	00402021 	move	a0,v0
8001d870:	0c00643c 	jal	800190f0 <load_pgdir>
8001d874:	00000000 	nop
8001d878:	8fc20018 	lw	v0,24(s8)
8001d87c:	2443001c 	addiu	v1,v0,28
8001d880:	8fc2001c 	lw	v0,28(s8)
8001d884:	2442001c 	addiu	v0,v0,28
8001d888:	00602021 	move	a0,v1
8001d88c:	00402821 	move	a1,v0
8001d890:	0c007db4 	jal	8001f6d0 <switch_to>
8001d894:	00000000 	nop
8001d898:	8fc40020 	lw	a0,32(s8)
8001d89c:	0c0073ce 	jal	8001cf38 <__intr_restore>
8001d8a0:	00000000 	nop
8001d8a4:	03c0e821 	move	sp,s8
8001d8a8:	8fbf002c 	lw	ra,44(sp)
8001d8ac:	8fbe0028 	lw	s8,40(sp)
8001d8b0:	27bd0030 	addiu	sp,sp,48
8001d8b4:	03e00008 	jr	ra
8001d8b8:	00000000 	nop

8001d8bc <forkret>:
8001d8bc:	27bdffe0 	addiu	sp,sp,-32
8001d8c0:	afbf001c 	sw	ra,28(sp)
8001d8c4:	afbe0018 	sw	s8,24(sp)
8001d8c8:	03a0f021 	move	s8,sp
8001d8cc:	3c028036 	lui	v0,0x8036
8001d8d0:	8c420078 	lw	v0,120(v0)
8001d8d4:	8c42004c 	lw	v0,76(v0)
8001d8d8:	00402021 	move	a0,v0
8001d8dc:	0c004910 	jal	80012440 <forkrets>
8001d8e0:	00000000 	nop
8001d8e4:	03c0e821 	move	sp,s8
8001d8e8:	8fbf001c 	lw	ra,28(sp)
8001d8ec:	8fbe0018 	lw	s8,24(sp)
8001d8f0:	27bd0020 	addiu	sp,sp,32
8001d8f4:	03e00008 	jr	ra
8001d8f8:	00000000 	nop

8001d8fc <hash_proc>:
8001d8fc:	27bdffc0 	addiu	sp,sp,-64
8001d900:	afbf003c 	sw	ra,60(sp)
8001d904:	afbe0038 	sw	s8,56(sp)
8001d908:	03a0f021 	move	s8,sp
8001d90c:	afc40040 	sw	a0,64(s8)
8001d910:	8fc20040 	lw	v0,64(s8)
8001d914:	8c420004 	lw	v0,4(v0)
8001d918:	00402021 	move	a0,v0
8001d91c:	2405000a 	li	a1,10
8001d920:	0c00823c 	jal	800208f0 <hash32>
8001d924:	00000000 	nop
8001d928:	000218c0 	sll	v1,v0,0x3
8001d92c:	3c028036 	lui	v0,0x8036
8001d930:	2442007c 	addiu	v0,v0,124
8001d934:	00621821 	addu	v1,v1,v0
8001d938:	8fc20040 	lw	v0,64(s8)
8001d93c:	24420094 	addiu	v0,v0,148
8001d940:	afc30018 	sw	v1,24(s8)
8001d944:	afc2001c 	sw	v0,28(s8)
8001d948:	8fc20018 	lw	v0,24(s8)
8001d94c:	afc20020 	sw	v0,32(s8)
8001d950:	8fc2001c 	lw	v0,28(s8)
8001d954:	afc20024 	sw	v0,36(s8)
8001d958:	8fc20020 	lw	v0,32(s8)
8001d95c:	8c420004 	lw	v0,4(v0)
8001d960:	8fc30024 	lw	v1,36(s8)
8001d964:	afc30028 	sw	v1,40(s8)
8001d968:	8fc30020 	lw	v1,32(s8)
8001d96c:	afc3002c 	sw	v1,44(s8)
8001d970:	afc20030 	sw	v0,48(s8)
8001d974:	8fc20030 	lw	v0,48(s8)
8001d978:	8fc30028 	lw	v1,40(s8)
8001d97c:	ac430000 	sw	v1,0(v0)
8001d980:	8fc20030 	lw	v0,48(s8)
8001d984:	8c430000 	lw	v1,0(v0)
8001d988:	8fc2002c 	lw	v0,44(s8)
8001d98c:	ac430004 	sw	v1,4(v0)
8001d990:	8fc20028 	lw	v0,40(s8)
8001d994:	8fc30030 	lw	v1,48(s8)
8001d998:	ac430004 	sw	v1,4(v0)
8001d99c:	8fc20028 	lw	v0,40(s8)
8001d9a0:	8fc3002c 	lw	v1,44(s8)
8001d9a4:	ac430000 	sw	v1,0(v0)
8001d9a8:	03c0e821 	move	sp,s8
8001d9ac:	8fbf003c 	lw	ra,60(sp)
8001d9b0:	8fbe0038 	lw	s8,56(sp)
8001d9b4:	27bd0040 	addiu	sp,sp,64
8001d9b8:	03e00008 	jr	ra
8001d9bc:	00000000 	nop

8001d9c0 <unhash_proc>:
8001d9c0:	27bdffe0 	addiu	sp,sp,-32
8001d9c4:	afbe001c 	sw	s8,28(sp)
8001d9c8:	03a0f021 	move	s8,sp
8001d9cc:	afc40020 	sw	a0,32(s8)
8001d9d0:	8fc20020 	lw	v0,32(s8)
8001d9d4:	24420094 	addiu	v0,v0,148
8001d9d8:	afc20008 	sw	v0,8(s8)
8001d9dc:	8fc20008 	lw	v0,8(s8)
8001d9e0:	8c430000 	lw	v1,0(v0)
8001d9e4:	8fc20008 	lw	v0,8(s8)
8001d9e8:	8c420004 	lw	v0,4(v0)
8001d9ec:	afc3000c 	sw	v1,12(s8)
8001d9f0:	afc20010 	sw	v0,16(s8)
8001d9f4:	8fc2000c 	lw	v0,12(s8)
8001d9f8:	8fc30010 	lw	v1,16(s8)
8001d9fc:	ac430004 	sw	v1,4(v0)
8001da00:	8fc20010 	lw	v0,16(s8)
8001da04:	8fc3000c 	lw	v1,12(s8)
8001da08:	ac430000 	sw	v1,0(v0)
8001da0c:	03c0e821 	move	sp,s8
8001da10:	8fbe001c 	lw	s8,28(sp)
8001da14:	27bd0020 	addiu	sp,sp,32
8001da18:	03e00008 	jr	ra
8001da1c:	00000000 	nop

8001da20 <find_proc>:
8001da20:	27bdffd0 	addiu	sp,sp,-48
8001da24:	afbf002c 	sw	ra,44(sp)
8001da28:	afbe0028 	sw	s8,40(sp)
8001da2c:	03a0f021 	move	s8,sp
8001da30:	afc40030 	sw	a0,48(s8)
8001da34:	8fc20030 	lw	v0,48(s8)
8001da38:	18400027 	blez	v0,8001dad8 <find_proc+0xb8>
8001da3c:	00000000 	nop
8001da40:	8fc20030 	lw	v0,48(s8)
8001da44:	28422000 	slti	v0,v0,8192
8001da48:	10400023 	beqz	v0,8001dad8 <find_proc+0xb8>
8001da4c:	00000000 	nop
8001da50:	8fc20030 	lw	v0,48(s8)
8001da54:	00402021 	move	a0,v0
8001da58:	2405000a 	li	a1,10
8001da5c:	0c00823c 	jal	800208f0 <hash32>
8001da60:	00000000 	nop
8001da64:	000218c0 	sll	v1,v0,0x3
8001da68:	3c028036 	lui	v0,0x8036
8001da6c:	2442007c 	addiu	v0,v0,124
8001da70:	00621021 	addu	v0,v1,v0
8001da74:	afc2001c 	sw	v0,28(s8)
8001da78:	8fc2001c 	lw	v0,28(s8)
8001da7c:	afc20018 	sw	v0,24(s8)
8001da80:	080076ad 	j	8001dab4 <find_proc+0x94>
8001da84:	00000000 	nop
8001da88:	8fc20018 	lw	v0,24(s8)
8001da8c:	2442ff6c 	addiu	v0,v0,-148
8001da90:	afc20020 	sw	v0,32(s8)
8001da94:	8fc20020 	lw	v0,32(s8)
8001da98:	8c430004 	lw	v1,4(v0)
8001da9c:	8fc20030 	lw	v0,48(s8)
8001daa0:	14620004 	bne	v1,v0,8001dab4 <find_proc+0x94>
8001daa4:	00000000 	nop
8001daa8:	8fc20020 	lw	v0,32(s8)
8001daac:	080076b7 	j	8001dadc <find_proc+0xbc>
8001dab0:	00000000 	nop
8001dab4:	8fc20018 	lw	v0,24(s8)
8001dab8:	afc20024 	sw	v0,36(s8)
8001dabc:	8fc20024 	lw	v0,36(s8)
8001dac0:	8c420004 	lw	v0,4(v0)
8001dac4:	afc20018 	sw	v0,24(s8)
8001dac8:	8fc30018 	lw	v1,24(s8)
8001dacc:	8fc2001c 	lw	v0,28(s8)
8001dad0:	1462ffed 	bne	v1,v0,8001da88 <find_proc+0x68>
8001dad4:	00000000 	nop
8001dad8:	00001021 	move	v0,zero
8001dadc:	03c0e821 	move	sp,s8
8001dae0:	8fbf002c 	lw	ra,44(sp)
8001dae4:	8fbe0028 	lw	s8,40(sp)
8001dae8:	27bd0030 	addiu	sp,sp,48
8001daec:	03e00008 	jr	ra
8001daf0:	00000000 	nop

8001daf4 <kernel_thread>:
8001daf4:	27bdff48 	addiu	sp,sp,-184
8001daf8:	afbf00b4 	sw	ra,180(sp)
8001dafc:	afbe00b0 	sw	s8,176(sp)
8001db00:	03a0f021 	move	s8,sp
8001db04:	afc400b8 	sw	a0,184(s8)
8001db08:	afc500bc 	sw	a1,188(s8)
8001db0c:	afc600c0 	sw	a2,192(s8)
8001db10:	27c20018 	addiu	v0,s8,24
8001db14:	00402021 	move	a0,v0
8001db18:	00002821 	move	a1,zero
8001db1c:	24060098 	li	a2,152
8001db20:	0c00877d 	jal	80021df4 <memset>
8001db24:	00000000 	nop
8001db28:	8fc200b8 	lw	v0,184(s8)
8001db2c:	afc2002c 	sw	v0,44(s8)
8001db30:	8fc200bc 	lw	v0,188(s8)
8001db34:	afc20028 	sw	v0,40(s8)
8001db38:	03801021 	move	v0,gp
8001db3c:	afc20088 	sw	v0,136(s8)
8001db40:	3c028002 	lui	v0,0x8002
8001db44:	2442ce70 	addiu	v0,v0,-12688
8001db48:	afc200a0 	sw	v0,160(s8)
8001db4c:	afc00098 	sw	zero,152(s8)
8001db50:	8fc200c0 	lw	v0,192(s8)
8001db54:	34420100 	ori	v0,v0,0x100
8001db58:	00402021 	move	a0,v0
8001db5c:	00002821 	move	a1,zero
8001db60:	27c20018 	addiu	v0,s8,24
8001db64:	00403021 	move	a2,v0
8001db68:	0c0077e9 	jal	8001dfa4 <do_fork>
8001db6c:	00000000 	nop
8001db70:	03c0e821 	move	sp,s8
8001db74:	8fbf00b4 	lw	ra,180(sp)
8001db78:	8fbe00b0 	lw	s8,176(sp)
8001db7c:	27bd00b8 	addiu	sp,sp,184
8001db80:	03e00008 	jr	ra
8001db84:	00000000 	nop

8001db88 <setup_kstack>:
8001db88:	27bdffd8 	addiu	sp,sp,-40
8001db8c:	afbf0024 	sw	ra,36(sp)
8001db90:	afbe0020 	sw	s8,32(sp)
8001db94:	03a0f021 	move	s8,sp
8001db98:	afc40028 	sw	a0,40(s8)
8001db9c:	24040002 	li	a0,2
8001dba0:	0c005462 	jal	80015188 <alloc_pages>
8001dba4:	00000000 	nop
8001dba8:	afc20018 	sw	v0,24(s8)
8001dbac:	8fc20018 	lw	v0,24(s8)
8001dbb0:	1040000a 	beqz	v0,8001dbdc <setup_kstack+0x54>
8001dbb4:	00000000 	nop
8001dbb8:	8fc40018 	lw	a0,24(s8)
8001dbbc:	0c007436 	jal	8001d0d8 <page2kva>
8001dbc0:	00000000 	nop
8001dbc4:	00401821 	move	v1,v0
8001dbc8:	8fc20028 	lw	v0,40(s8)
8001dbcc:	ac43000c 	sw	v1,12(v0)
8001dbd0:	00001021 	move	v0,zero
8001dbd4:	080076f8 	j	8001dbe0 <setup_kstack+0x58>
8001dbd8:	00000000 	nop
8001dbdc:	2402fffc 	li	v0,-4
8001dbe0:	03c0e821 	move	sp,s8
8001dbe4:	8fbf0024 	lw	ra,36(sp)
8001dbe8:	8fbe0020 	lw	s8,32(sp)
8001dbec:	27bd0028 	addiu	sp,sp,40
8001dbf0:	03e00008 	jr	ra
8001dbf4:	00000000 	nop

8001dbf8 <put_kstack>:
8001dbf8:	27bdffe0 	addiu	sp,sp,-32
8001dbfc:	afbf001c 	sw	ra,28(sp)
8001dc00:	afbe0018 	sw	s8,24(sp)
8001dc04:	03a0f021 	move	s8,sp
8001dc08:	afc40020 	sw	a0,32(s8)
8001dc0c:	8fc20020 	lw	v0,32(s8)
8001dc10:	8c42000c 	lw	v0,12(v0)
8001dc14:	00402021 	move	a0,v0
8001dc18:	0c007459 	jal	8001d164 <kva2page>
8001dc1c:	00000000 	nop
8001dc20:	00402021 	move	a0,v0
8001dc24:	24050002 	li	a1,2
8001dc28:	0c005492 	jal	80015248 <free_pages>
8001dc2c:	00000000 	nop
8001dc30:	03c0e821 	move	sp,s8
8001dc34:	8fbf001c 	lw	ra,28(sp)
8001dc38:	8fbe0018 	lw	s8,24(sp)
8001dc3c:	27bd0020 	addiu	sp,sp,32
8001dc40:	03e00008 	jr	ra
8001dc44:	00000000 	nop

8001dc48 <setup_pgdir>:
8001dc48:	27bdffd0 	addiu	sp,sp,-48
8001dc4c:	afbf002c 	sw	ra,44(sp)
8001dc50:	afbe0028 	sw	s8,40(sp)
8001dc54:	03a0f021 	move	s8,sp
8001dc58:	afc40030 	sw	a0,48(s8)
8001dc5c:	24040001 	li	a0,1
8001dc60:	0c005462 	jal	80015188 <alloc_pages>
8001dc64:	00000000 	nop
8001dc68:	afc20018 	sw	v0,24(s8)
8001dc6c:	8fc20018 	lw	v0,24(s8)
8001dc70:	14400004 	bnez	v0,8001dc84 <setup_pgdir+0x3c>
8001dc74:	00000000 	nop
8001dc78:	2402fffc 	li	v0,-4
8001dc7c:	08007744 	j	8001dd10 <setup_pgdir+0xc8>
8001dc80:	00000000 	nop
8001dc84:	8fc40018 	lw	a0,24(s8)
8001dc88:	0c007436 	jal	8001d0d8 <page2kva>
8001dc8c:	00000000 	nop
8001dc90:	afc2001c 	sw	v0,28(s8)
8001dc94:	3c028036 	lui	v0,0x8036
8001dc98:	8c420034 	lw	v0,52(v0)
8001dc9c:	8fc4001c 	lw	a0,28(s8)
8001dca0:	00402821 	move	a1,v0
8001dca4:	24061000 	li	a2,4096
8001dca8:	0c0087de 	jal	80021f78 <memcpy>
8001dcac:	00000000 	nop
8001dcb0:	8fc2001c 	lw	v0,28(s8)
8001dcb4:	24420fac 	addiu	v0,v0,4012
8001dcb8:	8fc3001c 	lw	v1,28(s8)
8001dcbc:	afc30020 	sw	v1,32(s8)
8001dcc0:	8fc30020 	lw	v1,32(s8)
8001dcc4:	04600009 	bltz	v1,8001dcec <setup_pgdir+0xa4>
8001dcc8:	00000000 	nop
8001dccc:	3c028002 	lui	v0,0x8002
8001dcd0:	24444448 	addiu	a0,v0,17480
8001dcd4:	24050130 	li	a1,304
8001dcd8:	3c028002 	lui	v0,0x8002
8001dcdc:	24464424 	addiu	a2,v0,17444
8001dce0:	8fc70020 	lw	a3,32(s8)
8001dce4:	0c004544 	jal	80011510 <__panic>
8001dce8:	00000000 	nop
8001dcec:	8fc40020 	lw	a0,32(s8)
8001dcf0:	3c038000 	lui	v1,0x8000
8001dcf4:	00831821 	addu	v1,a0,v1
8001dcf8:	34630003 	ori	v1,v1,0x3
8001dcfc:	ac430000 	sw	v1,0(v0)
8001dd00:	8fc20030 	lw	v0,48(s8)
8001dd04:	8fc3001c 	lw	v1,28(s8)
8001dd08:	ac43000c 	sw	v1,12(v0)
8001dd0c:	00001021 	move	v0,zero
8001dd10:	03c0e821 	move	sp,s8
8001dd14:	8fbf002c 	lw	ra,44(sp)
8001dd18:	8fbe0028 	lw	s8,40(sp)
8001dd1c:	27bd0030 	addiu	sp,sp,48
8001dd20:	03e00008 	jr	ra
8001dd24:	00000000 	nop

8001dd28 <put_pgdir>:
8001dd28:	27bdffe0 	addiu	sp,sp,-32
8001dd2c:	afbf001c 	sw	ra,28(sp)
8001dd30:	afbe0018 	sw	s8,24(sp)
8001dd34:	03a0f021 	move	s8,sp
8001dd38:	afc40020 	sw	a0,32(s8)
8001dd3c:	8fc20020 	lw	v0,32(s8)
8001dd40:	8c42000c 	lw	v0,12(v0)
8001dd44:	00402021 	move	a0,v0
8001dd48:	0c007459 	jal	8001d164 <kva2page>
8001dd4c:	00000000 	nop
8001dd50:	00402021 	move	a0,v0
8001dd54:	24050001 	li	a1,1
8001dd58:	0c005492 	jal	80015248 <free_pages>
8001dd5c:	00000000 	nop
8001dd60:	03c0e821 	move	sp,s8
8001dd64:	8fbf001c 	lw	ra,28(sp)
8001dd68:	8fbe0018 	lw	s8,24(sp)
8001dd6c:	27bd0020 	addiu	sp,sp,32
8001dd70:	03e00008 	jr	ra
8001dd74:	00000000 	nop

8001dd78 <copy_mm>:
8001dd78:	27bdffd0 	addiu	sp,sp,-48
8001dd7c:	afbf002c 	sw	ra,44(sp)
8001dd80:	afbe0028 	sw	s8,40(sp)
8001dd84:	03a0f021 	move	s8,sp
8001dd88:	afc40030 	sw	a0,48(s8)
8001dd8c:	afc50034 	sw	a1,52(s8)
8001dd90:	3c028036 	lui	v0,0x8036
8001dd94:	8c420078 	lw	v0,120(v0)
8001dd98:	8c420018 	lw	v0,24(v0)
8001dd9c:	afc20020 	sw	v0,32(s8)
8001dda0:	8fc20020 	lw	v0,32(s8)
8001dda4:	14400004 	bnez	v0,8001ddb8 <copy_mm+0x40>
8001dda8:	00000000 	nop
8001ddac:	00001021 	move	v0,zero
8001ddb0:	080077af 	j	8001debc <copy_mm+0x144>
8001ddb4:	00000000 	nop
8001ddb8:	8fc20030 	lw	v0,48(s8)
8001ddbc:	30420100 	andi	v0,v0,0x100
8001ddc0:	10400005 	beqz	v0,8001ddd8 <copy_mm+0x60>
8001ddc4:	00000000 	nop
8001ddc8:	8fc20020 	lw	v0,32(s8)
8001ddcc:	afc20018 	sw	v0,24(s8)
8001ddd0:	0800779e 	j	8001de78 <copy_mm+0x100>
8001ddd4:	00000000 	nop
8001ddd8:	2402fffc 	li	v0,-4
8001dddc:	afc2001c 	sw	v0,28(s8)
8001dde0:	0c00662b 	jal	800198ac <mm_create>
8001dde4:	00000000 	nop
8001dde8:	afc20018 	sw	v0,24(s8)
8001ddec:	8fc20018 	lw	v0,24(s8)
8001ddf0:	14400003 	bnez	v0,8001de00 <copy_mm+0x88>
8001ddf4:	00000000 	nop
8001ddf8:	080077ae 	j	8001deb8 <copy_mm+0x140>
8001ddfc:	00000000 	nop
8001de00:	8fc40018 	lw	a0,24(s8)
8001de04:	0c007712 	jal	8001dc48 <setup_pgdir>
8001de08:	00000000 	nop
8001de0c:	10400003 	beqz	v0,8001de1c <copy_mm+0xa4>
8001de10:	00000000 	nop
8001de14:	080077ab 	j	8001deac <copy_mm+0x134>
8001de18:	00000000 	nop
8001de1c:	8fc40020 	lw	a0,32(s8)
8001de20:	0c007497 	jal	8001d25c <lock_mm>
8001de24:	00000000 	nop
8001de28:	8fc40018 	lw	a0,24(s8)
8001de2c:	8fc50020 	lw	a1,32(s8)
8001de30:	0c006822 	jal	8001a088 <dup_mmap>
8001de34:	00000000 	nop
8001de38:	afc2001c 	sw	v0,28(s8)
8001de3c:	8fc40020 	lw	a0,32(s8)
8001de40:	0c0074b3 	jal	8001d2cc <unlock_mm>
8001de44:	00000000 	nop
8001de48:	8fc2001c 	lw	v0,28(s8)
8001de4c:	1040000a 	beqz	v0,8001de78 <copy_mm+0x100>
8001de50:	00000000 	nop
8001de54:	00000000 	nop
8001de58:	8fc40018 	lw	a0,24(s8)
8001de5c:	0c006879 	jal	8001a1e4 <exit_mmap>
8001de60:	00000000 	nop
8001de64:	8fc40018 	lw	a0,24(s8)
8001de68:	0c00774a 	jal	8001dd28 <put_pgdir>
8001de6c:	00000000 	nop
8001de70:	080077ab 	j	8001deac <copy_mm+0x134>
8001de74:	00000000 	nop
8001de78:	8fc40018 	lw	a0,24(s8)
8001de7c:	0c007477 	jal	8001d1dc <mm_count_inc>
8001de80:	00000000 	nop
8001de84:	8fc20034 	lw	v0,52(s8)
8001de88:	8fc30018 	lw	v1,24(s8)
8001de8c:	ac430018 	sw	v1,24(v0)
8001de90:	8fc20018 	lw	v0,24(s8)
8001de94:	8c43000c 	lw	v1,12(v0)
8001de98:	8fc20034 	lw	v0,52(s8)
8001de9c:	ac430050 	sw	v1,80(v0)
8001dea0:	00001021 	move	v0,zero
8001dea4:	080077af 	j	8001debc <copy_mm+0x144>
8001dea8:	00000000 	nop
8001deac:	8fc40018 	lw	a0,24(s8)
8001deb0:	0c00677e 	jal	80019df8 <mm_destroy>
8001deb4:	00000000 	nop
8001deb8:	8fc2001c 	lw	v0,28(s8)
8001debc:	03c0e821 	move	sp,s8
8001dec0:	8fbf002c 	lw	ra,44(sp)
8001dec4:	8fbe0028 	lw	s8,40(sp)
8001dec8:	27bd0030 	addiu	sp,sp,48
8001decc:	03e00008 	jr	ra
8001ded0:	00000000 	nop

8001ded4 <copy_thread>:
8001ded4:	27bdffe0 	addiu	sp,sp,-32
8001ded8:	afbf001c 	sw	ra,28(sp)
8001dedc:	afbe0018 	sw	s8,24(sp)
8001dee0:	03a0f021 	move	s8,sp
8001dee4:	afc40020 	sw	a0,32(s8)
8001dee8:	afc50024 	sw	a1,36(s8)
8001deec:	afc60028 	sw	a2,40(s8)
8001def0:	8fc20020 	lw	v0,32(s8)
8001def4:	8c42000c 	lw	v0,12(v0)
8001def8:	24421f68 	addiu	v0,v0,8040
8001defc:	00401821 	move	v1,v0
8001df00:	8fc20020 	lw	v0,32(s8)
8001df04:	ac43004c 	sw	v1,76(v0)
8001df08:	8fc20020 	lw	v0,32(s8)
8001df0c:	8c43004c 	lw	v1,76(v0)
8001df10:	8fc20028 	lw	v0,40(s8)
8001df14:	00602021 	move	a0,v1
8001df18:	00401821 	move	v1,v0
8001df1c:	24020098 	li	v0,152
8001df20:	00602821 	move	a1,v1
8001df24:	00403021 	move	a2,v0
8001df28:	0c0087de 	jal	80021f78 <memcpy>
8001df2c:	00000000 	nop
8001df30:	8fc20020 	lw	v0,32(s8)
8001df34:	8c42004c 	lw	v0,76(v0)
8001df38:	ac400008 	sw	zero,8(v0)
8001df3c:	8fc20020 	lw	v0,32(s8)
8001df40:	8c42004c 	lw	v0,76(v0)
8001df44:	8fc30024 	lw	v1,36(s8)
8001df48:	ac430074 	sw	v1,116(v0)
8001df4c:	8fc20020 	lw	v0,32(s8)
8001df50:	8c42004c 	lw	v0,76(v0)
8001df54:	8fc30020 	lw	v1,32(s8)
8001df58:	8c63004c 	lw	v1,76(v1)
8001df5c:	8c630080 	lw	v1,128(v1)
8001df60:	34630003 	ori	v1,v1,0x3
8001df64:	ac430080 	sw	v1,128(v0)
8001df68:	3c028002 	lui	v0,0x8002
8001df6c:	2443d8bc 	addiu	v1,v0,-10052
8001df70:	8fc20020 	lw	v0,32(s8)
8001df74:	ac43001c 	sw	v1,28(v0)
8001df78:	8fc20020 	lw	v0,32(s8)
8001df7c:	8c42004c 	lw	v0,76(v0)
8001df80:	00401821 	move	v1,v0
8001df84:	8fc20020 	lw	v0,32(s8)
8001df88:	ac430020 	sw	v1,32(v0)
8001df8c:	03c0e821 	move	sp,s8
8001df90:	8fbf001c 	lw	ra,28(sp)
8001df94:	8fbe0018 	lw	s8,24(sp)
8001df98:	27bd0020 	addiu	sp,sp,32
8001df9c:	03e00008 	jr	ra
8001dfa0:	00000000 	nop

8001dfa4 <do_fork>:
8001dfa4:	27bdffd8 	addiu	sp,sp,-40
8001dfa8:	afbf0024 	sw	ra,36(sp)
8001dfac:	afbe0020 	sw	s8,32(sp)
8001dfb0:	03a0f021 	move	s8,sp
8001dfb4:	afc40028 	sw	a0,40(s8)
8001dfb8:	afc5002c 	sw	a1,44(s8)
8001dfbc:	afc60030 	sw	a2,48(s8)
8001dfc0:	2402fffb 	li	v0,-5
8001dfc4:	afc20018 	sw	v0,24(s8)
8001dfc8:	3c028036 	lui	v0,0x8036
8001dfcc:	8c42207c 	lw	v0,8316(v0)
8001dfd0:	28421000 	slti	v0,v0,4096
8001dfd4:	14400003 	bnez	v0,8001dfe4 <do_fork+0x40>
8001dfd8:	00000000 	nop
8001dfdc:	08007839 	j	8001e0e4 <do_fork+0x140>
8001dfe0:	00000000 	nop
8001dfe4:	2402fffc 	li	v0,-4
8001dfe8:	afc20018 	sw	v0,24(s8)
8001dfec:	0c0074c8 	jal	8001d320 <alloc_proc>
8001dff0:	00000000 	nop
8001dff4:	afc2001c 	sw	v0,28(s8)
8001dff8:	3c028036 	lui	v0,0x8036
8001dffc:	8c420078 	lw	v0,120(v0)
8001e000:	8c4200a0 	lw	v0,160(v0)
8001e004:	1040000a 	beqz	v0,8001e030 <do_fork+0x8c>
8001e008:	00000000 	nop
8001e00c:	3c028002 	lui	v0,0x8002
8001e010:	24444448 	addiu	a0,v0,17480
8001e014:	2405019f 	li	a1,415
8001e018:	3c028002 	lui	v0,0x8002
8001e01c:	2446445c 	addiu	a2,v0,17500
8001e020:	3c028002 	lui	v0,0x8002
8001e024:	24474474 	addiu	a3,v0,17524
8001e028:	0c004544 	jal	80011510 <__panic>
8001e02c:	00000000 	nop
8001e030:	3c028036 	lui	v0,0x8036
8001e034:	8c430078 	lw	v1,120(v0)
8001e038:	8fc2001c 	lw	v0,28(s8)
8001e03c:	ac430014 	sw	v1,20(v0)
8001e040:	8fc4001c 	lw	a0,28(s8)
8001e044:	0c0076e2 	jal	8001db88 <setup_kstack>
8001e048:	00000000 	nop
8001e04c:	10400003 	beqz	v0,8001e05c <do_fork+0xb8>
8001e050:	00000000 	nop
8001e054:	0800783c 	j	8001e0f0 <do_fork+0x14c>
8001e058:	00000000 	nop
8001e05c:	8fc40028 	lw	a0,40(s8)
8001e060:	8fc5001c 	lw	a1,28(s8)
8001e064:	0c00775e 	jal	8001dd78 <copy_mm>
8001e068:	00000000 	nop
8001e06c:	10400007 	beqz	v0,8001e08c <do_fork+0xe8>
8001e070:	00000000 	nop
8001e074:	00000000 	nop
8001e078:	8fc4001c 	lw	a0,28(s8)
8001e07c:	0c0076fe 	jal	8001dbf8 <put_kstack>
8001e080:	00000000 	nop
8001e084:	0800783c 	j	8001e0f0 <do_fork+0x14c>
8001e088:	00000000 	nop
8001e08c:	8fc4001c 	lw	a0,28(s8)
8001e090:	8fc5002c 	lw	a1,44(s8)
8001e094:	8fc60030 	lw	a2,48(s8)
8001e098:	0c0077b5 	jal	8001ded4 <copy_thread>
8001e09c:	00000000 	nop
8001e0a0:	0c007597 	jal	8001d65c <get_pid>
8001e0a4:	00000000 	nop
8001e0a8:	00401821 	move	v1,v0
8001e0ac:	8fc2001c 	lw	v0,28(s8)
8001e0b0:	ac430004 	sw	v1,4(v0)
8001e0b4:	8fc4001c 	lw	a0,28(s8)
8001e0b8:	0c00763f 	jal	8001d8fc <hash_proc>
8001e0bc:	00000000 	nop
8001e0c0:	8fc4001c 	lw	a0,28(s8)
8001e0c4:	0c007522 	jal	8001d488 <set_links>
8001e0c8:	00000000 	nop
8001e0cc:	8fc4001c 	lw	a0,28(s8)
8001e0d0:	0c007f64 	jal	8001fd90 <wakeup_proc>
8001e0d4:	00000000 	nop
8001e0d8:	8fc2001c 	lw	v0,28(s8)
8001e0dc:	8c420004 	lw	v0,4(v0)
8001e0e0:	afc20018 	sw	v0,24(s8)
8001e0e4:	8fc20018 	lw	v0,24(s8)
8001e0e8:	08007841 	j	8001e104 <do_fork+0x160>
8001e0ec:	00000000 	nop
8001e0f0:	8fc4001c 	lw	a0,28(s8)
8001e0f4:	0c0052b2 	jal	80014ac8 <kfree>
8001e0f8:	00000000 	nop
8001e0fc:	08007839 	j	8001e0e4 <do_fork+0x140>
8001e100:	00000000 	nop
8001e104:	03c0e821 	move	sp,s8
8001e108:	8fbf0024 	lw	ra,36(sp)
8001e10c:	8fbe0020 	lw	s8,32(sp)
8001e110:	27bd0028 	addiu	sp,sp,40
8001e114:	03e00008 	jr	ra
8001e118:	00000000 	nop

8001e11c <do_exit>:
8001e11c:	27bdffd0 	addiu	sp,sp,-48
8001e120:	afbf002c 	sw	ra,44(sp)
8001e124:	afbe0028 	sw	s8,40(sp)
8001e128:	03a0f021 	move	s8,sp
8001e12c:	afc40030 	sw	a0,48(s8)
8001e130:	3c028036 	lui	v0,0x8036
8001e134:	8c430078 	lw	v1,120(v0)
8001e138:	3c028036 	lui	v0,0x8036
8001e13c:	8c420070 	lw	v0,112(v0)
8001e140:	14620008 	bne	v1,v0,8001e164 <do_exit+0x48>
8001e144:	00000000 	nop
8001e148:	3c028002 	lui	v0,0x8002
8001e14c:	24444448 	addiu	a0,v0,17480
8001e150:	240501c5 	li	a1,453
8001e154:	3c028002 	lui	v0,0x8002
8001e158:	24464490 	addiu	a2,v0,17552
8001e15c:	0c004544 	jal	80011510 <__panic>
8001e160:	00000000 	nop
8001e164:	3c028036 	lui	v0,0x8036
8001e168:	8c430078 	lw	v1,120(v0)
8001e16c:	3c028036 	lui	v0,0x8036
8001e170:	8c420074 	lw	v0,116(v0)
8001e174:	14620008 	bne	v1,v0,8001e198 <do_exit+0x7c>
8001e178:	00000000 	nop
8001e17c:	3c028002 	lui	v0,0x8002
8001e180:	24444448 	addiu	a0,v0,17480
8001e184:	240501c8 	li	a1,456
8001e188:	3c028002 	lui	v0,0x8002
8001e18c:	244644a0 	addiu	a2,v0,17568
8001e190:	0c004544 	jal	80011510 <__panic>
8001e194:	00000000 	nop
8001e198:	3c028036 	lui	v0,0x8036
8001e19c:	8c420078 	lw	v0,120(v0)
8001e1a0:	8c420018 	lw	v0,24(v0)
8001e1a4:	afc20018 	sw	v0,24(s8)
8001e1a8:	8fc20018 	lw	v0,24(s8)
8001e1ac:	10400017 	beqz	v0,8001e20c <do_exit+0xf0>
8001e1b0:	00000000 	nop
8001e1b4:	3c028036 	lui	v0,0x8036
8001e1b8:	8c420034 	lw	v0,52(v0)
8001e1bc:	00402021 	move	a0,v0
8001e1c0:	0c00643c 	jal	800190f0 <load_pgdir>
8001e1c4:	00000000 	nop
8001e1c8:	8fc40018 	lw	a0,24(s8)
8001e1cc:	0c007487 	jal	8001d21c <mm_count_dec>
8001e1d0:	00000000 	nop
8001e1d4:	1440000a 	bnez	v0,8001e200 <do_exit+0xe4>
8001e1d8:	00000000 	nop
8001e1dc:	8fc40018 	lw	a0,24(s8)
8001e1e0:	0c006879 	jal	8001a1e4 <exit_mmap>
8001e1e4:	00000000 	nop
8001e1e8:	8fc40018 	lw	a0,24(s8)
8001e1ec:	0c00774a 	jal	8001dd28 <put_pgdir>
8001e1f0:	00000000 	nop
8001e1f4:	8fc40018 	lw	a0,24(s8)
8001e1f8:	0c00677e 	jal	80019df8 <mm_destroy>
8001e1fc:	00000000 	nop
8001e200:	3c028036 	lui	v0,0x8036
8001e204:	8c420078 	lw	v0,120(v0)
8001e208:	ac400018 	sw	zero,24(v0)
8001e20c:	3c028036 	lui	v0,0x8036
8001e210:	8c420078 	lw	v0,120(v0)
8001e214:	24030003 	li	v1,3
8001e218:	ac430000 	sw	v1,0(v0)
8001e21c:	3c028036 	lui	v0,0x8036
8001e220:	8c420078 	lw	v0,120(v0)
8001e224:	8fc30030 	lw	v1,48(s8)
8001e228:	ac43009c 	sw	v1,156(v0)
8001e22c:	0c0073b8 	jal	8001cee0 <__intr_save>
8001e230:	00000000 	nop
8001e234:	afc2001c 	sw	v0,28(s8)
8001e238:	3c028036 	lui	v0,0x8036
8001e23c:	8c420078 	lw	v0,120(v0)
8001e240:	8c420014 	lw	v0,20(v0)
8001e244:	afc20020 	sw	v0,32(s8)
8001e248:	8fc20020 	lw	v0,32(s8)
8001e24c:	8c4300a0 	lw	v1,160(v0)
8001e250:	3c028000 	lui	v0,0x8000
8001e254:	34420001 	ori	v0,v0,0x1
8001e258:	14620006 	bne	v1,v0,8001e274 <do_exit+0x158>
8001e25c:	00000000 	nop
8001e260:	8fc40020 	lw	a0,32(s8)
8001e264:	0c007f64 	jal	8001fd90 <wakeup_proc>
8001e268:	00000000 	nop
8001e26c:	080078d1 	j	8001e344 <do_exit+0x228>
8001e270:	00000000 	nop
8001e274:	080078d1 	j	8001e344 <do_exit+0x228>
8001e278:	00000000 	nop
8001e27c:	3c028036 	lui	v0,0x8036
8001e280:	8c420078 	lw	v0,120(v0)
8001e284:	8c4200a4 	lw	v0,164(v0)
8001e288:	afc20020 	sw	v0,32(s8)
8001e28c:	3c028036 	lui	v0,0x8036
8001e290:	8c420078 	lw	v0,120(v0)
8001e294:	8fc30020 	lw	v1,32(s8)
8001e298:	8c6300ac 	lw	v1,172(v1)
8001e29c:	ac4300a4 	sw	v1,164(v0)
8001e2a0:	8fc20020 	lw	v0,32(s8)
8001e2a4:	ac4000a8 	sw	zero,168(v0)
8001e2a8:	3c028036 	lui	v0,0x8036
8001e2ac:	8c420074 	lw	v0,116(v0)
8001e2b0:	8c4300a4 	lw	v1,164(v0)
8001e2b4:	8fc20020 	lw	v0,32(s8)
8001e2b8:	ac4300ac 	sw	v1,172(v0)
8001e2bc:	8fc20020 	lw	v0,32(s8)
8001e2c0:	8c4200ac 	lw	v0,172(v0)
8001e2c4:	10400006 	beqz	v0,8001e2e0 <do_exit+0x1c4>
8001e2c8:	00000000 	nop
8001e2cc:	3c028036 	lui	v0,0x8036
8001e2d0:	8c420074 	lw	v0,116(v0)
8001e2d4:	8c4200a4 	lw	v0,164(v0)
8001e2d8:	8fc30020 	lw	v1,32(s8)
8001e2dc:	ac4300a8 	sw	v1,168(v0)
8001e2e0:	3c028036 	lui	v0,0x8036
8001e2e4:	8c430074 	lw	v1,116(v0)
8001e2e8:	8fc20020 	lw	v0,32(s8)
8001e2ec:	ac430014 	sw	v1,20(v0)
8001e2f0:	3c028036 	lui	v0,0x8036
8001e2f4:	8c420074 	lw	v0,116(v0)
8001e2f8:	8fc30020 	lw	v1,32(s8)
8001e2fc:	ac4300a4 	sw	v1,164(v0)
8001e300:	8fc20020 	lw	v0,32(s8)
8001e304:	8c430000 	lw	v1,0(v0)
8001e308:	24020003 	li	v0,3
8001e30c:	1462000d 	bne	v1,v0,8001e344 <do_exit+0x228>
8001e310:	00000000 	nop
8001e314:	3c028036 	lui	v0,0x8036
8001e318:	8c420074 	lw	v0,116(v0)
8001e31c:	8c4300a0 	lw	v1,160(v0)
8001e320:	3c028000 	lui	v0,0x8000
8001e324:	34420001 	ori	v0,v0,0x1
8001e328:	14620006 	bne	v1,v0,8001e344 <do_exit+0x228>
8001e32c:	00000000 	nop
8001e330:	3c028036 	lui	v0,0x8036
8001e334:	8c420074 	lw	v0,116(v0)
8001e338:	00402021 	move	a0,v0
8001e33c:	0c007f64 	jal	8001fd90 <wakeup_proc>
8001e340:	00000000 	nop
8001e344:	3c028036 	lui	v0,0x8036
8001e348:	8c420078 	lw	v0,120(v0)
8001e34c:	8c4200a4 	lw	v0,164(v0)
8001e350:	1440ffca 	bnez	v0,8001e27c <do_exit+0x160>
8001e354:	00000000 	nop
8001e358:	8fc4001c 	lw	a0,28(s8)
8001e35c:	0c0073ce 	jal	8001cf38 <__intr_restore>
8001e360:	00000000 	nop
8001e364:	0c007f9e 	jal	8001fe78 <schedule>
8001e368:	00000000 	nop
8001e36c:	3c028036 	lui	v0,0x8036
8001e370:	8c420078 	lw	v0,120(v0)
8001e374:	8c420004 	lw	v0,4(v0)
8001e378:	3c038002 	lui	v1,0x8002
8001e37c:	24644448 	addiu	a0,v1,17480
8001e380:	240501f4 	li	a1,500
8001e384:	3c038002 	lui	v1,0x8002
8001e388:	246644b0 	addiu	a2,v1,17584
8001e38c:	00403821 	move	a3,v0
8001e390:	0c004544 	jal	80011510 <__panic>
8001e394:	00000000 	nop

8001e398 <load_icode>:
8001e398:	27bdff98 	addiu	sp,sp,-104
8001e39c:	afbf0064 	sw	ra,100(sp)
8001e3a0:	afbe0060 	sw	s8,96(sp)
8001e3a4:	03a0f021 	move	s8,sp
8001e3a8:	afc40068 	sw	a0,104(s8)
8001e3ac:	afc5006c 	sw	a1,108(s8)
8001e3b0:	3c028036 	lui	v0,0x8036
8001e3b4:	8c420078 	lw	v0,120(v0)
8001e3b8:	8c420018 	lw	v0,24(v0)
8001e3bc:	10400008 	beqz	v0,8001e3e0 <load_icode+0x48>
8001e3c0:	00000000 	nop
8001e3c4:	3c028002 	lui	v0,0x8002
8001e3c8:	24444448 	addiu	a0,v0,17480
8001e3cc:	240501fe 	li	a1,510
8001e3d0:	3c028002 	lui	v0,0x8002
8001e3d4:	244644d0 	addiu	a2,v0,17616
8001e3d8:	0c004544 	jal	80011510 <__panic>
8001e3dc:	00000000 	nop
8001e3e0:	2402fffc 	li	v0,-4
8001e3e4:	afc20020 	sw	v0,32(s8)
8001e3e8:	0c00662b 	jal	800198ac <mm_create>
8001e3ec:	00000000 	nop
8001e3f0:	afc20044 	sw	v0,68(s8)
8001e3f4:	8fc20044 	lw	v0,68(s8)
8001e3f8:	14400004 	bnez	v0,8001e40c <load_icode+0x74>
8001e3fc:	00000000 	nop
8001e400:	00000000 	nop
8001e404:	08007ad1 	j	8001eb44 <load_icode+0x7ac>
8001e408:	00000000 	nop
8001e40c:	8fc40044 	lw	a0,68(s8)
8001e410:	0c007712 	jal	8001dc48 <setup_pgdir>
8001e414:	00000000 	nop
8001e418:	10400003 	beqz	v0,8001e428 <load_icode+0x90>
8001e41c:	00000000 	nop
8001e420:	08007ada 	j	8001eb68 <load_icode+0x7d0>
8001e424:	00000000 	nop
8001e428:	8fc20068 	lw	v0,104(s8)
8001e42c:	afc20048 	sw	v0,72(s8)
8001e430:	8fc20048 	lw	v0,72(s8)
8001e434:	8c42001c 	lw	v0,28(v0)
8001e438:	8fc30068 	lw	v1,104(s8)
8001e43c:	00621021 	addu	v0,v1,v0
8001e440:	afc20028 	sw	v0,40(s8)
8001e444:	8fc20048 	lw	v0,72(s8)
8001e448:	8c430000 	lw	v1,0(v0)
8001e44c:	3c02464c 	lui	v0,0x464c
8001e450:	3442457f 	ori	v0,v0,0x457f
8001e454:	10620005 	beq	v1,v0,8001e46c <load_icode+0xd4>
8001e458:	00000000 	nop
8001e45c:	2402fff8 	li	v0,-8
8001e460:	afc20020 	sw	v0,32(s8)
8001e464:	08007ad7 	j	8001eb5c <load_icode+0x7c4>
8001e468:	00000000 	nop
8001e46c:	8fc20048 	lw	v0,72(s8)
8001e470:	9442002c 	lhu	v0,44(v0)
8001e474:	00021140 	sll	v0,v0,0x5
8001e478:	8fc30028 	lw	v1,40(s8)
8001e47c:	00621021 	addu	v0,v1,v0
8001e480:	afc2004c 	sw	v0,76(s8)
8001e484:	08007a4c 	j	8001e930 <load_icode+0x598>
8001e488:	00000000 	nop
8001e48c:	8fc20028 	lw	v0,40(s8)
8001e490:	8c430000 	lw	v1,0(v0)
8001e494:	24020001 	li	v0,1
8001e498:	10620003 	beq	v1,v0,8001e4a8 <load_icode+0x110>
8001e49c:	00000000 	nop
8001e4a0:	08007a49 	j	8001e924 <load_icode+0x58c>
8001e4a4:	00000000 	nop
8001e4a8:	8fc20028 	lw	v0,40(s8)
8001e4ac:	8c430010 	lw	v1,16(v0)
8001e4b0:	8fc20028 	lw	v0,40(s8)
8001e4b4:	8c420014 	lw	v0,20(v0)
8001e4b8:	0043102b 	sltu	v0,v0,v1
8001e4bc:	10400005 	beqz	v0,8001e4d4 <load_icode+0x13c>
8001e4c0:	00000000 	nop
8001e4c4:	2402fff8 	li	v0,-8
8001e4c8:	afc20020 	sw	v0,32(s8)
8001e4cc:	08007ad4 	j	8001eb50 <load_icode+0x7b8>
8001e4d0:	00000000 	nop
8001e4d4:	8fc20028 	lw	v0,40(s8)
8001e4d8:	8c420010 	lw	v0,16(v0)
8001e4dc:	14400003 	bnez	v0,8001e4ec <load_icode+0x154>
8001e4e0:	00000000 	nop
8001e4e4:	08007a49 	j	8001e924 <load_icode+0x58c>
8001e4e8:	00000000 	nop
8001e4ec:	afc0002c 	sw	zero,44(s8)
8001e4f0:	24020004 	li	v0,4
8001e4f4:	afc20030 	sw	v0,48(s8)
8001e4f8:	8fc20028 	lw	v0,40(s8)
8001e4fc:	8c420018 	lw	v0,24(v0)
8001e500:	30420001 	andi	v0,v0,0x1
8001e504:	10400004 	beqz	v0,8001e518 <load_icode+0x180>
8001e508:	00000000 	nop
8001e50c:	8fc2002c 	lw	v0,44(s8)
8001e510:	34420004 	ori	v0,v0,0x4
8001e514:	afc2002c 	sw	v0,44(s8)
8001e518:	8fc20028 	lw	v0,40(s8)
8001e51c:	8c420018 	lw	v0,24(v0)
8001e520:	30420002 	andi	v0,v0,0x2
8001e524:	10400004 	beqz	v0,8001e538 <load_icode+0x1a0>
8001e528:	00000000 	nop
8001e52c:	8fc2002c 	lw	v0,44(s8)
8001e530:	34420002 	ori	v0,v0,0x2
8001e534:	afc2002c 	sw	v0,44(s8)
8001e538:	8fc20028 	lw	v0,40(s8)
8001e53c:	8c420018 	lw	v0,24(v0)
8001e540:	30420004 	andi	v0,v0,0x4
8001e544:	10400004 	beqz	v0,8001e558 <load_icode+0x1c0>
8001e548:	00000000 	nop
8001e54c:	8fc2002c 	lw	v0,44(s8)
8001e550:	34420001 	ori	v0,v0,0x1
8001e554:	afc2002c 	sw	v0,44(s8)
8001e558:	8fc2002c 	lw	v0,44(s8)
8001e55c:	30420002 	andi	v0,v0,0x2
8001e560:	10400004 	beqz	v0,8001e574 <load_icode+0x1dc>
8001e564:	00000000 	nop
8001e568:	8fc20030 	lw	v0,48(s8)
8001e56c:	34420002 	ori	v0,v0,0x2
8001e570:	afc20030 	sw	v0,48(s8)
8001e574:	8fc20028 	lw	v0,40(s8)
8001e578:	8c430008 	lw	v1,8(v0)
8001e57c:	8fc20028 	lw	v0,40(s8)
8001e580:	8c420014 	lw	v0,20(v0)
8001e584:	afa00010 	sw	zero,16(sp)
8001e588:	8fc40044 	lw	a0,68(s8)
8001e58c:	00602821 	move	a1,v1
8001e590:	00403021 	move	a2,v0
8001e594:	8fc7002c 	lw	a3,44(s8)
8001e598:	0c0067bb 	jal	80019eec <mm_map>
8001e59c:	00000000 	nop
8001e5a0:	afc20020 	sw	v0,32(s8)
8001e5a4:	8fc20020 	lw	v0,32(s8)
8001e5a8:	10400003 	beqz	v0,8001e5b8 <load_icode+0x220>
8001e5ac:	00000000 	nop
8001e5b0:	08007ad4 	j	8001eb50 <load_icode+0x7b8>
8001e5b4:	00000000 	nop
8001e5b8:	8fc20028 	lw	v0,40(s8)
8001e5bc:	8c420004 	lw	v0,4(v0)
8001e5c0:	8fc30068 	lw	v1,104(s8)
8001e5c4:	00621021 	addu	v0,v1,v0
8001e5c8:	afc20034 	sw	v0,52(s8)
8001e5cc:	8fc20028 	lw	v0,40(s8)
8001e5d0:	8c420008 	lw	v0,8(v0)
8001e5d4:	afc2003c 	sw	v0,60(s8)
8001e5d8:	8fc2003c 	lw	v0,60(s8)
8001e5dc:	afc20050 	sw	v0,80(s8)
8001e5e0:	8fc30050 	lw	v1,80(s8)
8001e5e4:	2402f000 	li	v0,-4096
8001e5e8:	00621024 	and	v0,v1,v0
8001e5ec:	afc20040 	sw	v0,64(s8)
8001e5f0:	2402fffc 	li	v0,-4
8001e5f4:	afc20020 	sw	v0,32(s8)
8001e5f8:	8fc20028 	lw	v0,40(s8)
8001e5fc:	8c430008 	lw	v1,8(v0)
8001e600:	8fc20028 	lw	v0,40(s8)
8001e604:	8c420010 	lw	v0,16(v0)
8001e608:	00621021 	addu	v0,v1,v0
8001e60c:	afc20054 	sw	v0,84(s8)
8001e610:	080079bc 	j	8001e6f0 <load_icode+0x358>
8001e614:	00000000 	nop
8001e618:	8fc20044 	lw	v0,68(s8)
8001e61c:	8c42000c 	lw	v0,12(v0)
8001e620:	00402021 	move	a0,v0
8001e624:	8fc50040 	lw	a1,64(s8)
8001e628:	8fc60030 	lw	a2,48(s8)
8001e62c:	0c0058af 	jal	800162bc <pgdir_alloc_page>
8001e630:	00000000 	nop
8001e634:	afc20024 	sw	v0,36(s8)
8001e638:	8fc20024 	lw	v0,36(s8)
8001e63c:	14400003 	bnez	v0,8001e64c <load_icode+0x2b4>
8001e640:	00000000 	nop
8001e644:	08007ad4 	j	8001eb50 <load_icode+0x7b8>
8001e648:	00000000 	nop
8001e64c:	8fc3003c 	lw	v1,60(s8)
8001e650:	8fc20040 	lw	v0,64(s8)
8001e654:	00621023 	subu	v0,v1,v0
8001e658:	afc20058 	sw	v0,88(s8)
8001e65c:	24031000 	li	v1,4096
8001e660:	8fc20058 	lw	v0,88(s8)
8001e664:	00621023 	subu	v0,v1,v0
8001e668:	afc20038 	sw	v0,56(s8)
8001e66c:	8fc20040 	lw	v0,64(s8)
8001e670:	24421000 	addiu	v0,v0,4096
8001e674:	afc20040 	sw	v0,64(s8)
8001e678:	8fc30054 	lw	v1,84(s8)
8001e67c:	8fc20040 	lw	v0,64(s8)
8001e680:	0062102b 	sltu	v0,v1,v0
8001e684:	10400007 	beqz	v0,8001e6a4 <load_icode+0x30c>
8001e688:	00000000 	nop
8001e68c:	8fc30054 	lw	v1,84(s8)
8001e690:	8fc20040 	lw	v0,64(s8)
8001e694:	00621023 	subu	v0,v1,v0
8001e698:	8fc30038 	lw	v1,56(s8)
8001e69c:	00621021 	addu	v0,v1,v0
8001e6a0:	afc20038 	sw	v0,56(s8)
8001e6a4:	8fc40024 	lw	a0,36(s8)
8001e6a8:	0c007436 	jal	8001d0d8 <page2kva>
8001e6ac:	00000000 	nop
8001e6b0:	00401821 	move	v1,v0
8001e6b4:	8fc20058 	lw	v0,88(s8)
8001e6b8:	00621021 	addu	v0,v1,v0
8001e6bc:	00402021 	move	a0,v0
8001e6c0:	8fc50034 	lw	a1,52(s8)
8001e6c4:	8fc60038 	lw	a2,56(s8)
8001e6c8:	0c0087de 	jal	80021f78 <memcpy>
8001e6cc:	00000000 	nop
8001e6d0:	8fc3003c 	lw	v1,60(s8)
8001e6d4:	8fc20038 	lw	v0,56(s8)
8001e6d8:	00621021 	addu	v0,v1,v0
8001e6dc:	afc2003c 	sw	v0,60(s8)
8001e6e0:	8fc30034 	lw	v1,52(s8)
8001e6e4:	8fc20038 	lw	v0,56(s8)
8001e6e8:	00621021 	addu	v0,v1,v0
8001e6ec:	afc20034 	sw	v0,52(s8)
8001e6f0:	8fc3003c 	lw	v1,60(s8)
8001e6f4:	8fc20054 	lw	v0,84(s8)
8001e6f8:	0062102b 	sltu	v0,v1,v0
8001e6fc:	1440ffc6 	bnez	v0,8001e618 <load_icode+0x280>
8001e700:	00000000 	nop
8001e704:	8fc20028 	lw	v0,40(s8)
8001e708:	8c430008 	lw	v1,8(v0)
8001e70c:	8fc20028 	lw	v0,40(s8)
8001e710:	8c420014 	lw	v0,20(v0)
8001e714:	00621021 	addu	v0,v1,v0
8001e718:	afc20054 	sw	v0,84(s8)
8001e71c:	8fc3003c 	lw	v1,60(s8)
8001e720:	8fc20040 	lw	v0,64(s8)
8001e724:	0062102b 	sltu	v0,v1,v0
8001e728:	10400045 	beqz	v0,8001e840 <load_icode+0x4a8>
8001e72c:	00000000 	nop
8001e730:	8fc3003c 	lw	v1,60(s8)
8001e734:	8fc20054 	lw	v0,84(s8)
8001e738:	14620003 	bne	v1,v0,8001e748 <load_icode+0x3b0>
8001e73c:	00000000 	nop
8001e740:	08007a49 	j	8001e924 <load_icode+0x58c>
8001e744:	00000000 	nop
8001e748:	8fc3003c 	lw	v1,60(s8)
8001e74c:	8fc20040 	lw	v0,64(s8)
8001e750:	00621023 	subu	v0,v1,v0
8001e754:	24421000 	addiu	v0,v0,4096
8001e758:	afc20058 	sw	v0,88(s8)
8001e75c:	24031000 	li	v1,4096
8001e760:	8fc20058 	lw	v0,88(s8)
8001e764:	00621023 	subu	v0,v1,v0
8001e768:	afc20038 	sw	v0,56(s8)
8001e76c:	8fc30054 	lw	v1,84(s8)
8001e770:	8fc20040 	lw	v0,64(s8)
8001e774:	0062102b 	sltu	v0,v1,v0
8001e778:	10400007 	beqz	v0,8001e798 <load_icode+0x400>
8001e77c:	00000000 	nop
8001e780:	8fc30054 	lw	v1,84(s8)
8001e784:	8fc20040 	lw	v0,64(s8)
8001e788:	00621023 	subu	v0,v1,v0
8001e78c:	8fc30038 	lw	v1,56(s8)
8001e790:	00621021 	addu	v0,v1,v0
8001e794:	afc20038 	sw	v0,56(s8)
8001e798:	8fc40024 	lw	a0,36(s8)
8001e79c:	0c007436 	jal	8001d0d8 <page2kva>
8001e7a0:	00000000 	nop
8001e7a4:	00401821 	move	v1,v0
8001e7a8:	8fc20058 	lw	v0,88(s8)
8001e7ac:	00621021 	addu	v0,v1,v0
8001e7b0:	00402021 	move	a0,v0
8001e7b4:	00002821 	move	a1,zero
8001e7b8:	8fc60038 	lw	a2,56(s8)
8001e7bc:	0c00877d 	jal	80021df4 <memset>
8001e7c0:	00000000 	nop
8001e7c4:	8fc3003c 	lw	v1,60(s8)
8001e7c8:	8fc20038 	lw	v0,56(s8)
8001e7cc:	00621021 	addu	v0,v1,v0
8001e7d0:	afc2003c 	sw	v0,60(s8)
8001e7d4:	8fc30054 	lw	v1,84(s8)
8001e7d8:	8fc20040 	lw	v0,64(s8)
8001e7dc:	0062102b 	sltu	v0,v1,v0
8001e7e0:	10400005 	beqz	v0,8001e7f8 <load_icode+0x460>
8001e7e4:	00000000 	nop
8001e7e8:	8fc3003c 	lw	v1,60(s8)
8001e7ec:	8fc20054 	lw	v0,84(s8)
8001e7f0:	10620013 	beq	v1,v0,8001e840 <load_icode+0x4a8>
8001e7f4:	00000000 	nop
8001e7f8:	8fc30054 	lw	v1,84(s8)
8001e7fc:	8fc20040 	lw	v0,64(s8)
8001e800:	0062102b 	sltu	v0,v1,v0
8001e804:	14400005 	bnez	v0,8001e81c <load_icode+0x484>
8001e808:	00000000 	nop
8001e80c:	8fc3003c 	lw	v1,60(s8)
8001e810:	8fc20040 	lw	v0,64(s8)
8001e814:	1062000a 	beq	v1,v0,8001e840 <load_icode+0x4a8>
8001e818:	00000000 	nop
8001e81c:	3c028002 	lui	v0,0x8002
8001e820:	24444448 	addiu	a0,v0,17480
8001e824:	24050250 	li	a1,592
8001e828:	3c028002 	lui	v0,0x8002
8001e82c:	2446445c 	addiu	a2,v0,17500
8001e830:	3c028002 	lui	v0,0x8002
8001e834:	244744f8 	addiu	a3,v0,17656
8001e838:	0c004544 	jal	80011510 <__panic>
8001e83c:	00000000 	nop
8001e840:	08007a44 	j	8001e910 <load_icode+0x578>
8001e844:	00000000 	nop
8001e848:	8fc20044 	lw	v0,68(s8)
8001e84c:	8c42000c 	lw	v0,12(v0)
8001e850:	00402021 	move	a0,v0
8001e854:	8fc50040 	lw	a1,64(s8)
8001e858:	8fc60030 	lw	a2,48(s8)
8001e85c:	0c0058af 	jal	800162bc <pgdir_alloc_page>
8001e860:	00000000 	nop
8001e864:	afc20024 	sw	v0,36(s8)
8001e868:	8fc20024 	lw	v0,36(s8)
8001e86c:	14400003 	bnez	v0,8001e87c <load_icode+0x4e4>
8001e870:	00000000 	nop
8001e874:	08007ad4 	j	8001eb50 <load_icode+0x7b8>
8001e878:	00000000 	nop
8001e87c:	8fc3003c 	lw	v1,60(s8)
8001e880:	8fc20040 	lw	v0,64(s8)
8001e884:	00621023 	subu	v0,v1,v0
8001e888:	afc20058 	sw	v0,88(s8)
8001e88c:	24031000 	li	v1,4096
8001e890:	8fc20058 	lw	v0,88(s8)
8001e894:	00621023 	subu	v0,v1,v0
8001e898:	afc20038 	sw	v0,56(s8)
8001e89c:	8fc20040 	lw	v0,64(s8)
8001e8a0:	24421000 	addiu	v0,v0,4096
8001e8a4:	afc20040 	sw	v0,64(s8)
8001e8a8:	8fc30054 	lw	v1,84(s8)
8001e8ac:	8fc20040 	lw	v0,64(s8)
8001e8b0:	0062102b 	sltu	v0,v1,v0
8001e8b4:	10400007 	beqz	v0,8001e8d4 <load_icode+0x53c>
8001e8b8:	00000000 	nop
8001e8bc:	8fc30054 	lw	v1,84(s8)
8001e8c0:	8fc20040 	lw	v0,64(s8)
8001e8c4:	00621023 	subu	v0,v1,v0
8001e8c8:	8fc30038 	lw	v1,56(s8)
8001e8cc:	00621021 	addu	v0,v1,v0
8001e8d0:	afc20038 	sw	v0,56(s8)
8001e8d4:	8fc40024 	lw	a0,36(s8)
8001e8d8:	0c007436 	jal	8001d0d8 <page2kva>
8001e8dc:	00000000 	nop
8001e8e0:	00401821 	move	v1,v0
8001e8e4:	8fc20058 	lw	v0,88(s8)
8001e8e8:	00621021 	addu	v0,v1,v0
8001e8ec:	00402021 	move	a0,v0
8001e8f0:	00002821 	move	a1,zero
8001e8f4:	8fc60038 	lw	a2,56(s8)
8001e8f8:	0c00877d 	jal	80021df4 <memset>
8001e8fc:	00000000 	nop
8001e900:	8fc3003c 	lw	v1,60(s8)
8001e904:	8fc20038 	lw	v0,56(s8)
8001e908:	00621021 	addu	v0,v1,v0
8001e90c:	afc2003c 	sw	v0,60(s8)
8001e910:	8fc3003c 	lw	v1,60(s8)
8001e914:	8fc20054 	lw	v0,84(s8)
8001e918:	0062102b 	sltu	v0,v1,v0
8001e91c:	1440ffca 	bnez	v0,8001e848 <load_icode+0x4b0>
8001e920:	00000000 	nop
8001e924:	8fc20028 	lw	v0,40(s8)
8001e928:	24420020 	addiu	v0,v0,32
8001e92c:	afc20028 	sw	v0,40(s8)
8001e930:	8fc30028 	lw	v1,40(s8)
8001e934:	8fc2004c 	lw	v0,76(s8)
8001e938:	0062102b 	sltu	v0,v1,v0
8001e93c:	1440fed3 	bnez	v0,8001e48c <load_icode+0xf4>
8001e940:	00000000 	nop
8001e944:	2402000b 	li	v0,11
8001e948:	afc2002c 	sw	v0,44(s8)
8001e94c:	afa00010 	sw	zero,16(sp)
8001e950:	8fc40044 	lw	a0,68(s8)
8001e954:	3c057ff0 	lui	a1,0x7ff0
8001e958:	3c060010 	lui	a2,0x10
8001e95c:	8fc7002c 	lw	a3,44(s8)
8001e960:	0c0067bb 	jal	80019eec <mm_map>
8001e964:	00000000 	nop
8001e968:	afc20020 	sw	v0,32(s8)
8001e96c:	8fc20020 	lw	v0,32(s8)
8001e970:	10400003 	beqz	v0,8001e980 <load_icode+0x5e8>
8001e974:	00000000 	nop
8001e978:	08007ad4 	j	8001eb50 <load_icode+0x7b8>
8001e97c:	00000000 	nop
8001e980:	8fc20044 	lw	v0,68(s8)
8001e984:	8c42000c 	lw	v0,12(v0)
8001e988:	00402021 	move	a0,v0
8001e98c:	3c027fff 	lui	v0,0x7fff
8001e990:	3445f000 	ori	a1,v0,0xf000
8001e994:	24060007 	li	a2,7
8001e998:	0c0058af 	jal	800162bc <pgdir_alloc_page>
8001e99c:	00000000 	nop
8001e9a0:	1440000a 	bnez	v0,8001e9cc <load_icode+0x634>
8001e9a4:	00000000 	nop
8001e9a8:	3c028002 	lui	v0,0x8002
8001e9ac:	24444448 	addiu	a0,v0,17480
8001e9b0:	24050263 	li	a1,611
8001e9b4:	3c028002 	lui	v0,0x8002
8001e9b8:	2446445c 	addiu	a2,v0,17500
8001e9bc:	3c028002 	lui	v0,0x8002
8001e9c0:	24474534 	addiu	a3,v0,17716
8001e9c4:	0c004544 	jal	80011510 <__panic>
8001e9c8:	00000000 	nop
8001e9cc:	8fc20044 	lw	v0,68(s8)
8001e9d0:	8c42000c 	lw	v0,12(v0)
8001e9d4:	00402021 	move	a0,v0
8001e9d8:	3c027fff 	lui	v0,0x7fff
8001e9dc:	3445e000 	ori	a1,v0,0xe000
8001e9e0:	24060007 	li	a2,7
8001e9e4:	0c0058af 	jal	800162bc <pgdir_alloc_page>
8001e9e8:	00000000 	nop
8001e9ec:	1440000a 	bnez	v0,8001ea18 <load_icode+0x680>
8001e9f0:	00000000 	nop
8001e9f4:	3c028002 	lui	v0,0x8002
8001e9f8:	24444448 	addiu	a0,v0,17480
8001e9fc:	24050264 	li	a1,612
8001ea00:	3c028002 	lui	v0,0x8002
8001ea04:	2446445c 	addiu	a2,v0,17500
8001ea08:	3c028002 	lui	v0,0x8002
8001ea0c:	24474578 	addiu	a3,v0,17784
8001ea10:	0c004544 	jal	80011510 <__panic>
8001ea14:	00000000 	nop
8001ea18:	8fc20044 	lw	v0,68(s8)
8001ea1c:	8c42000c 	lw	v0,12(v0)
8001ea20:	00402021 	move	a0,v0
8001ea24:	3c027fff 	lui	v0,0x7fff
8001ea28:	3445d000 	ori	a1,v0,0xd000
8001ea2c:	24060007 	li	a2,7
8001ea30:	0c0058af 	jal	800162bc <pgdir_alloc_page>
8001ea34:	00000000 	nop
8001ea38:	1440000a 	bnez	v0,8001ea64 <load_icode+0x6cc>
8001ea3c:	00000000 	nop
8001ea40:	3c028002 	lui	v0,0x8002
8001ea44:	24444448 	addiu	a0,v0,17480
8001ea48:	24050265 	li	a1,613
8001ea4c:	3c028002 	lui	v0,0x8002
8001ea50:	2446445c 	addiu	a2,v0,17500
8001ea54:	3c028002 	lui	v0,0x8002
8001ea58:	244745bc 	addiu	a3,v0,17852
8001ea5c:	0c004544 	jal	80011510 <__panic>
8001ea60:	00000000 	nop
8001ea64:	8fc20044 	lw	v0,68(s8)
8001ea68:	8c42000c 	lw	v0,12(v0)
8001ea6c:	00402021 	move	a0,v0
8001ea70:	3c027fff 	lui	v0,0x7fff
8001ea74:	3445c000 	ori	a1,v0,0xc000
8001ea78:	24060007 	li	a2,7
8001ea7c:	0c0058af 	jal	800162bc <pgdir_alloc_page>
8001ea80:	00000000 	nop
8001ea84:	1440000a 	bnez	v0,8001eab0 <load_icode+0x718>
8001ea88:	00000000 	nop
8001ea8c:	3c028002 	lui	v0,0x8002
8001ea90:	24444448 	addiu	a0,v0,17480
8001ea94:	24050266 	li	a1,614
8001ea98:	3c028002 	lui	v0,0x8002
8001ea9c:	2446445c 	addiu	a2,v0,17500
8001eaa0:	3c028002 	lui	v0,0x8002
8001eaa4:	24474600 	addiu	a3,v0,17920
8001eaa8:	0c004544 	jal	80011510 <__panic>
8001eaac:	00000000 	nop
8001eab0:	8fc40044 	lw	a0,68(s8)
8001eab4:	0c007477 	jal	8001d1dc <mm_count_inc>
8001eab8:	00000000 	nop
8001eabc:	3c028036 	lui	v0,0x8036
8001eac0:	8c420078 	lw	v0,120(v0)
8001eac4:	8fc30044 	lw	v1,68(s8)
8001eac8:	ac430018 	sw	v1,24(v0)
8001eacc:	3c028036 	lui	v0,0x8036
8001ead0:	8c420078 	lw	v0,120(v0)
8001ead4:	8fc30044 	lw	v1,68(s8)
8001ead8:	8c63000c 	lw	v1,12(v1)
8001eadc:	ac430050 	sw	v1,80(v0)
8001eae0:	8fc20044 	lw	v0,68(s8)
8001eae4:	8c42000c 	lw	v0,12(v0)
8001eae8:	00402021 	move	a0,v0
8001eaec:	0c00643c 	jal	800190f0 <load_pgdir>
8001eaf0:	00000000 	nop
8001eaf4:	3c028036 	lui	v0,0x8036
8001eaf8:	8c420078 	lw	v0,120(v0)
8001eafc:	8c42004c 	lw	v0,76(v0)
8001eb00:	afc2005c 	sw	v0,92(s8)
8001eb04:	8fc4005c 	lw	a0,92(s8)
8001eb08:	00002821 	move	a1,zero
8001eb0c:	24060098 	li	a2,152
8001eb10:	0c00877d 	jal	80021df4 <memset>
8001eb14:	00000000 	nop
8001eb18:	8fc2005c 	lw	v0,92(s8)
8001eb1c:	3c038000 	lui	v1,0x8000
8001eb20:	ac430074 	sw	v1,116(v0)
8001eb24:	8fc20048 	lw	v0,72(s8)
8001eb28:	8c430018 	lw	v1,24(v0)
8001eb2c:	8fc2005c 	lw	v0,92(s8)
8001eb30:	ac430088 	sw	v1,136(v0)
8001eb34:	8fc2005c 	lw	v0,92(s8)
8001eb38:	24030013 	li	v1,19
8001eb3c:	ac430080 	sw	v1,128(v0)
8001eb40:	afc00020 	sw	zero,32(s8)
8001eb44:	8fc20020 	lw	v0,32(s8)
8001eb48:	08007adf 	j	8001eb7c <load_icode+0x7e4>
8001eb4c:	00000000 	nop
8001eb50:	8fc40044 	lw	a0,68(s8)
8001eb54:	0c006879 	jal	8001a1e4 <exit_mmap>
8001eb58:	00000000 	nop
8001eb5c:	8fc40044 	lw	a0,68(s8)
8001eb60:	0c00774a 	jal	8001dd28 <put_pgdir>
8001eb64:	00000000 	nop
8001eb68:	8fc40044 	lw	a0,68(s8)
8001eb6c:	0c00677e 	jal	80019df8 <mm_destroy>
8001eb70:	00000000 	nop
8001eb74:	08007ad1 	j	8001eb44 <load_icode+0x7ac>
8001eb78:	00000000 	nop
8001eb7c:	03c0e821 	move	sp,s8
8001eb80:	8fbf0064 	lw	ra,100(sp)
8001eb84:	8fbe0060 	lw	s8,96(sp)
8001eb88:	27bd0068 	addiu	sp,sp,104
8001eb8c:	03e00008 	jr	ra
8001eb90:	00000000 	nop

8001eb94 <do_execve>:
8001eb94:	27bdffa0 	addiu	sp,sp,-96
8001eb98:	afbf005c 	sw	ra,92(sp)
8001eb9c:	afbe0058 	sw	s8,88(sp)
8001eba0:	03a0f021 	move	s8,sp
8001eba4:	afc40060 	sw	a0,96(s8)
8001eba8:	afc50064 	sw	a1,100(s8)
8001ebac:	afc60068 	sw	a2,104(s8)
8001ebb0:	afc7006c 	sw	a3,108(s8)
8001ebb4:	3c028036 	lui	v0,0x8036
8001ebb8:	8c420078 	lw	v0,120(v0)
8001ebbc:	8c420018 	lw	v0,24(v0)
8001ebc0:	afc20018 	sw	v0,24(s8)
8001ebc4:	8fc20060 	lw	v0,96(s8)
8001ebc8:	8fc40018 	lw	a0,24(s8)
8001ebcc:	00402821 	move	a1,v0
8001ebd0:	8fc60064 	lw	a2,100(s8)
8001ebd4:	00003821 	move	a3,zero
8001ebd8:	0c006c31 	jal	8001b0c4 <user_mem_check>
8001ebdc:	00000000 	nop
8001ebe0:	14400004 	bnez	v0,8001ebf4 <do_execve+0x60>
8001ebe4:	00000000 	nop
8001ebe8:	2402fffd 	li	v0,-3
8001ebec:	08007b44 	j	8001ed10 <do_execve+0x17c>
8001ebf0:	00000000 	nop
8001ebf4:	8fc20064 	lw	v0,100(s8)
8001ebf8:	2c420033 	sltiu	v0,v0,51
8001ebfc:	14400003 	bnez	v0,8001ec0c <do_execve+0x78>
8001ec00:	00000000 	nop
8001ec04:	24020032 	li	v0,50
8001ec08:	afc20064 	sw	v0,100(s8)
8001ec0c:	27c20020 	addiu	v0,s8,32
8001ec10:	00402021 	move	a0,v0
8001ec14:	00002821 	move	a1,zero
8001ec18:	24060033 	li	a2,51
8001ec1c:	0c00877d 	jal	80021df4 <memset>
8001ec20:	00000000 	nop
8001ec24:	27c20020 	addiu	v0,s8,32
8001ec28:	00402021 	move	a0,v0
8001ec2c:	8fc50060 	lw	a1,96(s8)
8001ec30:	8fc60064 	lw	a2,100(s8)
8001ec34:	0c0087de 	jal	80021f78 <memcpy>
8001ec38:	00000000 	nop
8001ec3c:	8fc20018 	lw	v0,24(s8)
8001ec40:	10400017 	beqz	v0,8001eca0 <do_execve+0x10c>
8001ec44:	00000000 	nop
8001ec48:	3c028036 	lui	v0,0x8036
8001ec4c:	8c420034 	lw	v0,52(v0)
8001ec50:	00402021 	move	a0,v0
8001ec54:	0c00643c 	jal	800190f0 <load_pgdir>
8001ec58:	00000000 	nop
8001ec5c:	8fc40018 	lw	a0,24(s8)
8001ec60:	0c007487 	jal	8001d21c <mm_count_dec>
8001ec64:	00000000 	nop
8001ec68:	1440000a 	bnez	v0,8001ec94 <do_execve+0x100>
8001ec6c:	00000000 	nop
8001ec70:	8fc40018 	lw	a0,24(s8)
8001ec74:	0c006879 	jal	8001a1e4 <exit_mmap>
8001ec78:	00000000 	nop
8001ec7c:	8fc40018 	lw	a0,24(s8)
8001ec80:	0c00774a 	jal	8001dd28 <put_pgdir>
8001ec84:	00000000 	nop
8001ec88:	8fc40018 	lw	a0,24(s8)
8001ec8c:	0c00677e 	jal	80019df8 <mm_destroy>
8001ec90:	00000000 	nop
8001ec94:	3c028036 	lui	v0,0x8036
8001ec98:	8c420078 	lw	v0,120(v0)
8001ec9c:	ac400018 	sw	zero,24(v0)
8001eca0:	8fc40068 	lw	a0,104(s8)
8001eca4:	8fc5006c 	lw	a1,108(s8)
8001eca8:	0c0078e6 	jal	8001e398 <load_icode>
8001ecac:	00000000 	nop
8001ecb0:	afc2001c 	sw	v0,28(s8)
8001ecb4:	8fc2001c 	lw	v0,28(s8)
8001ecb8:	1040000d 	beqz	v0,8001ecf0 <do_execve+0x15c>
8001ecbc:	00000000 	nop
8001ecc0:	00000000 	nop
8001ecc4:	8fc4001c 	lw	a0,28(s8)
8001ecc8:	0c007847 	jal	8001e11c <do_exit>
8001eccc:	00000000 	nop
8001ecd0:	3c028002 	lui	v0,0x8002
8001ecd4:	24444448 	addiu	a0,v0,17480
8001ecd8:	240502ac 	li	a1,684
8001ecdc:	3c028002 	lui	v0,0x8002
8001ece0:	24464644 	addiu	a2,v0,17988
8001ece4:	8fc7001c 	lw	a3,28(s8)
8001ece8:	0c004544 	jal	80011510 <__panic>
8001ecec:	00000000 	nop
8001ecf0:	3c028036 	lui	v0,0x8036
8001ecf4:	8c430078 	lw	v1,120(v0)
8001ecf8:	27c20020 	addiu	v0,s8,32
8001ecfc:	00602021 	move	a0,v1
8001ed00:	00402821 	move	a1,v0
8001ed04:	0c0074ef 	jal	8001d3bc <set_proc_name>
8001ed08:	00000000 	nop
8001ed0c:	00001021 	move	v0,zero
8001ed10:	03c0e821 	move	sp,s8
8001ed14:	8fbf005c 	lw	ra,92(sp)
8001ed18:	8fbe0058 	lw	s8,88(sp)
8001ed1c:	27bd0060 	addiu	sp,sp,96
8001ed20:	03e00008 	jr	ra
8001ed24:	00000000 	nop

8001ed28 <do_yield>:
8001ed28:	27bdfff8 	addiu	sp,sp,-8
8001ed2c:	afbe0004 	sw	s8,4(sp)
8001ed30:	03a0f021 	move	s8,sp
8001ed34:	3c028036 	lui	v0,0x8036
8001ed38:	8c420078 	lw	v0,120(v0)
8001ed3c:	24030001 	li	v1,1
8001ed40:	ac430010 	sw	v1,16(v0)
8001ed44:	00001021 	move	v0,zero
8001ed48:	03c0e821 	move	sp,s8
8001ed4c:	8fbe0004 	lw	s8,4(sp)
8001ed50:	27bd0008 	addiu	sp,sp,8
8001ed54:	03e00008 	jr	ra
8001ed58:	00000000 	nop

8001ed5c <do_wait>:
8001ed5c:	27bdffd0 	addiu	sp,sp,-48
8001ed60:	afbf002c 	sw	ra,44(sp)
8001ed64:	afbe0028 	sw	s8,40(sp)
8001ed68:	03a0f021 	move	s8,sp
8001ed6c:	afc40030 	sw	a0,48(s8)
8001ed70:	afc50034 	sw	a1,52(s8)
8001ed74:	3c028036 	lui	v0,0x8036
8001ed78:	8c420078 	lw	v0,120(v0)
8001ed7c:	8c420018 	lw	v0,24(v0)
8001ed80:	afc20020 	sw	v0,32(s8)
8001ed84:	8fc20034 	lw	v0,52(s8)
8001ed88:	1040000d 	beqz	v0,8001edc0 <do_wait+0x64>
8001ed8c:	00000000 	nop
8001ed90:	8fc20034 	lw	v0,52(s8)
8001ed94:	8fc40020 	lw	a0,32(s8)
8001ed98:	00402821 	move	a1,v0
8001ed9c:	24060004 	li	a2,4
8001eda0:	24070001 	li	a3,1
8001eda4:	0c006c31 	jal	8001b0c4 <user_mem_check>
8001eda8:	00000000 	nop
8001edac:	14400004 	bnez	v0,8001edc0 <do_wait+0x64>
8001edb0:	00000000 	nop
8001edb4:	2402fffd 	li	v0,-3
8001edb8:	08007be8 	j	8001efa0 <do_wait+0x244>
8001edbc:	00000000 	nop
8001edc0:	afc0001c 	sw	zero,28(s8)
8001edc4:	8fc20030 	lw	v0,48(s8)
8001edc8:	10400017 	beqz	v0,8001ee28 <do_wait+0xcc>
8001edcc:	00000000 	nop
8001edd0:	8fc40030 	lw	a0,48(s8)
8001edd4:	0c007688 	jal	8001da20 <find_proc>
8001edd8:	00000000 	nop
8001eddc:	afc20018 	sw	v0,24(s8)
8001ede0:	8fc20018 	lw	v0,24(s8)
8001ede4:	10400025 	beqz	v0,8001ee7c <do_wait+0x120>
8001ede8:	00000000 	nop
8001edec:	8fc20018 	lw	v0,24(s8)
8001edf0:	8c430014 	lw	v1,20(v0)
8001edf4:	3c028036 	lui	v0,0x8036
8001edf8:	8c420078 	lw	v0,120(v0)
8001edfc:	1462001f 	bne	v1,v0,8001ee7c <do_wait+0x120>
8001ee00:	00000000 	nop
8001ee04:	24020001 	li	v0,1
8001ee08:	afc2001c 	sw	v0,28(s8)
8001ee0c:	8fc20018 	lw	v0,24(s8)
8001ee10:	8c430000 	lw	v1,0(v0)
8001ee14:	24020003 	li	v0,3
8001ee18:	14620018 	bne	v1,v0,8001ee7c <do_wait+0x120>
8001ee1c:	00000000 	nop
8001ee20:	08007bbd 	j	8001eef4 <do_wait+0x198>
8001ee24:	00000000 	nop
8001ee28:	3c028036 	lui	v0,0x8036
8001ee2c:	8c420078 	lw	v0,120(v0)
8001ee30:	8c4200a4 	lw	v0,164(v0)
8001ee34:	afc20018 	sw	v0,24(s8)
8001ee38:	08007b9c 	j	8001ee70 <do_wait+0x114>
8001ee3c:	00000000 	nop
8001ee40:	24020001 	li	v0,1
8001ee44:	afc2001c 	sw	v0,28(s8)
8001ee48:	8fc20018 	lw	v0,24(s8)
8001ee4c:	8c430000 	lw	v1,0(v0)
8001ee50:	24020003 	li	v0,3
8001ee54:	14620003 	bne	v1,v0,8001ee64 <do_wait+0x108>
8001ee58:	00000000 	nop
8001ee5c:	08007bbd 	j	8001eef4 <do_wait+0x198>
8001ee60:	00000000 	nop
8001ee64:	8fc20018 	lw	v0,24(s8)
8001ee68:	8c4200ac 	lw	v0,172(v0)
8001ee6c:	afc20018 	sw	v0,24(s8)
8001ee70:	8fc20018 	lw	v0,24(s8)
8001ee74:	1440fff2 	bnez	v0,8001ee40 <do_wait+0xe4>
8001ee78:	00000000 	nop
8001ee7c:	8fc2001c 	lw	v0,28(s8)
8001ee80:	10400019 	beqz	v0,8001eee8 <do_wait+0x18c>
8001ee84:	00000000 	nop
8001ee88:	3c028036 	lui	v0,0x8036
8001ee8c:	8c420078 	lw	v0,120(v0)
8001ee90:	24030001 	li	v1,1
8001ee94:	ac430000 	sw	v1,0(v0)
8001ee98:	3c028036 	lui	v0,0x8036
8001ee9c:	8c420078 	lw	v0,120(v0)
8001eea0:	3c038000 	lui	v1,0x8000
8001eea4:	34630001 	ori	v1,v1,0x1
8001eea8:	ac4300a0 	sw	v1,160(v0)
8001eeac:	0c007f9e 	jal	8001fe78 <schedule>
8001eeb0:	00000000 	nop
8001eeb4:	3c028036 	lui	v0,0x8036
8001eeb8:	8c420078 	lw	v0,120(v0)
8001eebc:	8c420054 	lw	v0,84(v0)
8001eec0:	30420001 	andi	v0,v0,0x1
8001eec4:	10400006 	beqz	v0,8001eee0 <do_wait+0x184>
8001eec8:	00000000 	nop
8001eecc:	2404fff7 	li	a0,-9
8001eed0:	0c007847 	jal	8001e11c <do_exit>
8001eed4:	00000000 	nop
8001eed8:	08007b70 	j	8001edc0 <do_wait+0x64>
8001eedc:	00000000 	nop
8001eee0:	08007b70 	j	8001edc0 <do_wait+0x64>
8001eee4:	00000000 	nop
8001eee8:	2402fffe 	li	v0,-2
8001eeec:	08007be8 	j	8001efa0 <do_wait+0x244>
8001eef0:	00000000 	nop
8001eef4:	3c028036 	lui	v0,0x8036
8001eef8:	8c420070 	lw	v0,112(v0)
8001eefc:	8fc30018 	lw	v1,24(s8)
8001ef00:	10620006 	beq	v1,v0,8001ef1c <do_wait+0x1c0>
8001ef04:	00000000 	nop
8001ef08:	3c028036 	lui	v0,0x8036
8001ef0c:	8c420074 	lw	v0,116(v0)
8001ef10:	8fc30018 	lw	v1,24(s8)
8001ef14:	14620008 	bne	v1,v0,8001ef38 <do_wait+0x1dc>
8001ef18:	00000000 	nop
8001ef1c:	3c028002 	lui	v0,0x8002
8001ef20:	24444448 	addiu	a0,v0,17480
8001ef24:	240502e5 	li	a1,741
8001ef28:	3c028002 	lui	v0,0x8002
8001ef2c:	24464658 	addiu	a2,v0,18008
8001ef30:	0c004544 	jal	80011510 <__panic>
8001ef34:	00000000 	nop
8001ef38:	8fc20034 	lw	v0,52(s8)
8001ef3c:	10400005 	beqz	v0,8001ef54 <do_wait+0x1f8>
8001ef40:	00000000 	nop
8001ef44:	8fc20018 	lw	v0,24(s8)
8001ef48:	8c43009c 	lw	v1,156(v0)
8001ef4c:	8fc20034 	lw	v0,52(s8)
8001ef50:	ac430000 	sw	v1,0(v0)
8001ef54:	0c0073b8 	jal	8001cee0 <__intr_save>
8001ef58:	00000000 	nop
8001ef5c:	afc20024 	sw	v0,36(s8)
8001ef60:	8fc40018 	lw	a0,24(s8)
8001ef64:	0c007670 	jal	8001d9c0 <unhash_proc>
8001ef68:	00000000 	nop
8001ef6c:	8fc40018 	lw	a0,24(s8)
8001ef70:	0c007561 	jal	8001d584 <remove_links>
8001ef74:	00000000 	nop
8001ef78:	8fc40024 	lw	a0,36(s8)
8001ef7c:	0c0073ce 	jal	8001cf38 <__intr_restore>
8001ef80:	00000000 	nop
8001ef84:	8fc40018 	lw	a0,24(s8)
8001ef88:	0c0076fe 	jal	8001dbf8 <put_kstack>
8001ef8c:	00000000 	nop
8001ef90:	8fc40018 	lw	a0,24(s8)
8001ef94:	0c0052b2 	jal	80014ac8 <kfree>
8001ef98:	00000000 	nop
8001ef9c:	00001021 	move	v0,zero
8001efa0:	03c0e821 	move	sp,s8
8001efa4:	8fbf002c 	lw	ra,44(sp)
8001efa8:	8fbe0028 	lw	s8,40(sp)
8001efac:	27bd0030 	addiu	sp,sp,48
8001efb0:	03e00008 	jr	ra
8001efb4:	00000000 	nop

8001efb8 <do_kill>:
8001efb8:	27bdffd8 	addiu	sp,sp,-40
8001efbc:	afbf0024 	sw	ra,36(sp)
8001efc0:	afbe0020 	sw	s8,32(sp)
8001efc4:	03a0f021 	move	s8,sp
8001efc8:	afc40028 	sw	a0,40(s8)
8001efcc:	8fc40028 	lw	a0,40(s8)
8001efd0:	0c007688 	jal	8001da20 <find_proc>
8001efd4:	00000000 	nop
8001efd8:	afc20018 	sw	v0,24(s8)
8001efdc:	8fc20018 	lw	v0,24(s8)
8001efe0:	10400018 	beqz	v0,8001f044 <do_kill+0x8c>
8001efe4:	00000000 	nop
8001efe8:	8fc20018 	lw	v0,24(s8)
8001efec:	8c420054 	lw	v0,84(v0)
8001eff0:	30420001 	andi	v0,v0,0x1
8001eff4:	14400010 	bnez	v0,8001f038 <do_kill+0x80>
8001eff8:	00000000 	nop
8001effc:	8fc20018 	lw	v0,24(s8)
8001f000:	8c420054 	lw	v0,84(v0)
8001f004:	34430001 	ori	v1,v0,0x1
8001f008:	8fc20018 	lw	v0,24(s8)
8001f00c:	ac430054 	sw	v1,84(v0)
8001f010:	8fc20018 	lw	v0,24(s8)
8001f014:	8c4200a0 	lw	v0,160(v0)
8001f018:	04410004 	bgez	v0,8001f02c <do_kill+0x74>
8001f01c:	00000000 	nop
8001f020:	8fc40018 	lw	a0,24(s8)
8001f024:	0c007f64 	jal	8001fd90 <wakeup_proc>
8001f028:	00000000 	nop
8001f02c:	00001021 	move	v0,zero
8001f030:	08007c12 	j	8001f048 <do_kill+0x90>
8001f034:	00000000 	nop
8001f038:	2402fff7 	li	v0,-9
8001f03c:	08007c12 	j	8001f048 <do_kill+0x90>
8001f040:	00000000 	nop
8001f044:	2402fffd 	li	v0,-3
8001f048:	03c0e821 	move	sp,s8
8001f04c:	8fbf0024 	lw	ra,36(sp)
8001f050:	8fbe0020 	lw	s8,32(sp)
8001f054:	27bd0028 	addiu	sp,sp,40
8001f058:	03e00008 	jr	ra
8001f05c:	00000000 	nop

8001f060 <user_main>:
8001f060:	27bdffe0 	addiu	sp,sp,-32
8001f064:	afbf001c 	sw	ra,28(sp)
8001f068:	afbe0018 	sw	s8,24(sp)
8001f06c:	03a0f021 	move	s8,sp
8001f070:	afc40020 	sw	a0,32(s8)
8001f074:	3c028036 	lui	v0,0x8036
8001f078:	8c420078 	lw	v0,120(v0)
8001f07c:	8c420004 	lw	v0,4(v0)
8001f080:	3c038002 	lui	v1,0x8002
8001f084:	24644674 	addiu	a0,v1,18036
8001f088:	00402821 	move	a1,v0
8001f08c:	3c028002 	lui	v0,0x8002
8001f090:	2446469c 	addiu	a2,v0,18076
8001f094:	0c00413e 	jal	800104f8 <cprintf>
8001f098:	00000000 	nop
8001f09c:	3c020002 	lui	v0,0x2
8001f0a0:	244242bf 	addiu	v0,v0,17087
8001f0a4:	3c038002 	lui	v1,0x8002
8001f0a8:	2464469c 	addiu	a0,v1,18076
8001f0ac:	3c03800b 	lui	v1,0x800b
8001f0b0:	2465f870 	addiu	a1,v1,-1936
8001f0b4:	00403021 	move	a2,v0
8001f0b8:	0c0073a4 	jal	8001ce90 <kernel_execve>
8001f0bc:	00000000 	nop
8001f0c0:	3c028002 	lui	v0,0x8002
8001f0c4:	24444448 	addiu	a0,v0,17480
8001f0c8:	24050325 	li	a1,805
8001f0cc:	3c028002 	lui	v0,0x8002
8001f0d0:	244646a4 	addiu	a2,v0,18084
8001f0d4:	0c004544 	jal	80011510 <__panic>
8001f0d8:	00000000 	nop

8001f0dc <init_main>:
8001f0dc:	27bdffc8 	addiu	sp,sp,-56
8001f0e0:	afbf0034 	sw	ra,52(sp)
8001f0e4:	afbe0030 	sw	s8,48(sp)
8001f0e8:	03a0f021 	move	s8,sp
8001f0ec:	afc40038 	sw	a0,56(s8)
8001f0f0:	0c0054ac 	jal	800152b0 <nr_free_pages>
8001f0f4:	00000000 	nop
8001f0f8:	afc20018 	sw	v0,24(s8)
8001f0fc:	0c005227 	jal	8001489c <kallocated>
8001f100:	00000000 	nop
8001f104:	afc2001c 	sw	v0,28(s8)
8001f108:	3c028002 	lui	v0,0x8002
8001f10c:	2444f060 	addiu	a0,v0,-4000
8001f110:	00002821 	move	a1,zero
8001f114:	00003021 	move	a2,zero
8001f118:	0c0076bd 	jal	8001daf4 <kernel_thread>
8001f11c:	00000000 	nop
8001f120:	afc20020 	sw	v0,32(s8)
8001f124:	8fc20020 	lw	v0,32(s8)
8001f128:	1c400008 	bgtz	v0,8001f14c <init_main+0x70>
8001f12c:	00000000 	nop
8001f130:	3c028002 	lui	v0,0x8002
8001f134:	24444448 	addiu	a0,v0,17480
8001f138:	24050330 	li	a1,816
8001f13c:	3c028002 	lui	v0,0x8002
8001f140:	244646c0 	addiu	a2,v0,18112
8001f144:	0c004544 	jal	80011510 <__panic>
8001f148:	00000000 	nop
8001f14c:	0c006ebf 	jal	8001bafc <check_sync>
8001f150:	00000000 	nop
8001f154:	08007c59 	j	8001f164 <init_main+0x88>
8001f158:	00000000 	nop
8001f15c:	0c007f9e 	jal	8001fe78 <schedule>
8001f160:	00000000 	nop
8001f164:	00002021 	move	a0,zero
8001f168:	00002821 	move	a1,zero
8001f16c:	0c007b57 	jal	8001ed5c <do_wait>
8001f170:	00000000 	nop
8001f174:	1040fff9 	beqz	v0,8001f15c <init_main+0x80>
8001f178:	00000000 	nop
8001f17c:	3c028002 	lui	v0,0x8002
8001f180:	244446dc 	addiu	a0,v0,18140
8001f184:	0c00413e 	jal	800104f8 <cprintf>
8001f188:	00000000 	nop
8001f18c:	3c028036 	lui	v0,0x8036
8001f190:	8c420074 	lw	v0,116(v0)
8001f194:	8c4200a4 	lw	v0,164(v0)
8001f198:	1440000b 	bnez	v0,8001f1c8 <init_main+0xec>
8001f19c:	00000000 	nop
8001f1a0:	3c028036 	lui	v0,0x8036
8001f1a4:	8c420074 	lw	v0,116(v0)
8001f1a8:	8c4200a8 	lw	v0,168(v0)
8001f1ac:	14400006 	bnez	v0,8001f1c8 <init_main+0xec>
8001f1b0:	00000000 	nop
8001f1b4:	3c028036 	lui	v0,0x8036
8001f1b8:	8c420074 	lw	v0,116(v0)
8001f1bc:	8c4200ac 	lw	v0,172(v0)
8001f1c0:	1040000a 	beqz	v0,8001f1ec <init_main+0x110>
8001f1c4:	00000000 	nop
8001f1c8:	3c028002 	lui	v0,0x8002
8001f1cc:	24444448 	addiu	a0,v0,17480
8001f1d0:	24050341 	li	a1,833
8001f1d4:	3c028002 	lui	v0,0x8002
8001f1d8:	2446445c 	addiu	a2,v0,17500
8001f1dc:	3c028002 	lui	v0,0x8002
8001f1e0:	24474700 	addiu	a3,v0,18176
8001f1e4:	0c004544 	jal	80011510 <__panic>
8001f1e8:	00000000 	nop
8001f1ec:	3c028036 	lui	v0,0x8036
8001f1f0:	8c43207c 	lw	v1,8316(v0)
8001f1f4:	24020002 	li	v0,2
8001f1f8:	1062000a 	beq	v1,v0,8001f224 <init_main+0x148>
8001f1fc:	00000000 	nop
8001f200:	3c028002 	lui	v0,0x8002
8001f204:	24444448 	addiu	a0,v0,17480
8001f208:	24050342 	li	a1,834
8001f20c:	3c028002 	lui	v0,0x8002
8001f210:	2446445c 	addiu	a2,v0,17500
8001f214:	3c028002 	lui	v0,0x8002
8001f218:	2447474c 	addiu	a3,v0,18252
8001f21c:	0c004544 	jal	80011510 <__panic>
8001f220:	00000000 	nop
8001f224:	3c028036 	lui	v0,0x8036
8001f228:	244222c0 	addiu	v0,v0,8896
8001f22c:	afc20024 	sw	v0,36(s8)
8001f230:	8fc20024 	lw	v0,36(s8)
8001f234:	8c420004 	lw	v0,4(v0)
8001f238:	00401821 	move	v1,v0
8001f23c:	3c028036 	lui	v0,0x8036
8001f240:	8c420074 	lw	v0,116(v0)
8001f244:	2442008c 	addiu	v0,v0,140
8001f248:	1062000a 	beq	v1,v0,8001f274 <init_main+0x198>
8001f24c:	00000000 	nop
8001f250:	3c028002 	lui	v0,0x8002
8001f254:	24444448 	addiu	a0,v0,17480
8001f258:	24050343 	li	a1,835
8001f25c:	3c028002 	lui	v0,0x8002
8001f260:	2446445c 	addiu	a2,v0,17500
8001f264:	3c028002 	lui	v0,0x8002
8001f268:	2447475c 	addiu	a3,v0,18268
8001f26c:	0c004544 	jal	80011510 <__panic>
8001f270:	00000000 	nop
8001f274:	3c028036 	lui	v0,0x8036
8001f278:	244222c0 	addiu	v0,v0,8896
8001f27c:	afc20028 	sw	v0,40(s8)
8001f280:	8fc20028 	lw	v0,40(s8)
8001f284:	8c420000 	lw	v0,0(v0)
8001f288:	00401821 	move	v1,v0
8001f28c:	3c028036 	lui	v0,0x8036
8001f290:	8c420074 	lw	v0,116(v0)
8001f294:	2442008c 	addiu	v0,v0,140
8001f298:	1062000a 	beq	v1,v0,8001f2c4 <init_main+0x1e8>
8001f29c:	00000000 	nop
8001f2a0:	3c028002 	lui	v0,0x8002
8001f2a4:	24444448 	addiu	a0,v0,17480
8001f2a8:	24050344 	li	a1,836
8001f2ac:	3c028002 	lui	v0,0x8002
8001f2b0:	2446445c 	addiu	a2,v0,17500
8001f2b4:	3c028002 	lui	v0,0x8002
8001f2b8:	2447478c 	addiu	a3,v0,18316
8001f2bc:	0c004544 	jal	80011510 <__panic>
8001f2c0:	00000000 	nop
8001f2c4:	3c028002 	lui	v0,0x8002
8001f2c8:	244447bc 	addiu	a0,v0,18364
8001f2cc:	0c00413e 	jal	800104f8 <cprintf>
8001f2d0:	00000000 	nop
8001f2d4:	00001021 	move	v0,zero
8001f2d8:	03c0e821 	move	sp,s8
8001f2dc:	8fbf0034 	lw	ra,52(sp)
8001f2e0:	8fbe0030 	lw	s8,48(sp)
8001f2e4:	27bd0038 	addiu	sp,sp,56
8001f2e8:	03e00008 	jr	ra
8001f2ec:	00000000 	nop

8001f2f0 <proc_init>:
8001f2f0:	27bdffd0 	addiu	sp,sp,-48
8001f2f4:	afbf002c 	sw	ra,44(sp)
8001f2f8:	afbe0028 	sw	s8,40(sp)
8001f2fc:	03a0f021 	move	s8,sp
8001f300:	3c028036 	lui	v0,0x8036
8001f304:	244222c0 	addiu	v0,v0,8896
8001f308:	afc20020 	sw	v0,32(s8)
8001f30c:	8fc20020 	lw	v0,32(s8)
8001f310:	8fc30020 	lw	v1,32(s8)
8001f314:	ac430004 	sw	v1,4(v0)
8001f318:	8fc20020 	lw	v0,32(s8)
8001f31c:	8c430004 	lw	v1,4(v0)
8001f320:	8fc20020 	lw	v0,32(s8)
8001f324:	ac430000 	sw	v1,0(v0)
8001f328:	afc00018 	sw	zero,24(s8)
8001f32c:	08007cdd 	j	8001f374 <proc_init+0x84>
8001f330:	00000000 	nop
8001f334:	8fc20018 	lw	v0,24(s8)
8001f338:	000218c0 	sll	v1,v0,0x3
8001f33c:	3c028036 	lui	v0,0x8036
8001f340:	2442007c 	addiu	v0,v0,124
8001f344:	00621021 	addu	v0,v1,v0
8001f348:	afc20024 	sw	v0,36(s8)
8001f34c:	8fc20024 	lw	v0,36(s8)
8001f350:	8fc30024 	lw	v1,36(s8)
8001f354:	ac430004 	sw	v1,4(v0)
8001f358:	8fc20024 	lw	v0,36(s8)
8001f35c:	8c430004 	lw	v1,4(v0)
8001f360:	8fc20024 	lw	v0,36(s8)
8001f364:	ac430000 	sw	v1,0(v0)
8001f368:	8fc20018 	lw	v0,24(s8)
8001f36c:	24420001 	addiu	v0,v0,1
8001f370:	afc20018 	sw	v0,24(s8)
8001f374:	8fc20018 	lw	v0,24(s8)
8001f378:	28420400 	slti	v0,v0,1024
8001f37c:	1440ffed 	bnez	v0,8001f334 <proc_init+0x44>
8001f380:	00000000 	nop
8001f384:	0c0074c8 	jal	8001d320 <alloc_proc>
8001f388:	00000000 	nop
8001f38c:	00401821 	move	v1,v0
8001f390:	3c028036 	lui	v0,0x8036
8001f394:	ac430070 	sw	v1,112(v0)
8001f398:	3c028036 	lui	v0,0x8036
8001f39c:	8c420070 	lw	v0,112(v0)
8001f3a0:	14400008 	bnez	v0,8001f3c4 <proc_init+0xd4>
8001f3a4:	00000000 	nop
8001f3a8:	3c028002 	lui	v0,0x8002
8001f3ac:	24444448 	addiu	a0,v0,17480
8001f3b0:	24050356 	li	a1,854
8001f3b4:	3c028002 	lui	v0,0x8002
8001f3b8:	244647d8 	addiu	a2,v0,18392
8001f3bc:	0c004544 	jal	80011510 <__panic>
8001f3c0:	00000000 	nop
8001f3c4:	3c028036 	lui	v0,0x8036
8001f3c8:	8c420070 	lw	v0,112(v0)
8001f3cc:	ac400004 	sw	zero,4(v0)
8001f3d0:	3c028036 	lui	v0,0x8036
8001f3d4:	8c420070 	lw	v0,112(v0)
8001f3d8:	24030002 	li	v1,2
8001f3dc:	ac430000 	sw	v1,0(v0)
8001f3e0:	3c028036 	lui	v0,0x8036
8001f3e4:	8c420070 	lw	v0,112(v0)
8001f3e8:	3c038036 	lui	v1,0x8036
8001f3ec:	8c63f554 	lw	v1,-2732(v1)
8001f3f0:	ac43000c 	sw	v1,12(v0)
8001f3f4:	3c028036 	lui	v0,0x8036
8001f3f8:	8c420070 	lw	v0,112(v0)
8001f3fc:	24030001 	li	v1,1
8001f400:	ac430010 	sw	v1,16(v0)
8001f404:	3c028036 	lui	v0,0x8036
8001f408:	8c420070 	lw	v0,112(v0)
8001f40c:	00402021 	move	a0,v0
8001f410:	3c028002 	lui	v0,0x8002
8001f414:	244547f0 	addiu	a1,v0,18416
8001f418:	0c0074ef 	jal	8001d3bc <set_proc_name>
8001f41c:	00000000 	nop
8001f420:	3c028036 	lui	v0,0x8036
8001f424:	8c42207c 	lw	v0,8316(v0)
8001f428:	24430001 	addiu	v1,v0,1
8001f42c:	3c028036 	lui	v0,0x8036
8001f430:	ac43207c 	sw	v1,8316(v0)
8001f434:	3c028036 	lui	v0,0x8036
8001f438:	8c430070 	lw	v1,112(v0)
8001f43c:	3c028036 	lui	v0,0x8036
8001f440:	ac430078 	sw	v1,120(v0)
8001f444:	3c028002 	lui	v0,0x8002
8001f448:	2444f0dc 	addiu	a0,v0,-3876
8001f44c:	00002821 	move	a1,zero
8001f450:	00003021 	move	a2,zero
8001f454:	0c0076bd 	jal	8001daf4 <kernel_thread>
8001f458:	00000000 	nop
8001f45c:	afc2001c 	sw	v0,28(s8)
8001f460:	8fc2001c 	lw	v0,28(s8)
8001f464:	1c400008 	bgtz	v0,8001f488 <proc_init+0x198>
8001f468:	00000000 	nop
8001f46c:	3c028002 	lui	v0,0x8002
8001f470:	24444448 	addiu	a0,v0,17480
8001f474:	24050364 	li	a1,868
8001f478:	3c028002 	lui	v0,0x8002
8001f47c:	244647f8 	addiu	a2,v0,18424
8001f480:	0c004544 	jal	80011510 <__panic>
8001f484:	00000000 	nop
8001f488:	8fc4001c 	lw	a0,28(s8)
8001f48c:	0c007688 	jal	8001da20 <find_proc>
8001f490:	00000000 	nop
8001f494:	00401821 	move	v1,v0
8001f498:	3c028036 	lui	v0,0x8036
8001f49c:	ac430074 	sw	v1,116(v0)
8001f4a0:	3c028036 	lui	v0,0x8036
8001f4a4:	8c420074 	lw	v0,116(v0)
8001f4a8:	00402021 	move	a0,v0
8001f4ac:	3c028002 	lui	v0,0x8002
8001f4b0:	24454814 	addiu	a1,v0,18452
8001f4b4:	0c0074ef 	jal	8001d3bc <set_proc_name>
8001f4b8:	00000000 	nop
8001f4bc:	3c028036 	lui	v0,0x8036
8001f4c0:	8c420070 	lw	v0,112(v0)
8001f4c4:	10400006 	beqz	v0,8001f4e0 <proc_init+0x1f0>
8001f4c8:	00000000 	nop
8001f4cc:	3c028036 	lui	v0,0x8036
8001f4d0:	8c420070 	lw	v0,112(v0)
8001f4d4:	8c420004 	lw	v0,4(v0)
8001f4d8:	1040000a 	beqz	v0,8001f504 <proc_init+0x214>
8001f4dc:	00000000 	nop
8001f4e0:	3c028002 	lui	v0,0x8002
8001f4e4:	24444448 	addiu	a0,v0,17480
8001f4e8:	2405036a 	li	a1,874
8001f4ec:	3c028002 	lui	v0,0x8002
8001f4f0:	2446445c 	addiu	a2,v0,17500
8001f4f4:	3c028002 	lui	v0,0x8002
8001f4f8:	2447481c 	addiu	a3,v0,18460
8001f4fc:	0c004544 	jal	80011510 <__panic>
8001f500:	00000000 	nop
8001f504:	3c028036 	lui	v0,0x8036
8001f508:	8c420074 	lw	v0,116(v0)
8001f50c:	10400007 	beqz	v0,8001f52c <proc_init+0x23c>
8001f510:	00000000 	nop
8001f514:	3c028036 	lui	v0,0x8036
8001f518:	8c420074 	lw	v0,116(v0)
8001f51c:	8c430004 	lw	v1,4(v0)
8001f520:	24020001 	li	v0,1
8001f524:	1062000a 	beq	v1,v0,8001f550 <proc_init+0x260>
8001f528:	00000000 	nop
8001f52c:	3c028002 	lui	v0,0x8002
8001f530:	24444448 	addiu	a0,v0,17480
8001f534:	2405036b 	li	a1,875
8001f538:	3c028002 	lui	v0,0x8002
8001f53c:	2446445c 	addiu	a2,v0,17500
8001f540:	3c028002 	lui	v0,0x8002
8001f544:	24474844 	addiu	a3,v0,18500
8001f548:	0c004544 	jal	80011510 <__panic>
8001f54c:	00000000 	nop
8001f550:	03c0e821 	move	sp,s8
8001f554:	8fbf002c 	lw	ra,44(sp)
8001f558:	8fbe0028 	lw	s8,40(sp)
8001f55c:	27bd0030 	addiu	sp,sp,48
8001f560:	03e00008 	jr	ra
8001f564:	00000000 	nop

8001f568 <cpu_idle>:
8001f568:	27bdffe0 	addiu	sp,sp,-32
8001f56c:	afbf001c 	sw	ra,28(sp)
8001f570:	afbe0018 	sw	s8,24(sp)
8001f574:	03a0f021 	move	s8,sp
8001f578:	3c028036 	lui	v0,0x8036
8001f57c:	8c420078 	lw	v0,120(v0)
8001f580:	8c420010 	lw	v0,16(v0)
8001f584:	10400005 	beqz	v0,8001f59c <cpu_idle+0x34>
8001f588:	00000000 	nop
8001f58c:	0c007f9e 	jal	8001fe78 <schedule>
8001f590:	00000000 	nop
8001f594:	08007d5e 	j	8001f578 <cpu_idle+0x10>
8001f598:	00000000 	nop
8001f59c:	08007d5e 	j	8001f578 <cpu_idle+0x10>
8001f5a0:	00000000 	nop

8001f5a4 <lab6_set_priority>:
8001f5a4:	27bdfff8 	addiu	sp,sp,-8
8001f5a8:	afbe0004 	sw	s8,4(sp)
8001f5ac:	03a0f021 	move	s8,sp
8001f5b0:	afc40008 	sw	a0,8(s8)
8001f5b4:	8fc20008 	lw	v0,8(s8)
8001f5b8:	14400007 	bnez	v0,8001f5d8 <lab6_set_priority+0x34>
8001f5bc:	00000000 	nop
8001f5c0:	3c028036 	lui	v0,0x8036
8001f5c4:	8c420078 	lw	v0,120(v0)
8001f5c8:	24030001 	li	v1,1
8001f5cc:	ac4300d0 	sw	v1,208(v0)
8001f5d0:	08007d7a 	j	8001f5e8 <lab6_set_priority+0x44>
8001f5d4:	00000000 	nop
8001f5d8:	3c028036 	lui	v0,0x8036
8001f5dc:	8c420078 	lw	v0,120(v0)
8001f5e0:	8fc30008 	lw	v1,8(s8)
8001f5e4:	ac4300d0 	sw	v1,208(v0)
8001f5e8:	03c0e821 	move	sp,s8
8001f5ec:	8fbe0004 	lw	s8,4(sp)
8001f5f0:	27bd0008 	addiu	sp,sp,8
8001f5f4:	03e00008 	jr	ra
8001f5f8:	00000000 	nop

8001f5fc <do_sleep>:
8001f5fc:	27bdffc8 	addiu	sp,sp,-56
8001f600:	afbf0034 	sw	ra,52(sp)
8001f604:	afbe0030 	sw	s8,48(sp)
8001f608:	03a0f021 	move	s8,sp
8001f60c:	afc40038 	sw	a0,56(s8)
8001f610:	8fc20038 	lw	v0,56(s8)
8001f614:	14400004 	bnez	v0,8001f628 <do_sleep+0x2c>
8001f618:	00000000 	nop
8001f61c:	00001021 	move	v0,zero
8001f620:	08007dab 	j	8001f6ac <do_sleep+0xb0>
8001f624:	00000000 	nop
8001f628:	0c0073b8 	jal	8001cee0 <__intr_save>
8001f62c:	00000000 	nop
8001f630:	afc20018 	sw	v0,24(s8)
8001f634:	3c028036 	lui	v0,0x8036
8001f638:	8c430078 	lw	v1,120(v0)
8001f63c:	8fc20038 	lw	v0,56(s8)
8001f640:	27c40020 	addiu	a0,s8,32
8001f644:	00602821 	move	a1,v1
8001f648:	00403021 	move	a2,v0
8001f64c:	0c0073de 	jal	8001cf78 <timer_init>
8001f650:	00000000 	nop
8001f654:	afc2001c 	sw	v0,28(s8)
8001f658:	3c028036 	lui	v0,0x8036
8001f65c:	8c420078 	lw	v0,120(v0)
8001f660:	24030001 	li	v1,1
8001f664:	ac430000 	sw	v1,0(v0)
8001f668:	3c028036 	lui	v0,0x8036
8001f66c:	8c420078 	lw	v0,120(v0)
8001f670:	3c038000 	lui	v1,0x8000
8001f674:	34630002 	ori	v1,v1,0x2
8001f678:	ac4300a0 	sw	v1,160(v0)
8001f67c:	8fc4001c 	lw	a0,28(s8)
8001f680:	0c007fd8 	jal	8001ff60 <add_timer>
8001f684:	00000000 	nop
8001f688:	8fc40018 	lw	a0,24(s8)
8001f68c:	0c0073ce 	jal	8001cf38 <__intr_restore>
8001f690:	00000000 	nop
8001f694:	0c007f9e 	jal	8001fe78 <schedule>
8001f698:	00000000 	nop
8001f69c:	8fc4001c 	lw	a0,28(s8)
8001f6a0:	0c008053 	jal	8002014c <del_timer>
8001f6a4:	00000000 	nop
8001f6a8:	00001021 	move	v0,zero
8001f6ac:	03c0e821 	move	sp,s8
8001f6b0:	8fbf0034 	lw	ra,52(sp)
8001f6b4:	8fbe0030 	lw	s8,48(sp)
8001f6b8:	27bd0038 	addiu	sp,sp,56
8001f6bc:	03e00008 	jr	ra
8001f6c0:	00000000 	nop
	...

8001f6d0 <switch_to>:
8001f6d0:	ac9f0000 ac9d0004 ac900008 ac91000c     ................
8001f6e0:	ac920010 ac930014 ac940018 ac95001c     ................
8001f6f0:	ac960020 ac970024 ac9c0028 ac9e002c      ...$...(...,...
8001f700:	8cbf0000 8cbd0004 8cb00008 8cb1000c     ................
8001f710:	8cb20010 8cb30014 8cb40018 8cb5001c     ................
8001f720:	8cb60020 8cb70024 8cbc0028 8cbe002c      ...$...(...,...
8001f730:	03e00008 00000000 00000000 00000000     ................

8001f740 <RR_init>:
8001f740:	27bdffe8 	addiu	sp,sp,-24
8001f744:	afbe0014 	sw	s8,20(sp)
8001f748:	03a0f021 	move	s8,sp
8001f74c:	afc40018 	sw	a0,24(s8)
8001f750:	8fc20018 	lw	v0,24(s8)
8001f754:	afc20008 	sw	v0,8(s8)
8001f758:	8fc20008 	lw	v0,8(s8)
8001f75c:	8fc30008 	lw	v1,8(s8)
8001f760:	ac430004 	sw	v1,4(v0)
8001f764:	8fc20008 	lw	v0,8(s8)
8001f768:	8c430004 	lw	v1,4(v0)
8001f76c:	8fc20008 	lw	v0,8(s8)
8001f770:	ac430000 	sw	v1,0(v0)
8001f774:	8fc20018 	lw	v0,24(s8)
8001f778:	ac400008 	sw	zero,8(v0)
8001f77c:	03c0e821 	move	sp,s8
8001f780:	8fbe0014 	lw	s8,20(sp)
8001f784:	27bd0018 	addiu	sp,sp,24
8001f788:	03e00008 	jr	ra
8001f78c:	00000000 	nop

8001f790 <RR_enqueue>:
8001f790:	27bdffc8 	addiu	sp,sp,-56
8001f794:	afbf0034 	sw	ra,52(sp)
8001f798:	afbe0030 	sw	s8,48(sp)
8001f79c:	03a0f021 	move	s8,sp
8001f7a0:	afc40038 	sw	a0,56(s8)
8001f7a4:	afc5003c 	sw	a1,60(s8)
8001f7a8:	8fc2003c 	lw	v0,60(s8)
8001f7ac:	244200b4 	addiu	v0,v0,180
8001f7b0:	afc20018 	sw	v0,24(s8)
8001f7b4:	8fc20018 	lw	v0,24(s8)
8001f7b8:	8c430004 	lw	v1,4(v0)
8001f7bc:	8fc20018 	lw	v0,24(s8)
8001f7c0:	00621026 	xor	v0,v1,v0
8001f7c4:	2c420001 	sltiu	v0,v0,1
8001f7c8:	304200ff 	andi	v0,v0,0xff
8001f7cc:	1440000a 	bnez	v0,8001f7f8 <RR_enqueue+0x68>
8001f7d0:	00000000 	nop
8001f7d4:	3c028002 	lui	v0,0x8002
8001f7d8:	24444870 	addiu	a0,v0,18544
8001f7dc:	2405000f 	li	a1,15
8001f7e0:	3c028002 	lui	v0,0x8002
8001f7e4:	24464890 	addiu	a2,v0,18576
8001f7e8:	3c028002 	lui	v0,0x8002
8001f7ec:	244748a8 	addiu	a3,v0,18600
8001f7f0:	0c004544 	jal	80011510 <__panic>
8001f7f4:	00000000 	nop
8001f7f8:	8fc30038 	lw	v1,56(s8)
8001f7fc:	8fc2003c 	lw	v0,60(s8)
8001f800:	244200b4 	addiu	v0,v0,180
8001f804:	afc3001c 	sw	v1,28(s8)
8001f808:	afc20020 	sw	v0,32(s8)
8001f80c:	8fc2001c 	lw	v0,28(s8)
8001f810:	8c420000 	lw	v0,0(v0)
8001f814:	8fc30020 	lw	v1,32(s8)
8001f818:	afc30024 	sw	v1,36(s8)
8001f81c:	afc20028 	sw	v0,40(s8)
8001f820:	8fc2001c 	lw	v0,28(s8)
8001f824:	afc2002c 	sw	v0,44(s8)
8001f828:	8fc2002c 	lw	v0,44(s8)
8001f82c:	8fc30024 	lw	v1,36(s8)
8001f830:	ac430000 	sw	v1,0(v0)
8001f834:	8fc2002c 	lw	v0,44(s8)
8001f838:	8c430000 	lw	v1,0(v0)
8001f83c:	8fc20028 	lw	v0,40(s8)
8001f840:	ac430004 	sw	v1,4(v0)
8001f844:	8fc20024 	lw	v0,36(s8)
8001f848:	8fc3002c 	lw	v1,44(s8)
8001f84c:	ac430004 	sw	v1,4(v0)
8001f850:	8fc20024 	lw	v0,36(s8)
8001f854:	8fc30028 	lw	v1,40(s8)
8001f858:	ac430000 	sw	v1,0(v0)
8001f85c:	8fc2003c 	lw	v0,60(s8)
8001f860:	8c4200bc 	lw	v0,188(v0)
8001f864:	10400008 	beqz	v0,8001f888 <RR_enqueue+0xf8>
8001f868:	00000000 	nop
8001f86c:	8fc2003c 	lw	v0,60(s8)
8001f870:	8c4300bc 	lw	v1,188(v0)
8001f874:	8fc20038 	lw	v0,56(s8)
8001f878:	8c42000c 	lw	v0,12(v0)
8001f87c:	0043102a 	slt	v0,v0,v1
8001f880:	10400005 	beqz	v0,8001f898 <RR_enqueue+0x108>
8001f884:	00000000 	nop
8001f888:	8fc20038 	lw	v0,56(s8)
8001f88c:	8c43000c 	lw	v1,12(v0)
8001f890:	8fc2003c 	lw	v0,60(s8)
8001f894:	ac4300bc 	sw	v1,188(v0)
8001f898:	8fc2003c 	lw	v0,60(s8)
8001f89c:	8fc30038 	lw	v1,56(s8)
8001f8a0:	ac4300b0 	sw	v1,176(v0)
8001f8a4:	8fc20038 	lw	v0,56(s8)
8001f8a8:	8c420008 	lw	v0,8(v0)
8001f8ac:	24430001 	addiu	v1,v0,1
8001f8b0:	8fc20038 	lw	v0,56(s8)
8001f8b4:	ac430008 	sw	v1,8(v0)
8001f8b8:	03c0e821 	move	sp,s8
8001f8bc:	8fbf0034 	lw	ra,52(sp)
8001f8c0:	8fbe0030 	lw	s8,48(sp)
8001f8c4:	27bd0038 	addiu	sp,sp,56
8001f8c8:	03e00008 	jr	ra
8001f8cc:	00000000 	nop

8001f8d0 <RR_dequeue>:
8001f8d0:	27bdffc8 	addiu	sp,sp,-56
8001f8d4:	afbf0034 	sw	ra,52(sp)
8001f8d8:	afbe0030 	sw	s8,48(sp)
8001f8dc:	03a0f021 	move	s8,sp
8001f8e0:	afc40038 	sw	a0,56(s8)
8001f8e4:	afc5003c 	sw	a1,60(s8)
8001f8e8:	8fc2003c 	lw	v0,60(s8)
8001f8ec:	244200b4 	addiu	v0,v0,180
8001f8f0:	afc20018 	sw	v0,24(s8)
8001f8f4:	8fc20018 	lw	v0,24(s8)
8001f8f8:	8c430004 	lw	v1,4(v0)
8001f8fc:	8fc20018 	lw	v0,24(s8)
8001f900:	00621026 	xor	v0,v1,v0
8001f904:	2c420001 	sltiu	v0,v0,1
8001f908:	304200ff 	andi	v0,v0,0xff
8001f90c:	14400006 	bnez	v0,8001f928 <RR_dequeue+0x58>
8001f910:	00000000 	nop
8001f914:	8fc2003c 	lw	v0,60(s8)
8001f918:	8c4300b0 	lw	v1,176(v0)
8001f91c:	8fc20038 	lw	v0,56(s8)
8001f920:	1062000a 	beq	v1,v0,8001f94c <RR_dequeue+0x7c>
8001f924:	00000000 	nop
8001f928:	3c028002 	lui	v0,0x8002
8001f92c:	24444870 	addiu	a0,v0,18544
8001f930:	2405001a 	li	a1,26
8001f934:	3c028002 	lui	v0,0x8002
8001f938:	24464890 	addiu	a2,v0,18576
8001f93c:	3c028002 	lui	v0,0x8002
8001f940:	244748c8 	addiu	a3,v0,18632
8001f944:	0c004544 	jal	80011510 <__panic>
8001f948:	00000000 	nop
8001f94c:	8fc2003c 	lw	v0,60(s8)
8001f950:	244200b4 	addiu	v0,v0,180
8001f954:	afc2001c 	sw	v0,28(s8)
8001f958:	8fc2001c 	lw	v0,28(s8)
8001f95c:	afc20020 	sw	v0,32(s8)
8001f960:	8fc20020 	lw	v0,32(s8)
8001f964:	8c430000 	lw	v1,0(v0)
8001f968:	8fc20020 	lw	v0,32(s8)
8001f96c:	8c420004 	lw	v0,4(v0)
8001f970:	afc30024 	sw	v1,36(s8)
8001f974:	afc20028 	sw	v0,40(s8)
8001f978:	8fc20024 	lw	v0,36(s8)
8001f97c:	8fc30028 	lw	v1,40(s8)
8001f980:	ac430004 	sw	v1,4(v0)
8001f984:	8fc20028 	lw	v0,40(s8)
8001f988:	8fc30024 	lw	v1,36(s8)
8001f98c:	ac430000 	sw	v1,0(v0)
8001f990:	8fc2001c 	lw	v0,28(s8)
8001f994:	afc2002c 	sw	v0,44(s8)
8001f998:	8fc2002c 	lw	v0,44(s8)
8001f99c:	8fc3002c 	lw	v1,44(s8)
8001f9a0:	ac430004 	sw	v1,4(v0)
8001f9a4:	8fc2002c 	lw	v0,44(s8)
8001f9a8:	8c430004 	lw	v1,4(v0)
8001f9ac:	8fc2002c 	lw	v0,44(s8)
8001f9b0:	ac430000 	sw	v1,0(v0)
8001f9b4:	8fc20038 	lw	v0,56(s8)
8001f9b8:	8c420008 	lw	v0,8(v0)
8001f9bc:	2443ffff 	addiu	v1,v0,-1
8001f9c0:	8fc20038 	lw	v0,56(s8)
8001f9c4:	ac430008 	sw	v1,8(v0)
8001f9c8:	03c0e821 	move	sp,s8
8001f9cc:	8fbf0034 	lw	ra,52(sp)
8001f9d0:	8fbe0030 	lw	s8,48(sp)
8001f9d4:	27bd0038 	addiu	sp,sp,56
8001f9d8:	03e00008 	jr	ra
8001f9dc:	00000000 	nop

8001f9e0 <RR_pick_next>:
8001f9e0:	27bdffe8 	addiu	sp,sp,-24
8001f9e4:	afbe0014 	sw	s8,20(sp)
8001f9e8:	03a0f021 	move	s8,sp
8001f9ec:	afc40018 	sw	a0,24(s8)
8001f9f0:	8fc20018 	lw	v0,24(s8)
8001f9f4:	afc2000c 	sw	v0,12(s8)
8001f9f8:	8fc2000c 	lw	v0,12(s8)
8001f9fc:	8c420004 	lw	v0,4(v0)
8001fa00:	afc20008 	sw	v0,8(s8)
8001fa04:	8fc30018 	lw	v1,24(s8)
8001fa08:	8fc20008 	lw	v0,8(s8)
8001fa0c:	10620005 	beq	v1,v0,8001fa24 <RR_pick_next+0x44>
8001fa10:	00000000 	nop
8001fa14:	8fc20008 	lw	v0,8(s8)
8001fa18:	2442ff4c 	addiu	v0,v0,-180
8001fa1c:	08007e8a 	j	8001fa28 <RR_pick_next+0x48>
8001fa20:	00000000 	nop
8001fa24:	00001021 	move	v0,zero
8001fa28:	03c0e821 	move	sp,s8
8001fa2c:	8fbe0014 	lw	s8,20(sp)
8001fa30:	27bd0018 	addiu	sp,sp,24
8001fa34:	03e00008 	jr	ra
8001fa38:	00000000 	nop

8001fa3c <RR_proc_tick>:
8001fa3c:	27bdfff8 	addiu	sp,sp,-8
8001fa40:	afbe0004 	sw	s8,4(sp)
8001fa44:	03a0f021 	move	s8,sp
8001fa48:	afc40008 	sw	a0,8(s8)
8001fa4c:	afc5000c 	sw	a1,12(s8)
8001fa50:	8fc2000c 	lw	v0,12(s8)
8001fa54:	8c4200bc 	lw	v0,188(v0)
8001fa58:	18400006 	blez	v0,8001fa74 <RR_proc_tick+0x38>
8001fa5c:	00000000 	nop
8001fa60:	8fc2000c 	lw	v0,12(s8)
8001fa64:	8c4200bc 	lw	v0,188(v0)
8001fa68:	2443ffff 	addiu	v1,v0,-1
8001fa6c:	8fc2000c 	lw	v0,12(s8)
8001fa70:	ac4300bc 	sw	v1,188(v0)
8001fa74:	8fc2000c 	lw	v0,12(s8)
8001fa78:	8c4200bc 	lw	v0,188(v0)
8001fa7c:	14400004 	bnez	v0,8001fa90 <RR_proc_tick+0x54>
8001fa80:	00000000 	nop
8001fa84:	8fc2000c 	lw	v0,12(s8)
8001fa88:	24030001 	li	v1,1
8001fa8c:	ac430010 	sw	v1,16(v0)
8001fa90:	03c0e821 	move	sp,s8
8001fa94:	8fbe0004 	lw	s8,4(sp)
8001fa98:	27bd0008 	addiu	sp,sp,8
8001fa9c:	03e00008 	jr	ra
8001faa0:	00000000 	nop
	...

8001fab0 <__intr_save>:
8001fab0:	27bdffd8 	addiu	sp,sp,-40
8001fab4:	afbf0024 	sw	ra,36(sp)
8001fab8:	afbe0020 	sw	s8,32(sp)
8001fabc:	03a0f021 	move	s8,sp
8001fac0:	40026000 	mfc0	v0,c0_status
8001fac4:	afc20018 	sw	v0,24(s8)
8001fac8:	8fc20018 	lw	v0,24(s8)
8001facc:	30420001 	andi	v0,v0,0x1
8001fad0:	10400006 	beqz	v0,8001faec <__intr_save+0x3c>
8001fad4:	00000000 	nop
8001fad8:	0c0046d7 	jal	80011b5c <intr_disable>
8001fadc:	00000000 	nop
8001fae0:	24020001 	li	v0,1
8001fae4:	08007ebc 	j	8001faf0 <__intr_save+0x40>
8001fae8:	00000000 	nop
8001faec:	00001021 	move	v0,zero
8001faf0:	03c0e821 	move	sp,s8
8001faf4:	8fbf0024 	lw	ra,36(sp)
8001faf8:	8fbe0020 	lw	s8,32(sp)
8001fafc:	27bd0028 	addiu	sp,sp,40
8001fb00:	03e00008 	jr	ra
8001fb04:	00000000 	nop

8001fb08 <__intr_restore>:
8001fb08:	27bdffe0 	addiu	sp,sp,-32
8001fb0c:	afbf001c 	sw	ra,28(sp)
8001fb10:	afbe0018 	sw	s8,24(sp)
8001fb14:	03a0f021 	move	s8,sp
8001fb18:	afc40020 	sw	a0,32(s8)
8001fb1c:	8fc20020 	lw	v0,32(s8)
8001fb20:	10400003 	beqz	v0,8001fb30 <__intr_restore+0x28>
8001fb24:	00000000 	nop
8001fb28:	0c0046c8 	jal	80011b20 <intr_enable>
8001fb2c:	00000000 	nop
8001fb30:	03c0e821 	move	sp,s8
8001fb34:	8fbf001c 	lw	ra,28(sp)
8001fb38:	8fbe0018 	lw	s8,24(sp)
8001fb3c:	27bd0020 	addiu	sp,sp,32
8001fb40:	03e00008 	jr	ra
8001fb44:	00000000 	nop

8001fb48 <sched_class_enqueue>:
8001fb48:	27bdffe0 	addiu	sp,sp,-32
8001fb4c:	afbf001c 	sw	ra,28(sp)
8001fb50:	afbe0018 	sw	s8,24(sp)
8001fb54:	03a0f021 	move	s8,sp
8001fb58:	afc40020 	sw	a0,32(s8)
8001fb5c:	3c028036 	lui	v0,0x8036
8001fb60:	8c420070 	lw	v0,112(v0)
8001fb64:	8fc30020 	lw	v1,32(s8)
8001fb68:	1062000b 	beq	v1,v0,8001fb98 <sched_class_enqueue+0x50>
8001fb6c:	00000000 	nop
8001fb70:	3c028036 	lui	v0,0x8036
8001fb74:	8c4220c8 	lw	v0,8392(v0)
8001fb78:	8c420008 	lw	v0,8(v0)
8001fb7c:	3c038036 	lui	v1,0x8036
8001fb80:	8c6320cc 	lw	v1,8396(v1)
8001fb84:	00602021 	move	a0,v1
8001fb88:	8fc50020 	lw	a1,32(s8)
8001fb8c:	0040c821 	move	t9,v0
8001fb90:	0320f809 	jalr	t9
8001fb94:	00000000 	nop
8001fb98:	03c0e821 	move	sp,s8
8001fb9c:	8fbf001c 	lw	ra,28(sp)
8001fba0:	8fbe0018 	lw	s8,24(sp)
8001fba4:	27bd0020 	addiu	sp,sp,32
8001fba8:	03e00008 	jr	ra
8001fbac:	00000000 	nop

8001fbb0 <sched_class_dequeue>:
8001fbb0:	27bdffe0 	addiu	sp,sp,-32
8001fbb4:	afbf001c 	sw	ra,28(sp)
8001fbb8:	afbe0018 	sw	s8,24(sp)
8001fbbc:	03a0f021 	move	s8,sp
8001fbc0:	afc40020 	sw	a0,32(s8)
8001fbc4:	3c028036 	lui	v0,0x8036
8001fbc8:	8c4220c8 	lw	v0,8392(v0)
8001fbcc:	8c42000c 	lw	v0,12(v0)
8001fbd0:	3c038036 	lui	v1,0x8036
8001fbd4:	8c6320cc 	lw	v1,8396(v1)
8001fbd8:	00602021 	move	a0,v1
8001fbdc:	8fc50020 	lw	a1,32(s8)
8001fbe0:	0040c821 	move	t9,v0
8001fbe4:	0320f809 	jalr	t9
8001fbe8:	00000000 	nop
8001fbec:	03c0e821 	move	sp,s8
8001fbf0:	8fbf001c 	lw	ra,28(sp)
8001fbf4:	8fbe0018 	lw	s8,24(sp)
8001fbf8:	27bd0020 	addiu	sp,sp,32
8001fbfc:	03e00008 	jr	ra
8001fc00:	00000000 	nop

8001fc04 <sched_class_pick_next>:
8001fc04:	27bdffe0 	addiu	sp,sp,-32
8001fc08:	afbf001c 	sw	ra,28(sp)
8001fc0c:	afbe0018 	sw	s8,24(sp)
8001fc10:	03a0f021 	move	s8,sp
8001fc14:	3c028036 	lui	v0,0x8036
8001fc18:	8c4220c8 	lw	v0,8392(v0)
8001fc1c:	8c420010 	lw	v0,16(v0)
8001fc20:	3c038036 	lui	v1,0x8036
8001fc24:	8c6320cc 	lw	v1,8396(v1)
8001fc28:	00602021 	move	a0,v1
8001fc2c:	0040c821 	move	t9,v0
8001fc30:	0320f809 	jalr	t9
8001fc34:	00000000 	nop
8001fc38:	03c0e821 	move	sp,s8
8001fc3c:	8fbf001c 	lw	ra,28(sp)
8001fc40:	8fbe0018 	lw	s8,24(sp)
8001fc44:	27bd0020 	addiu	sp,sp,32
8001fc48:	03e00008 	jr	ra
8001fc4c:	00000000 	nop

8001fc50 <sched_class_proc_tick>:
8001fc50:	27bdffe0 	addiu	sp,sp,-32
8001fc54:	afbf001c 	sw	ra,28(sp)
8001fc58:	afbe0018 	sw	s8,24(sp)
8001fc5c:	03a0f021 	move	s8,sp
8001fc60:	afc40020 	sw	a0,32(s8)
8001fc64:	3c028036 	lui	v0,0x8036
8001fc68:	8c420070 	lw	v0,112(v0)
8001fc6c:	8fc30020 	lw	v1,32(s8)
8001fc70:	1062000d 	beq	v1,v0,8001fca8 <sched_class_proc_tick+0x58>
8001fc74:	00000000 	nop
8001fc78:	3c028036 	lui	v0,0x8036
8001fc7c:	8c4220c8 	lw	v0,8392(v0)
8001fc80:	8c420014 	lw	v0,20(v0)
8001fc84:	3c038036 	lui	v1,0x8036
8001fc88:	8c6320cc 	lw	v1,8396(v1)
8001fc8c:	00602021 	move	a0,v1
8001fc90:	8fc50020 	lw	a1,32(s8)
8001fc94:	0040c821 	move	t9,v0
8001fc98:	0320f809 	jalr	t9
8001fc9c:	00000000 	nop
8001fca0:	08007f2d 	j	8001fcb4 <sched_class_proc_tick+0x64>
8001fca4:	00000000 	nop
8001fca8:	8fc20020 	lw	v0,32(s8)
8001fcac:	24030001 	li	v1,1
8001fcb0:	ac430010 	sw	v1,16(v0)
8001fcb4:	03c0e821 	move	sp,s8
8001fcb8:	8fbf001c 	lw	ra,28(sp)
8001fcbc:	8fbe0018 	lw	s8,24(sp)
8001fcc0:	27bd0020 	addiu	sp,sp,32
8001fcc4:	03e00008 	jr	ra
8001fcc8:	00000000 	nop

8001fccc <sched_init>:
8001fccc:	27bdffd8 	addiu	sp,sp,-40
8001fcd0:	afbf0024 	sw	ra,36(sp)
8001fcd4:	afbe0020 	sw	s8,32(sp)
8001fcd8:	03a0f021 	move	s8,sp
8001fcdc:	3c028036 	lui	v0,0x8036
8001fce0:	244220c0 	addiu	v0,v0,8384
8001fce4:	afc20018 	sw	v0,24(s8)
8001fce8:	8fc20018 	lw	v0,24(s8)
8001fcec:	8fc30018 	lw	v1,24(s8)
8001fcf0:	ac430004 	sw	v1,4(v0)
8001fcf4:	8fc20018 	lw	v0,24(s8)
8001fcf8:	8c430004 	lw	v1,4(v0)
8001fcfc:	8fc20018 	lw	v0,24(s8)
8001fd00:	ac430000 	sw	v1,0(v0)
8001fd04:	3c028036 	lui	v0,0x8036
8001fd08:	3c038036 	lui	v1,0x8036
8001fd0c:	2463f5b0 	addiu	v1,v1,-2640
8001fd10:	ac4320c8 	sw	v1,8392(v0)
8001fd14:	3c028036 	lui	v0,0x8036
8001fd18:	3c038036 	lui	v1,0x8036
8001fd1c:	246320d0 	addiu	v1,v1,8400
8001fd20:	ac4320cc 	sw	v1,8396(v0)
8001fd24:	3c028036 	lui	v0,0x8036
8001fd28:	8c4220cc 	lw	v0,8396(v0)
8001fd2c:	24030014 	li	v1,20
8001fd30:	ac43000c 	sw	v1,12(v0)
8001fd34:	3c028036 	lui	v0,0x8036
8001fd38:	8c4220c8 	lw	v0,8392(v0)
8001fd3c:	8c420004 	lw	v0,4(v0)
8001fd40:	3c038036 	lui	v1,0x8036
8001fd44:	8c6320cc 	lw	v1,8396(v1)
8001fd48:	00602021 	move	a0,v1
8001fd4c:	0040c821 	move	t9,v0
8001fd50:	0320f809 	jalr	t9
8001fd54:	00000000 	nop
8001fd58:	3c028036 	lui	v0,0x8036
8001fd5c:	8c4220c8 	lw	v0,8392(v0)
8001fd60:	8c420000 	lw	v0,0(v0)
8001fd64:	3c038002 	lui	v1,0x8002
8001fd68:	24644910 	addiu	a0,v1,18704
8001fd6c:	00402821 	move	a1,v0
8001fd70:	0c00413e 	jal	800104f8 <cprintf>
8001fd74:	00000000 	nop
8001fd78:	03c0e821 	move	sp,s8
8001fd7c:	8fbf0024 	lw	ra,36(sp)
8001fd80:	8fbe0020 	lw	s8,32(sp)
8001fd84:	27bd0028 	addiu	sp,sp,40
8001fd88:	03e00008 	jr	ra
8001fd8c:	00000000 	nop

8001fd90 <wakeup_proc>:
8001fd90:	27bdffd8 	addiu	sp,sp,-40
8001fd94:	afbf0024 	sw	ra,36(sp)
8001fd98:	afbe0020 	sw	s8,32(sp)
8001fd9c:	03a0f021 	move	s8,sp
8001fda0:	afc40028 	sw	a0,40(s8)
8001fda4:	8fc20028 	lw	v0,40(s8)
8001fda8:	8c430000 	lw	v1,0(v0)
8001fdac:	24020003 	li	v0,3
8001fdb0:	1462000a 	bne	v1,v0,8001fddc <wakeup_proc+0x4c>
8001fdb4:	00000000 	nop
8001fdb8:	3c028002 	lui	v0,0x8002
8001fdbc:	24444924 	addiu	a0,v0,18724
8001fdc0:	2405003c 	li	a1,60
8001fdc4:	3c028002 	lui	v0,0x8002
8001fdc8:	2446493c 	addiu	a2,v0,18748
8001fdcc:	3c028002 	lui	v0,0x8002
8001fdd0:	24474954 	addiu	a3,v0,18772
8001fdd4:	0c004544 	jal	80011510 <__panic>
8001fdd8:	00000000 	nop
8001fddc:	0c007eac 	jal	8001fab0 <__intr_save>
8001fde0:	00000000 	nop
8001fde4:	afc20018 	sw	v0,24(s8)
8001fde8:	8fc20028 	lw	v0,40(s8)
8001fdec:	8c430000 	lw	v1,0(v0)
8001fdf0:	24020002 	li	v0,2
8001fdf4:	10620010 	beq	v1,v0,8001fe38 <wakeup_proc+0xa8>
8001fdf8:	00000000 	nop
8001fdfc:	8fc20028 	lw	v0,40(s8)
8001fe00:	24030002 	li	v1,2
8001fe04:	ac430000 	sw	v1,0(v0)
8001fe08:	8fc20028 	lw	v0,40(s8)
8001fe0c:	ac4000a0 	sw	zero,160(v0)
8001fe10:	3c028036 	lui	v0,0x8036
8001fe14:	8c420078 	lw	v0,120(v0)
8001fe18:	8fc30028 	lw	v1,40(s8)
8001fe1c:	1062000d 	beq	v1,v0,8001fe54 <wakeup_proc+0xc4>
8001fe20:	00000000 	nop
8001fe24:	8fc40028 	lw	a0,40(s8)
8001fe28:	0c007ed2 	jal	8001fb48 <sched_class_enqueue>
8001fe2c:	00000000 	nop
8001fe30:	08007f95 	j	8001fe54 <wakeup_proc+0xc4>
8001fe34:	00000000 	nop
8001fe38:	3c028002 	lui	v0,0x8002
8001fe3c:	24444924 	addiu	a0,v0,18724
8001fe40:	24050048 	li	a1,72
8001fe44:	3c028002 	lui	v0,0x8002
8001fe48:	24464970 	addiu	a2,v0,18800
8001fe4c:	0c00456d 	jal	800115b4 <__warn>
8001fe50:	00000000 	nop
8001fe54:	8fc40018 	lw	a0,24(s8)
8001fe58:	0c007ec2 	jal	8001fb08 <__intr_restore>
8001fe5c:	00000000 	nop
8001fe60:	03c0e821 	move	sp,s8
8001fe64:	8fbf0024 	lw	ra,36(sp)
8001fe68:	8fbe0020 	lw	s8,32(sp)
8001fe6c:	27bd0028 	addiu	sp,sp,40
8001fe70:	03e00008 	jr	ra
8001fe74:	00000000 	nop

8001fe78 <schedule>:
8001fe78:	27bdffd8 	addiu	sp,sp,-40
8001fe7c:	afbf0024 	sw	ra,36(sp)
8001fe80:	afbe0020 	sw	s8,32(sp)
8001fe84:	03a0f021 	move	s8,sp
8001fe88:	0c007eac 	jal	8001fab0 <__intr_save>
8001fe8c:	00000000 	nop
8001fe90:	afc2001c 	sw	v0,28(s8)
8001fe94:	3c028036 	lui	v0,0x8036
8001fe98:	8c420078 	lw	v0,120(v0)
8001fe9c:	ac400010 	sw	zero,16(v0)
8001fea0:	3c028036 	lui	v0,0x8036
8001fea4:	8c420078 	lw	v0,120(v0)
8001fea8:	8c430000 	lw	v1,0(v0)
8001feac:	24020002 	li	v0,2
8001feb0:	14620006 	bne	v1,v0,8001fecc <schedule+0x54>
8001feb4:	00000000 	nop
8001feb8:	3c028036 	lui	v0,0x8036
8001febc:	8c420078 	lw	v0,120(v0)
8001fec0:	00402021 	move	a0,v0
8001fec4:	0c007ed2 	jal	8001fb48 <sched_class_enqueue>
8001fec8:	00000000 	nop
8001fecc:	0c007f01 	jal	8001fc04 <sched_class_pick_next>
8001fed0:	00000000 	nop
8001fed4:	afc20018 	sw	v0,24(s8)
8001fed8:	8fc20018 	lw	v0,24(s8)
8001fedc:	10400004 	beqz	v0,8001fef0 <schedule+0x78>
8001fee0:	00000000 	nop
8001fee4:	8fc40018 	lw	a0,24(s8)
8001fee8:	0c007eec 	jal	8001fbb0 <sched_class_dequeue>
8001feec:	00000000 	nop
8001fef0:	8fc20018 	lw	v0,24(s8)
8001fef4:	14400004 	bnez	v0,8001ff08 <schedule+0x90>
8001fef8:	00000000 	nop
8001fefc:	3c028036 	lui	v0,0x8036
8001ff00:	8c420070 	lw	v0,112(v0)
8001ff04:	afc20018 	sw	v0,24(s8)
8001ff08:	8fc20018 	lw	v0,24(s8)
8001ff0c:	8c420008 	lw	v0,8(v0)
8001ff10:	24430001 	addiu	v1,v0,1
8001ff14:	8fc20018 	lw	v0,24(s8)
8001ff18:	ac430008 	sw	v1,8(v0)
8001ff1c:	3c028036 	lui	v0,0x8036
8001ff20:	8c420078 	lw	v0,120(v0)
8001ff24:	8fc30018 	lw	v1,24(s8)
8001ff28:	10620004 	beq	v1,v0,8001ff3c <schedule+0xc4>
8001ff2c:	00000000 	nop
8001ff30:	8fc40018 	lw	a0,24(s8)
8001ff34:	0c0075fe 	jal	8001d7f8 <proc_run>
8001ff38:	00000000 	nop
8001ff3c:	8fc4001c 	lw	a0,28(s8)
8001ff40:	0c007ec2 	jal	8001fb08 <__intr_restore>
8001ff44:	00000000 	nop
8001ff48:	03c0e821 	move	sp,s8
8001ff4c:	8fbf0024 	lw	ra,36(sp)
8001ff50:	8fbe0020 	lw	s8,32(sp)
8001ff54:	27bd0028 	addiu	sp,sp,40
8001ff58:	03e00008 	jr	ra
8001ff5c:	00000000 	nop

8001ff60 <add_timer>:
8001ff60:	27bdffb0 	addiu	sp,sp,-80
8001ff64:	afbf004c 	sw	ra,76(sp)
8001ff68:	afbe0048 	sw	s8,72(sp)
8001ff6c:	03a0f021 	move	s8,sp
8001ff70:	afc40050 	sw	a0,80(s8)
8001ff74:	0c007eac 	jal	8001fab0 <__intr_save>
8001ff78:	00000000 	nop
8001ff7c:	afc2001c 	sw	v0,28(s8)
8001ff80:	8fc20050 	lw	v0,80(s8)
8001ff84:	8c420000 	lw	v0,0(v0)
8001ff88:	10400005 	beqz	v0,8001ffa0 <add_timer+0x40>
8001ff8c:	00000000 	nop
8001ff90:	8fc20050 	lw	v0,80(s8)
8001ff94:	8c420004 	lw	v0,4(v0)
8001ff98:	1440000a 	bnez	v0,8001ffc4 <add_timer+0x64>
8001ff9c:	00000000 	nop
8001ffa0:	3c028002 	lui	v0,0x8002
8001ffa4:	24444924 	addiu	a0,v0,18724
8001ffa8:	2405006c 	li	a1,108
8001ffac:	3c028002 	lui	v0,0x8002
8001ffb0:	2446493c 	addiu	a2,v0,18748
8001ffb4:	3c028002 	lui	v0,0x8002
8001ffb8:	2447498c 	addiu	a3,v0,18828
8001ffbc:	0c004544 	jal	80011510 <__panic>
8001ffc0:	00000000 	nop
8001ffc4:	8fc20050 	lw	v0,80(s8)
8001ffc8:	24420008 	addiu	v0,v0,8
8001ffcc:	afc20024 	sw	v0,36(s8)
8001ffd0:	8fc20024 	lw	v0,36(s8)
8001ffd4:	8c430004 	lw	v1,4(v0)
8001ffd8:	8fc20024 	lw	v0,36(s8)
8001ffdc:	00621026 	xor	v0,v1,v0
8001ffe0:	2c420001 	sltiu	v0,v0,1
8001ffe4:	304200ff 	andi	v0,v0,0xff
8001ffe8:	1440000a 	bnez	v0,80020014 <add_timer+0xb4>
8001ffec:	00000000 	nop
8001fff0:	3c028002 	lui	v0,0x8002
8001fff4:	24444924 	addiu	a0,v0,18724
8001fff8:	2405006d 	li	a1,109
8001fffc:	3c028002 	lui	v0,0x8002
80020000:	2446493c 	addiu	a2,v0,18748
80020004:	3c028002 	lui	v0,0x8002
80020008:	244749b8 	addiu	a3,v0,18872
8002000c:	0c004544 	jal	80011510 <__panic>
80020010:	00000000 	nop
80020014:	3c028036 	lui	v0,0x8036
80020018:	244220c0 	addiu	v0,v0,8384
8002001c:	afc20028 	sw	v0,40(s8)
80020020:	8fc20028 	lw	v0,40(s8)
80020024:	8c420004 	lw	v0,4(v0)
80020028:	afc20018 	sw	v0,24(s8)
8002002c:	0800802c 	j	800200b0 <add_timer+0x150>
80020030:	00000000 	nop
80020034:	8fc20018 	lw	v0,24(s8)
80020038:	2442fff8 	addiu	v0,v0,-8
8002003c:	afc20020 	sw	v0,32(s8)
80020040:	8fc20050 	lw	v0,80(s8)
80020044:	8c430000 	lw	v1,0(v0)
80020048:	8fc20020 	lw	v0,32(s8)
8002004c:	8c420000 	lw	v0,0(v0)
80020050:	0062102b 	sltu	v0,v1,v0
80020054:	1040000a 	beqz	v0,80020080 <add_timer+0x120>
80020058:	00000000 	nop
8002005c:	8fc20020 	lw	v0,32(s8)
80020060:	8c430000 	lw	v1,0(v0)
80020064:	8fc20050 	lw	v0,80(s8)
80020068:	8c420000 	lw	v0,0(v0)
8002006c:	00621823 	subu	v1,v1,v0
80020070:	8fc20020 	lw	v0,32(s8)
80020074:	ac430000 	sw	v1,0(v0)
80020078:	08008031 	j	800200c4 <add_timer+0x164>
8002007c:	00000000 	nop
80020080:	8fc20050 	lw	v0,80(s8)
80020084:	8c430000 	lw	v1,0(v0)
80020088:	8fc20020 	lw	v0,32(s8)
8002008c:	8c420000 	lw	v0,0(v0)
80020090:	00621823 	subu	v1,v1,v0
80020094:	8fc20050 	lw	v0,80(s8)
80020098:	ac430000 	sw	v1,0(v0)
8002009c:	8fc20018 	lw	v0,24(s8)
800200a0:	afc2002c 	sw	v0,44(s8)
800200a4:	8fc2002c 	lw	v0,44(s8)
800200a8:	8c420004 	lw	v0,4(v0)
800200ac:	afc20018 	sw	v0,24(s8)
800200b0:	8fc30018 	lw	v1,24(s8)
800200b4:	3c028036 	lui	v0,0x8036
800200b8:	244220c0 	addiu	v0,v0,8384
800200bc:	1462ffdd 	bne	v1,v0,80020034 <add_timer+0xd4>
800200c0:	00000000 	nop
800200c4:	8fc20050 	lw	v0,80(s8)
800200c8:	24420008 	addiu	v0,v0,8
800200cc:	8fc30018 	lw	v1,24(s8)
800200d0:	afc30030 	sw	v1,48(s8)
800200d4:	afc20034 	sw	v0,52(s8)
800200d8:	8fc20030 	lw	v0,48(s8)
800200dc:	8c420000 	lw	v0,0(v0)
800200e0:	8fc30034 	lw	v1,52(s8)
800200e4:	afc30038 	sw	v1,56(s8)
800200e8:	afc2003c 	sw	v0,60(s8)
800200ec:	8fc20030 	lw	v0,48(s8)
800200f0:	afc20040 	sw	v0,64(s8)
800200f4:	8fc20040 	lw	v0,64(s8)
800200f8:	8fc30038 	lw	v1,56(s8)
800200fc:	ac430000 	sw	v1,0(v0)
80020100:	8fc20040 	lw	v0,64(s8)
80020104:	8c430000 	lw	v1,0(v0)
80020108:	8fc2003c 	lw	v0,60(s8)
8002010c:	ac430004 	sw	v1,4(v0)
80020110:	8fc20038 	lw	v0,56(s8)
80020114:	8fc30040 	lw	v1,64(s8)
80020118:	ac430004 	sw	v1,4(v0)
8002011c:	8fc20038 	lw	v0,56(s8)
80020120:	8fc3003c 	lw	v1,60(s8)
80020124:	ac430000 	sw	v1,0(v0)
80020128:	8fc4001c 	lw	a0,28(s8)
8002012c:	0c007ec2 	jal	8001fb08 <__intr_restore>
80020130:	00000000 	nop
80020134:	03c0e821 	move	sp,s8
80020138:	8fbf004c 	lw	ra,76(sp)
8002013c:	8fbe0048 	lw	s8,72(sp)
80020140:	27bd0050 	addiu	sp,sp,80
80020144:	03e00008 	jr	ra
80020148:	00000000 	nop

8002014c <del_timer>:
8002014c:	27bdffb8 	addiu	sp,sp,-72
80020150:	afbf0044 	sw	ra,68(sp)
80020154:	afbe0040 	sw	s8,64(sp)
80020158:	03a0f021 	move	s8,sp
8002015c:	afc40048 	sw	a0,72(s8)
80020160:	0c007eac 	jal	8001fab0 <__intr_save>
80020164:	00000000 	nop
80020168:	afc20018 	sw	v0,24(s8)
8002016c:	8fc20048 	lw	v0,72(s8)
80020170:	24420008 	addiu	v0,v0,8
80020174:	afc20024 	sw	v0,36(s8)
80020178:	8fc20024 	lw	v0,36(s8)
8002017c:	8c430004 	lw	v1,4(v0)
80020180:	8fc20024 	lw	v0,36(s8)
80020184:	00621026 	xor	v0,v1,v0
80020188:	2c420001 	sltiu	v0,v0,1
8002018c:	304200ff 	andi	v0,v0,0xff
80020190:	14400034 	bnez	v0,80020264 <del_timer+0x118>
80020194:	00000000 	nop
80020198:	8fc20048 	lw	v0,72(s8)
8002019c:	8c420000 	lw	v0,0(v0)
800201a0:	10400016 	beqz	v0,800201fc <del_timer+0xb0>
800201a4:	00000000 	nop
800201a8:	8fc20048 	lw	v0,72(s8)
800201ac:	24420008 	addiu	v0,v0,8
800201b0:	afc20028 	sw	v0,40(s8)
800201b4:	8fc20028 	lw	v0,40(s8)
800201b8:	8c420004 	lw	v0,4(v0)
800201bc:	afc2001c 	sw	v0,28(s8)
800201c0:	8fc3001c 	lw	v1,28(s8)
800201c4:	3c028036 	lui	v0,0x8036
800201c8:	244220c0 	addiu	v0,v0,8384
800201cc:	1062000b 	beq	v1,v0,800201fc <del_timer+0xb0>
800201d0:	00000000 	nop
800201d4:	8fc2001c 	lw	v0,28(s8)
800201d8:	2442fff8 	addiu	v0,v0,-8
800201dc:	afc20020 	sw	v0,32(s8)
800201e0:	8fc20020 	lw	v0,32(s8)
800201e4:	8c430000 	lw	v1,0(v0)
800201e8:	8fc20048 	lw	v0,72(s8)
800201ec:	8c420000 	lw	v0,0(v0)
800201f0:	00621821 	addu	v1,v1,v0
800201f4:	8fc20020 	lw	v0,32(s8)
800201f8:	ac430000 	sw	v1,0(v0)
800201fc:	8fc20048 	lw	v0,72(s8)
80020200:	24420008 	addiu	v0,v0,8
80020204:	afc2002c 	sw	v0,44(s8)
80020208:	8fc2002c 	lw	v0,44(s8)
8002020c:	afc20030 	sw	v0,48(s8)
80020210:	8fc20030 	lw	v0,48(s8)
80020214:	8c430000 	lw	v1,0(v0)
80020218:	8fc20030 	lw	v0,48(s8)
8002021c:	8c420004 	lw	v0,4(v0)
80020220:	afc30034 	sw	v1,52(s8)
80020224:	afc20038 	sw	v0,56(s8)
80020228:	8fc20034 	lw	v0,52(s8)
8002022c:	8fc30038 	lw	v1,56(s8)
80020230:	ac430004 	sw	v1,4(v0)
80020234:	8fc20038 	lw	v0,56(s8)
80020238:	8fc30034 	lw	v1,52(s8)
8002023c:	ac430000 	sw	v1,0(v0)
80020240:	8fc2002c 	lw	v0,44(s8)
80020244:	afc2003c 	sw	v0,60(s8)
80020248:	8fc2003c 	lw	v0,60(s8)
8002024c:	8fc3003c 	lw	v1,60(s8)
80020250:	ac430004 	sw	v1,4(v0)
80020254:	8fc2003c 	lw	v0,60(s8)
80020258:	8c430004 	lw	v1,4(v0)
8002025c:	8fc2003c 	lw	v0,60(s8)
80020260:	ac430000 	sw	v1,0(v0)
80020264:	8fc40018 	lw	a0,24(s8)
80020268:	0c007ec2 	jal	8001fb08 <__intr_restore>
8002026c:	00000000 	nop
80020270:	03c0e821 	move	sp,s8
80020274:	8fbf0044 	lw	ra,68(sp)
80020278:	8fbe0040 	lw	s8,64(sp)
8002027c:	27bd0048 	addiu	sp,sp,72
80020280:	03e00008 	jr	ra
80020284:	00000000 	nop

80020288 <run_timer_list>:
80020288:	27bdffc8 	addiu	sp,sp,-56
8002028c:	afbf0034 	sw	ra,52(sp)
80020290:	afbe0030 	sw	s8,48(sp)
80020294:	03a0f021 	move	s8,sp
80020298:	0c007eac 	jal	8001fab0 <__intr_save>
8002029c:	00000000 	nop
800202a0:	afc20020 	sw	v0,32(s8)
800202a4:	3c028036 	lui	v0,0x8036
800202a8:	244220c0 	addiu	v0,v0,8384
800202ac:	afc20028 	sw	v0,40(s8)
800202b0:	8fc20028 	lw	v0,40(s8)
800202b4:	8c420004 	lw	v0,4(v0)
800202b8:	afc20018 	sw	v0,24(s8)
800202bc:	8fc30018 	lw	v1,24(s8)
800202c0:	3c028036 	lui	v0,0x8036
800202c4:	244220c0 	addiu	v0,v0,8384
800202c8:	1062004f 	beq	v1,v0,80020408 <run_timer_list+0x180>
800202cc:	00000000 	nop
800202d0:	8fc20018 	lw	v0,24(s8)
800202d4:	2442fff8 	addiu	v0,v0,-8
800202d8:	afc2001c 	sw	v0,28(s8)
800202dc:	8fc2001c 	lw	v0,28(s8)
800202e0:	8c420000 	lw	v0,0(v0)
800202e4:	1440000a 	bnez	v0,80020310 <run_timer_list+0x88>
800202e8:	00000000 	nop
800202ec:	3c028002 	lui	v0,0x8002
800202f0:	24444924 	addiu	a0,v0,18724
800202f4:	2405009a 	li	a1,154
800202f8:	3c028002 	lui	v0,0x8002
800202fc:	2446493c 	addiu	a2,v0,18748
80020300:	3c028002 	lui	v0,0x8002
80020304:	244749dc 	addiu	a3,v0,18908
80020308:	0c004544 	jal	80011510 <__panic>
8002030c:	00000000 	nop
80020310:	8fc2001c 	lw	v0,28(s8)
80020314:	8c420000 	lw	v0,0(v0)
80020318:	2443ffff 	addiu	v1,v0,-1
8002031c:	8fc2001c 	lw	v0,28(s8)
80020320:	ac430000 	sw	v1,0(v0)
80020324:	080080fe 	j	800203f8 <run_timer_list+0x170>
80020328:	00000000 	nop
8002032c:	8fc20018 	lw	v0,24(s8)
80020330:	afc2002c 	sw	v0,44(s8)
80020334:	8fc2002c 	lw	v0,44(s8)
80020338:	8c420004 	lw	v0,4(v0)
8002033c:	afc20018 	sw	v0,24(s8)
80020340:	8fc2001c 	lw	v0,28(s8)
80020344:	8c420004 	lw	v0,4(v0)
80020348:	afc20024 	sw	v0,36(s8)
8002034c:	8fc20024 	lw	v0,36(s8)
80020350:	8c4200a0 	lw	v0,160(v0)
80020354:	1040000e 	beqz	v0,80020390 <run_timer_list+0x108>
80020358:	00000000 	nop
8002035c:	8fc20024 	lw	v0,36(s8)
80020360:	8c4200a0 	lw	v0,160(v0)
80020364:	04400014 	bltz	v0,800203b8 <run_timer_list+0x130>
80020368:	00000000 	nop
8002036c:	3c028002 	lui	v0,0x8002
80020370:	24444924 	addiu	a0,v0,18724
80020374:	240500a0 	li	a1,160
80020378:	3c028002 	lui	v0,0x8002
8002037c:	2446493c 	addiu	a2,v0,18748
80020380:	3c028002 	lui	v0,0x8002
80020384:	244749f0 	addiu	a3,v0,18928
80020388:	0c004544 	jal	80011510 <__panic>
8002038c:	00000000 	nop
80020390:	8fc20024 	lw	v0,36(s8)
80020394:	8c420004 	lw	v0,4(v0)
80020398:	3c038002 	lui	v1,0x8002
8002039c:	24644924 	addiu	a0,v1,18724
800203a0:	240500a3 	li	a1,163
800203a4:	3c038002 	lui	v1,0x8002
800203a8:	24664a14 	addiu	a2,v1,18964
800203ac:	00403821 	move	a3,v0
800203b0:	0c00456d 	jal	800115b4 <__warn>
800203b4:	00000000 	nop
800203b8:	8fc40024 	lw	a0,36(s8)
800203bc:	0c007f64 	jal	8001fd90 <wakeup_proc>
800203c0:	00000000 	nop
800203c4:	8fc4001c 	lw	a0,28(s8)
800203c8:	0c008053 	jal	8002014c <del_timer>
800203cc:	00000000 	nop
800203d0:	8fc30018 	lw	v1,24(s8)
800203d4:	3c028036 	lui	v0,0x8036
800203d8:	244220c0 	addiu	v0,v0,8384
800203dc:	14620003 	bne	v1,v0,800203ec <run_timer_list+0x164>
800203e0:	00000000 	nop
800203e4:	08008102 	j	80020408 <run_timer_list+0x180>
800203e8:	00000000 	nop
800203ec:	8fc20018 	lw	v0,24(s8)
800203f0:	2442fff8 	addiu	v0,v0,-8
800203f4:	afc2001c 	sw	v0,28(s8)
800203f8:	8fc2001c 	lw	v0,28(s8)
800203fc:	8c420000 	lw	v0,0(v0)
80020400:	1040ffca 	beqz	v0,8002032c <run_timer_list+0xa4>
80020404:	00000000 	nop
80020408:	3c028036 	lui	v0,0x8036
8002040c:	8c420078 	lw	v0,120(v0)
80020410:	00402021 	move	a0,v0
80020414:	0c007f14 	jal	8001fc50 <sched_class_proc_tick>
80020418:	00000000 	nop
8002041c:	8fc40020 	lw	a0,32(s8)
80020420:	0c007ec2 	jal	8001fb08 <__intr_restore>
80020424:	00000000 	nop
80020428:	03c0e821 	move	sp,s8
8002042c:	8fbf0034 	lw	ra,52(sp)
80020430:	8fbe0030 	lw	s8,48(sp)
80020434:	27bd0038 	addiu	sp,sp,56
80020438:	03e00008 	jr	ra
8002043c:	00000000 	nop

80020440 <sys_exit>:
80020440:	27bdffd8 	addiu	sp,sp,-40
80020444:	afbf0024 	sw	ra,36(sp)
80020448:	afbe0020 	sw	s8,32(sp)
8002044c:	03a0f021 	move	s8,sp
80020450:	afc40028 	sw	a0,40(s8)
80020454:	8fc20028 	lw	v0,40(s8)
80020458:	8c420000 	lw	v0,0(v0)
8002045c:	afc20018 	sw	v0,24(s8)
80020460:	8fc40018 	lw	a0,24(s8)
80020464:	0c007847 	jal	8001e11c <do_exit>
80020468:	00000000 	nop
8002046c:	03c0e821 	move	sp,s8
80020470:	8fbf0024 	lw	ra,36(sp)
80020474:	8fbe0020 	lw	s8,32(sp)
80020478:	27bd0028 	addiu	sp,sp,40
8002047c:	03e00008 	jr	ra
80020480:	00000000 	nop

80020484 <sys_fork>:
80020484:	27bdffd8 	addiu	sp,sp,-40
80020488:	afbf0024 	sw	ra,36(sp)
8002048c:	afbe0020 	sw	s8,32(sp)
80020490:	03a0f021 	move	s8,sp
80020494:	afc40028 	sw	a0,40(s8)
80020498:	3c028036 	lui	v0,0x8036
8002049c:	8c420078 	lw	v0,120(v0)
800204a0:	8c42004c 	lw	v0,76(v0)
800204a4:	afc20018 	sw	v0,24(s8)
800204a8:	8fc20018 	lw	v0,24(s8)
800204ac:	8c420074 	lw	v0,116(v0)
800204b0:	afc2001c 	sw	v0,28(s8)
800204b4:	00002021 	move	a0,zero
800204b8:	8fc5001c 	lw	a1,28(s8)
800204bc:	8fc60018 	lw	a2,24(s8)
800204c0:	0c0077e9 	jal	8001dfa4 <do_fork>
800204c4:	00000000 	nop
800204c8:	03c0e821 	move	sp,s8
800204cc:	8fbf0024 	lw	ra,36(sp)
800204d0:	8fbe0020 	lw	s8,32(sp)
800204d4:	27bd0028 	addiu	sp,sp,40
800204d8:	03e00008 	jr	ra
800204dc:	00000000 	nop

800204e0 <sys_wait>:
800204e0:	27bdffd8 	addiu	sp,sp,-40
800204e4:	afbf0024 	sw	ra,36(sp)
800204e8:	afbe0020 	sw	s8,32(sp)
800204ec:	03a0f021 	move	s8,sp
800204f0:	afc40028 	sw	a0,40(s8)
800204f4:	8fc20028 	lw	v0,40(s8)
800204f8:	8c420000 	lw	v0,0(v0)
800204fc:	afc20018 	sw	v0,24(s8)
80020500:	8fc20028 	lw	v0,40(s8)
80020504:	24420004 	addiu	v0,v0,4
80020508:	8c420000 	lw	v0,0(v0)
8002050c:	afc2001c 	sw	v0,28(s8)
80020510:	8fc40018 	lw	a0,24(s8)
80020514:	8fc5001c 	lw	a1,28(s8)
80020518:	0c007b57 	jal	8001ed5c <do_wait>
8002051c:	00000000 	nop
80020520:	03c0e821 	move	sp,s8
80020524:	8fbf0024 	lw	ra,36(sp)
80020528:	8fbe0020 	lw	s8,32(sp)
8002052c:	27bd0028 	addiu	sp,sp,40
80020530:	03e00008 	jr	ra
80020534:	00000000 	nop

80020538 <sys_exec>:
80020538:	27bdffd0 	addiu	sp,sp,-48
8002053c:	afbf002c 	sw	ra,44(sp)
80020540:	afbe0028 	sw	s8,40(sp)
80020544:	03a0f021 	move	s8,sp
80020548:	afc40030 	sw	a0,48(s8)
8002054c:	8fc20030 	lw	v0,48(s8)
80020550:	8c420000 	lw	v0,0(v0)
80020554:	afc20018 	sw	v0,24(s8)
80020558:	8fc20030 	lw	v0,48(s8)
8002055c:	8c420004 	lw	v0,4(v0)
80020560:	afc2001c 	sw	v0,28(s8)
80020564:	8fc20030 	lw	v0,48(s8)
80020568:	24420008 	addiu	v0,v0,8
8002056c:	8c420000 	lw	v0,0(v0)
80020570:	afc20020 	sw	v0,32(s8)
80020574:	8fc20030 	lw	v0,48(s8)
80020578:	8c42000c 	lw	v0,12(v0)
8002057c:	afc20024 	sw	v0,36(s8)
80020580:	8fc40018 	lw	a0,24(s8)
80020584:	8fc5001c 	lw	a1,28(s8)
80020588:	8fc60020 	lw	a2,32(s8)
8002058c:	8fc70024 	lw	a3,36(s8)
80020590:	0c007ae5 	jal	8001eb94 <do_execve>
80020594:	00000000 	nop
80020598:	03c0e821 	move	sp,s8
8002059c:	8fbf002c 	lw	ra,44(sp)
800205a0:	8fbe0028 	lw	s8,40(sp)
800205a4:	27bd0030 	addiu	sp,sp,48
800205a8:	03e00008 	jr	ra
800205ac:	00000000 	nop

800205b0 <sys_yield>:
800205b0:	27bdffe0 	addiu	sp,sp,-32
800205b4:	afbf001c 	sw	ra,28(sp)
800205b8:	afbe0018 	sw	s8,24(sp)
800205bc:	03a0f021 	move	s8,sp
800205c0:	afc40020 	sw	a0,32(s8)
800205c4:	0c007b4a 	jal	8001ed28 <do_yield>
800205c8:	00000000 	nop
800205cc:	03c0e821 	move	sp,s8
800205d0:	8fbf001c 	lw	ra,28(sp)
800205d4:	8fbe0018 	lw	s8,24(sp)
800205d8:	27bd0020 	addiu	sp,sp,32
800205dc:	03e00008 	jr	ra
800205e0:	00000000 	nop

800205e4 <sys_kill>:
800205e4:	27bdffd8 	addiu	sp,sp,-40
800205e8:	afbf0024 	sw	ra,36(sp)
800205ec:	afbe0020 	sw	s8,32(sp)
800205f0:	03a0f021 	move	s8,sp
800205f4:	afc40028 	sw	a0,40(s8)
800205f8:	8fc20028 	lw	v0,40(s8)
800205fc:	8c420000 	lw	v0,0(v0)
80020600:	afc20018 	sw	v0,24(s8)
80020604:	8fc40018 	lw	a0,24(s8)
80020608:	0c007bee 	jal	8001efb8 <do_kill>
8002060c:	00000000 	nop
80020610:	03c0e821 	move	sp,s8
80020614:	8fbf0024 	lw	ra,36(sp)
80020618:	8fbe0020 	lw	s8,32(sp)
8002061c:	27bd0028 	addiu	sp,sp,40
80020620:	03e00008 	jr	ra
80020624:	00000000 	nop

80020628 <sys_getpid>:
80020628:	27bdfff8 	addiu	sp,sp,-8
8002062c:	afbe0004 	sw	s8,4(sp)
80020630:	03a0f021 	move	s8,sp
80020634:	afc40008 	sw	a0,8(s8)
80020638:	3c028036 	lui	v0,0x8036
8002063c:	8c420078 	lw	v0,120(v0)
80020640:	8c420004 	lw	v0,4(v0)
80020644:	03c0e821 	move	sp,s8
80020648:	8fbe0004 	lw	s8,4(sp)
8002064c:	27bd0008 	addiu	sp,sp,8
80020650:	03e00008 	jr	ra
80020654:	00000000 	nop

80020658 <sys_putc>:
80020658:	27bdffd8 	addiu	sp,sp,-40
8002065c:	afbf0024 	sw	ra,36(sp)
80020660:	afbe0020 	sw	s8,32(sp)
80020664:	03a0f021 	move	s8,sp
80020668:	afc40028 	sw	a0,40(s8)
8002066c:	8fc20028 	lw	v0,40(s8)
80020670:	8c420000 	lw	v0,0(v0)
80020674:	afc20018 	sw	v0,24(s8)
80020678:	8fc40018 	lw	a0,24(s8)
8002067c:	0c004155 	jal	80010554 <cputchar>
80020680:	00000000 	nop
80020684:	00001021 	move	v0,zero
80020688:	03c0e821 	move	sp,s8
8002068c:	8fbf0024 	lw	ra,36(sp)
80020690:	8fbe0020 	lw	s8,32(sp)
80020694:	27bd0028 	addiu	sp,sp,40
80020698:	03e00008 	jr	ra
8002069c:	00000000 	nop

800206a0 <sys_pgdir>:
800206a0:	27bdffe0 	addiu	sp,sp,-32
800206a4:	afbf001c 	sw	ra,28(sp)
800206a8:	afbe0018 	sw	s8,24(sp)
800206ac:	03a0f021 	move	s8,sp
800206b0:	afc40020 	sw	a0,32(s8)
800206b4:	0c005c49 	jal	80017124 <print_pgdir>
800206b8:	00000000 	nop
800206bc:	00001021 	move	v0,zero
800206c0:	03c0e821 	move	sp,s8
800206c4:	8fbf001c 	lw	ra,28(sp)
800206c8:	8fbe0018 	lw	s8,24(sp)
800206cc:	27bd0020 	addiu	sp,sp,32
800206d0:	03e00008 	jr	ra
800206d4:	00000000 	nop

800206d8 <sys_gettime>:
800206d8:	27bdfff8 	addiu	sp,sp,-8
800206dc:	afbe0004 	sw	s8,4(sp)
800206e0:	03a0f021 	move	s8,sp
800206e4:	afc40008 	sw	a0,8(s8)
800206e8:	3c028036 	lui	v0,0x8036
800206ec:	8c42229c 	lw	v0,8860(v0)
800206f0:	03c0e821 	move	sp,s8
800206f4:	8fbe0004 	lw	s8,4(sp)
800206f8:	27bd0008 	addiu	sp,sp,8
800206fc:	03e00008 	jr	ra
80020700:	00000000 	nop

80020704 <sys_lab6_set_priority>:
80020704:	27bdffd8 	addiu	sp,sp,-40
80020708:	afbf0024 	sw	ra,36(sp)
8002070c:	afbe0020 	sw	s8,32(sp)
80020710:	03a0f021 	move	s8,sp
80020714:	afc40028 	sw	a0,40(s8)
80020718:	8fc20028 	lw	v0,40(s8)
8002071c:	8c420000 	lw	v0,0(v0)
80020720:	afc20018 	sw	v0,24(s8)
80020724:	8fc40018 	lw	a0,24(s8)
80020728:	0c007d69 	jal	8001f5a4 <lab6_set_priority>
8002072c:	00000000 	nop
80020730:	00001021 	move	v0,zero
80020734:	03c0e821 	move	sp,s8
80020738:	8fbf0024 	lw	ra,36(sp)
8002073c:	8fbe0020 	lw	s8,32(sp)
80020740:	27bd0028 	addiu	sp,sp,40
80020744:	03e00008 	jr	ra
80020748:	00000000 	nop

8002074c <sys_sleep>:
8002074c:	27bdffd8 	addiu	sp,sp,-40
80020750:	afbf0024 	sw	ra,36(sp)
80020754:	afbe0020 	sw	s8,32(sp)
80020758:	03a0f021 	move	s8,sp
8002075c:	afc40028 	sw	a0,40(s8)
80020760:	8fc20028 	lw	v0,40(s8)
80020764:	8c420000 	lw	v0,0(v0)
80020768:	afc20018 	sw	v0,24(s8)
8002076c:	8fc40018 	lw	a0,24(s8)
80020770:	0c007d7f 	jal	8001f5fc <do_sleep>
80020774:	00000000 	nop
80020778:	03c0e821 	move	sp,s8
8002077c:	8fbf0024 	lw	ra,36(sp)
80020780:	8fbe0020 	lw	s8,32(sp)
80020784:	27bd0028 	addiu	sp,sp,40
80020788:	03e00008 	jr	ra
8002078c:	00000000 	nop

80020790 <syscall>:
80020790:	27bdffb8 	addiu	sp,sp,-72
80020794:	afbf0044 	sw	ra,68(sp)
80020798:	afbe0040 	sw	s8,64(sp)
8002079c:	03a0f021 	move	s8,sp
800207a0:	3c028036 	lui	v0,0x8036
800207a4:	8c420078 	lw	v0,120(v0)
800207a8:	8c42004c 	lw	v0,76(v0)
800207ac:	afc20020 	sw	v0,32(s8)
800207b0:	8fc20020 	lw	v0,32(s8)
800207b4:	8c420008 	lw	v0,8(v0)
800207b8:	afc20024 	sw	v0,36(s8)
800207bc:	8fc20024 	lw	v0,36(s8)
800207c0:	04400031 	bltz	v0,80020888 <syscall+0xf8>
800207c4:	00000000 	nop
800207c8:	8fc20024 	lw	v0,36(s8)
800207cc:	2c420100 	sltiu	v0,v0,256
800207d0:	1040002d 	beqz	v0,80020888 <syscall+0xf8>
800207d4:	00000000 	nop
800207d8:	3c028036 	lui	v0,0x8036
800207dc:	8fc30024 	lw	v1,36(s8)
800207e0:	00031880 	sll	v1,v1,0x2
800207e4:	2442f5d0 	addiu	v0,v0,-2608
800207e8:	00621021 	addu	v0,v1,v0
800207ec:	8c420000 	lw	v0,0(v0)
800207f0:	10400025 	beqz	v0,80020888 <syscall+0xf8>
800207f4:	00000000 	nop
800207f8:	8fc20020 	lw	v0,32(s8)
800207fc:	8c420010 	lw	v0,16(v0)
80020800:	afc20028 	sw	v0,40(s8)
80020804:	8fc20020 	lw	v0,32(s8)
80020808:	8c420014 	lw	v0,20(v0)
8002080c:	afc2002c 	sw	v0,44(s8)
80020810:	8fc20020 	lw	v0,32(s8)
80020814:	8c420018 	lw	v0,24(v0)
80020818:	afc20030 	sw	v0,48(s8)
8002081c:	8fc20020 	lw	v0,32(s8)
80020820:	8c42001c 	lw	v0,28(v0)
80020824:	afc20034 	sw	v0,52(s8)
80020828:	8fc20020 	lw	v0,32(s8)
8002082c:	8c42000c 	lw	v0,12(v0)
80020830:	afc20038 	sw	v0,56(s8)
80020834:	8fc20020 	lw	v0,32(s8)
80020838:	8c420088 	lw	v0,136(v0)
8002083c:	24430004 	addiu	v1,v0,4
80020840:	8fc20020 	lw	v0,32(s8)
80020844:	ac430088 	sw	v1,136(v0)
80020848:	3c028036 	lui	v0,0x8036
8002084c:	8fc30024 	lw	v1,36(s8)
80020850:	00031880 	sll	v1,v1,0x2
80020854:	2442f5d0 	addiu	v0,v0,-2608
80020858:	00621021 	addu	v0,v1,v0
8002085c:	8c420000 	lw	v0,0(v0)
80020860:	27c30028 	addiu	v1,s8,40
80020864:	00602021 	move	a0,v1
80020868:	0040c821 	move	t9,v0
8002086c:	0320f809 	jalr	t9
80020870:	00000000 	nop
80020874:	00401821 	move	v1,v0
80020878:	8fc20020 	lw	v0,32(s8)
8002087c:	ac430008 	sw	v1,8(v0)
80020880:	08008235 	j	800208d4 <syscall+0x144>
80020884:	00000000 	nop
80020888:	8fc40020 	lw	a0,32(s8)
8002088c:	0c004787 	jal	80011e1c <print_trapframe>
80020890:	00000000 	nop
80020894:	3c028036 	lui	v0,0x8036
80020898:	8c420078 	lw	v0,120(v0)
8002089c:	8c430004 	lw	v1,4(v0)
800208a0:	3c028036 	lui	v0,0x8036
800208a4:	8c420078 	lw	v0,120(v0)
800208a8:	24420058 	addiu	v0,v0,88
800208ac:	afa30010 	sw	v1,16(sp)
800208b0:	afa20014 	sw	v0,20(sp)
800208b4:	3c028002 	lui	v0,0x8002
800208b8:	24444a40 	addiu	a0,v0,19008
800208bc:	2405007a 	li	a1,122
800208c0:	3c028002 	lui	v0,0x8002
800208c4:	24464a58 	addiu	a2,v0,19032
800208c8:	8fc70024 	lw	a3,36(s8)
800208cc:	0c004544 	jal	80011510 <__panic>
800208d0:	00000000 	nop
800208d4:	03c0e821 	move	sp,s8
800208d8:	8fbf0044 	lw	ra,68(sp)
800208dc:	8fbe0040 	lw	s8,64(sp)
800208e0:	27bd0048 	addiu	sp,sp,72
800208e4:	03e00008 	jr	ra
800208e8:	00000000 	nop
800208ec:	00000000 	nop

800208f0 <hash32>:
800208f0:	27bdffe8 	addiu	sp,sp,-24
800208f4:	afbe0014 	sw	s8,20(sp)
800208f8:	03a0f021 	move	s8,sp
800208fc:	afc40018 	sw	a0,24(s8)
80020900:	afc5001c 	sw	a1,28(s8)
80020904:	8fc30018 	lw	v1,24(s8)
80020908:	3c029e37 	lui	v0,0x9e37
8002090c:	34420001 	ori	v0,v0,0x1
80020910:	00620018 	mult	v1,v0
80020914:	00001012 	mflo	v0
80020918:	afc20008 	sw	v0,8(s8)
8002091c:	24030020 	li	v1,32
80020920:	8fc2001c 	lw	v0,28(s8)
80020924:	00621023 	subu	v0,v1,v0
80020928:	8fc30008 	lw	v1,8(s8)
8002092c:	00431006 	srlv	v0,v1,v0
80020930:	03c0e821 	move	sp,s8
80020934:	8fbe0014 	lw	s8,20(sp)
80020938:	27bd0018 	addiu	sp,sp,24
8002093c:	03e00008 	jr	ra
80020940:	00000000 	nop
	...

80020950 <printnum>:
80020950:	27bdffb8 	addiu	sp,sp,-72
80020954:	afbf0044 	sw	ra,68(sp)
80020958:	afbe0040 	sw	s8,64(sp)
8002095c:	03a0f021 	move	s8,sp
80020960:	afc40048 	sw	a0,72(s8)
80020964:	afc5004c 	sw	a1,76(s8)
80020968:	afc60050 	sw	a2,80(s8)
8002096c:	afc70054 	sw	a3,84(s8)
80020970:	8fc40050 	lw	a0,80(s8)
80020974:	8fc50054 	lw	a1,84(s8)
80020978:	00800013 	mtlo	a0
8002097c:	00a00011 	mthi	a1
80020980:	00002012 	mflo	a0
80020984:	00002810 	mfhi	a1
80020988:	afc40028 	sw	a0,40(s8)
8002098c:	afc5002c 	sw	a1,44(s8)
80020990:	8fc50058 	lw	a1,88(s8)
80020994:	2404000a 	li	a0,10
80020998:	14a40040 	bne	a1,a0,80020a9c <printnum+0x14c>
8002099c:	00000000 	nop
800209a0:	8fc4002c 	lw	a0,44(s8)
800209a4:	000427c0 	sll	a0,a0,0x1f
800209a8:	8fc50028 	lw	a1,40(s8)
800209ac:	00055042 	srl	t2,a1,0x1
800209b0:	008a5025 	or	t2,a0,t2
800209b4:	8fc4002c 	lw	a0,44(s8)
800209b8:	00045842 	srl	t3,a0,0x1
800209bc:	01402821 	move	a1,t2
800209c0:	8fc4002c 	lw	a0,44(s8)
800209c4:	00042780 	sll	a0,a0,0x1e
800209c8:	8fc60028 	lw	a2,40(s8)
800209cc:	00064082 	srl	t0,a2,0x2
800209d0:	00884025 	or	t0,a0,t0
800209d4:	8fc4002c 	lw	a0,44(s8)
800209d8:	00044882 	srl	t1,a0,0x2
800209dc:	01002021 	move	a0,t0
800209e0:	00a42021 	addu	a0,a1,a0
800209e4:	afc40034 	sw	a0,52(s8)
800209e8:	8fc40034 	lw	a0,52(s8)
800209ec:	00042102 	srl	a0,a0,0x4
800209f0:	8fc50034 	lw	a1,52(s8)
800209f4:	00a42021 	addu	a0,a1,a0
800209f8:	afc40034 	sw	a0,52(s8)
800209fc:	8fc40034 	lw	a0,52(s8)
80020a00:	00042202 	srl	a0,a0,0x8
80020a04:	8fc50034 	lw	a1,52(s8)
80020a08:	00a42021 	addu	a0,a1,a0
80020a0c:	afc40034 	sw	a0,52(s8)
80020a10:	8fc40034 	lw	a0,52(s8)
80020a14:	00042402 	srl	a0,a0,0x10
80020a18:	8fc50034 	lw	a1,52(s8)
80020a1c:	00a42021 	addu	a0,a1,a0
80020a20:	afc40034 	sw	a0,52(s8)
80020a24:	8fc40034 	lw	a0,52(s8)
80020a28:	000420c2 	srl	a0,a0,0x3
80020a2c:	afc40034 	sw	a0,52(s8)
80020a30:	8fc50028 	lw	a1,40(s8)
80020a34:	8fc40034 	lw	a0,52(s8)
80020a38:	00043080 	sll	a2,a0,0x2
80020a3c:	8fc40034 	lw	a0,52(s8)
80020a40:	00c42021 	addu	a0,a2,a0
80020a44:	00042040 	sll	a0,a0,0x1
80020a48:	00a42023 	subu	a0,a1,a0
80020a4c:	afc40030 	sw	a0,48(s8)
80020a50:	8fc40030 	lw	a0,48(s8)
80020a54:	24840006 	addiu	a0,a0,6
80020a58:	00042102 	srl	a0,a0,0x4
80020a5c:	8fc50034 	lw	a1,52(s8)
80020a60:	00a42021 	addu	a0,a1,a0
80020a64:	afc40034 	sw	a0,52(s8)
80020a68:	8fc50028 	lw	a1,40(s8)
80020a6c:	8fc40034 	lw	a0,52(s8)
80020a70:	00043080 	sll	a2,a0,0x2
80020a74:	8fc40034 	lw	a0,52(s8)
80020a78:	00c42021 	addu	a0,a2,a0
80020a7c:	00042040 	sll	a0,a0,0x1
80020a80:	00a42023 	subu	a0,a1,a0
80020a84:	afc40030 	sw	a0,48(s8)
80020a88:	8fc40034 	lw	a0,52(s8)
80020a8c:	afc40028 	sw	a0,40(s8)
80020a90:	afc0002c 	sw	zero,44(s8)
80020a94:	080082e9 	j	80020ba4 <printnum+0x254>
80020a98:	00000000 	nop
80020a9c:	8fc50058 	lw	a1,88(s8)
80020aa0:	24040010 	li	a0,16
80020aa4:	14a4000f 	bne	a1,a0,80020ae4 <printnum+0x194>
80020aa8:	00000000 	nop
80020aac:	8fc40028 	lw	a0,40(s8)
80020ab0:	3084000f 	andi	a0,a0,0xf
80020ab4:	afc40030 	sw	a0,48(s8)
80020ab8:	8fc4002c 	lw	a0,44(s8)
80020abc:	00042700 	sll	a0,a0,0x1c
80020ac0:	8fc50028 	lw	a1,40(s8)
80020ac4:	00052902 	srl	a1,a1,0x4
80020ac8:	00a42025 	or	a0,a1,a0
80020acc:	afc40028 	sw	a0,40(s8)
80020ad0:	8fc4002c 	lw	a0,44(s8)
80020ad4:	00042102 	srl	a0,a0,0x4
80020ad8:	afc4002c 	sw	a0,44(s8)
80020adc:	080082e9 	j	80020ba4 <printnum+0x254>
80020ae0:	00000000 	nop
80020ae4:	8fc50058 	lw	a1,88(s8)
80020ae8:	24040008 	li	a0,8
80020aec:	14a4000f 	bne	a1,a0,80020b2c <printnum+0x1dc>
80020af0:	00000000 	nop
80020af4:	8fc40028 	lw	a0,40(s8)
80020af8:	30840007 	andi	a0,a0,0x7
80020afc:	afc40030 	sw	a0,48(s8)
80020b00:	8fc4002c 	lw	a0,44(s8)
80020b04:	00042740 	sll	a0,a0,0x1d
80020b08:	8fc50028 	lw	a1,40(s8)
80020b0c:	000528c2 	srl	a1,a1,0x3
80020b10:	00a42025 	or	a0,a1,a0
80020b14:	afc40028 	sw	a0,40(s8)
80020b18:	8fc4002c 	lw	a0,44(s8)
80020b1c:	000420c2 	srl	a0,a0,0x3
80020b20:	afc4002c 	sw	a0,44(s8)
80020b24:	080082e9 	j	80020ba4 <printnum+0x254>
80020b28:	00000000 	nop
80020b2c:	8fc50058 	lw	a1,88(s8)
80020b30:	3c048000 	lui	a0,0x8000
80020b34:	14a40011 	bne	a1,a0,80020b7c <printnum+0x22c>
80020b38:	00000000 	nop
80020b3c:	8fc50028 	lw	a1,40(s8)
80020b40:	3c047fff 	lui	a0,0x7fff
80020b44:	3484ffff 	ori	a0,a0,0xffff
80020b48:	00a42024 	and	a0,a1,a0
80020b4c:	afc40030 	sw	a0,48(s8)
80020b50:	8fc4002c 	lw	a0,44(s8)
80020b54:	00042040 	sll	a0,a0,0x1
80020b58:	8fc50028 	lw	a1,40(s8)
80020b5c:	00052fc2 	srl	a1,a1,0x1f
80020b60:	00a42025 	or	a0,a1,a0
80020b64:	afc40028 	sw	a0,40(s8)
80020b68:	8fc4002c 	lw	a0,44(s8)
80020b6c:	000427c2 	srl	a0,a0,0x1f
80020b70:	afc4002c 	sw	a0,44(s8)
80020b74:	080082e9 	j	80020ba4 <printnum+0x254>
80020b78:	00000000 	nop
80020b7c:	24040003 	li	a0,3
80020b80:	afc40030 	sw	a0,48(s8)
80020b84:	24040001 	li	a0,1
80020b88:	00002821 	move	a1,zero
80020b8c:	00800013 	mtlo	a0
80020b90:	00a00011 	mthi	a1
80020b94:	00002012 	mflo	a0
80020b98:	00002810 	mfhi	a1
80020b9c:	afc40028 	sw	a0,40(s8)
80020ba0:	afc5002c 	sw	a1,44(s8)
80020ba4:	8fc40030 	lw	a0,48(s8)
80020ba8:	afc40038 	sw	a0,56(s8)
80020bac:	8fc40058 	lw	a0,88(s8)
80020bb0:	00801021 	move	v0,a0
80020bb4:	00001821 	move	v1,zero
80020bb8:	8fc40054 	lw	a0,84(s8)
80020bbc:	0083202b 	sltu	a0,a0,v1
80020bc0:	1480001e 	bnez	a0,80020c3c <printnum+0x2ec>
80020bc4:	00000000 	nop
80020bc8:	8fc50054 	lw	a1,84(s8)
80020bcc:	00602021 	move	a0,v1
80020bd0:	14a40005 	bne	a1,a0,80020be8 <printnum+0x298>
80020bd4:	00000000 	nop
80020bd8:	8fc40050 	lw	a0,80(s8)
80020bdc:	0082102b 	sltu	v0,a0,v0
80020be0:	14400016 	bnez	v0,80020c3c <printnum+0x2ec>
80020be4:	00000000 	nop
80020be8:	8fc2005c 	lw	v0,92(s8)
80020bec:	2442ffff 	addiu	v0,v0,-1
80020bf0:	8fc30058 	lw	v1,88(s8)
80020bf4:	afa30010 	sw	v1,16(sp)
80020bf8:	afa20014 	sw	v0,20(sp)
80020bfc:	8fc20060 	lw	v0,96(s8)
80020c00:	afa20018 	sw	v0,24(sp)
80020c04:	8fc40048 	lw	a0,72(s8)
80020c08:	8fc5004c 	lw	a1,76(s8)
80020c0c:	8fc60028 	lw	a2,40(s8)
80020c10:	8fc7002c 	lw	a3,44(s8)
80020c14:	0c008254 	jal	80020950 <printnum>
80020c18:	00000000 	nop
80020c1c:	08008315 	j	80020c54 <printnum+0x304>
80020c20:	00000000 	nop
80020c24:	8fc20048 	lw	v0,72(s8)
80020c28:	8fc40060 	lw	a0,96(s8)
80020c2c:	8fc5004c 	lw	a1,76(s8)
80020c30:	0040c821 	move	t9,v0
80020c34:	0320f809 	jalr	t9
80020c38:	00000000 	nop
80020c3c:	8fc2005c 	lw	v0,92(s8)
80020c40:	2442ffff 	addiu	v0,v0,-1
80020c44:	afc2005c 	sw	v0,92(s8)
80020c48:	8fc2005c 	lw	v0,92(s8)
80020c4c:	1c40fff5 	bgtz	v0,80020c24 <printnum+0x2d4>
80020c50:	00000000 	nop
80020c54:	3c028002 	lui	v0,0x8002
80020c58:	24434b98 	addiu	v1,v0,19352
80020c5c:	8fc20038 	lw	v0,56(s8)
80020c60:	00621021 	addu	v0,v1,v0
80020c64:	80420000 	lb	v0,0(v0)
80020c68:	00401821 	move	v1,v0
80020c6c:	8fc20048 	lw	v0,72(s8)
80020c70:	00602021 	move	a0,v1
80020c74:	8fc5004c 	lw	a1,76(s8)
80020c78:	0040c821 	move	t9,v0
80020c7c:	0320f809 	jalr	t9
80020c80:	00000000 	nop
80020c84:	03c0e821 	move	sp,s8
80020c88:	8fbf0044 	lw	ra,68(sp)
80020c8c:	8fbe0040 	lw	s8,64(sp)
80020c90:	27bd0048 	addiu	sp,sp,72
80020c94:	03e00008 	jr	ra
80020c98:	00000000 	nop

80020c9c <getuint>:
80020c9c:	27bdfff8 	addiu	sp,sp,-8
80020ca0:	afbe0004 	sw	s8,4(sp)
80020ca4:	03a0f021 	move	s8,sp
80020ca8:	afc40008 	sw	a0,8(s8)
80020cac:	afc5000c 	sw	a1,12(s8)
80020cb0:	8fc4000c 	lw	a0,12(s8)
80020cb4:	28840002 	slti	a0,a0,2
80020cb8:	1480000d 	bnez	a0,80020cf0 <getuint+0x54>
80020cbc:	00000000 	nop
80020cc0:	8fc20008 	lw	v0,8(s8)
80020cc4:	8c420000 	lw	v0,0(v0)
80020cc8:	24430007 	addiu	v1,v0,7
80020ccc:	2402fff8 	li	v0,-8
80020cd0:	00621024 	and	v0,v1,v0
80020cd4:	24440008 	addiu	a0,v0,8
80020cd8:	8fc30008 	lw	v1,8(s8)
80020cdc:	ac640000 	sw	a0,0(v1)
80020ce0:	8c430004 	lw	v1,4(v0)
80020ce4:	8c420000 	lw	v0,0(v0)
80020ce8:	08008351 	j	80020d44 <getuint+0xa8>
80020cec:	00000000 	nop
80020cf0:	8fc4000c 	lw	a0,12(s8)
80020cf4:	1080000b 	beqz	a0,80020d24 <getuint+0x88>
80020cf8:	00000000 	nop
80020cfc:	8fc40008 	lw	a0,8(s8)
80020d00:	8c840000 	lw	a0,0(a0)
80020d04:	24860004 	addiu	a2,a0,4
80020d08:	8fc50008 	lw	a1,8(s8)
80020d0c:	aca60000 	sw	a2,0(a1)
80020d10:	8c840000 	lw	a0,0(a0)
80020d14:	00801021 	move	v0,a0
80020d18:	00001821 	move	v1,zero
80020d1c:	08008351 	j	80020d44 <getuint+0xa8>
80020d20:	00000000 	nop
80020d24:	8fc40008 	lw	a0,8(s8)
80020d28:	8c840000 	lw	a0,0(a0)
80020d2c:	24860004 	addiu	a2,a0,4
80020d30:	8fc50008 	lw	a1,8(s8)
80020d34:	aca60000 	sw	a2,0(a1)
80020d38:	8c840000 	lw	a0,0(a0)
80020d3c:	00801021 	move	v0,a0
80020d40:	00001821 	move	v1,zero
80020d44:	00400013 	mtlo	v0
80020d48:	00600011 	mthi	v1
80020d4c:	00001012 	mflo	v0
80020d50:	00001810 	mfhi	v1
80020d54:	03c0e821 	move	sp,s8
80020d58:	8fbe0004 	lw	s8,4(sp)
80020d5c:	27bd0008 	addiu	sp,sp,8
80020d60:	03e00008 	jr	ra
80020d64:	00000000 	nop

80020d68 <getint>:
80020d68:	27bdfff8 	addiu	sp,sp,-8
80020d6c:	afbe0004 	sw	s8,4(sp)
80020d70:	03a0f021 	move	s8,sp
80020d74:	afc40008 	sw	a0,8(s8)
80020d78:	afc5000c 	sw	a1,12(s8)
80020d7c:	8fc4000c 	lw	a0,12(s8)
80020d80:	28840002 	slti	a0,a0,2
80020d84:	1480000d 	bnez	a0,80020dbc <getint+0x54>
80020d88:	00000000 	nop
80020d8c:	8fc20008 	lw	v0,8(s8)
80020d90:	8c420000 	lw	v0,0(v0)
80020d94:	24430007 	addiu	v1,v0,7
80020d98:	2402fff8 	li	v0,-8
80020d9c:	00621024 	and	v0,v1,v0
80020da0:	24440008 	addiu	a0,v0,8
80020da4:	8fc30008 	lw	v1,8(s8)
80020da8:	ac640000 	sw	a0,0(v1)
80020dac:	8c430004 	lw	v1,4(v0)
80020db0:	8c420000 	lw	v0,0(v0)
80020db4:	08008386 	j	80020e18 <getint+0xb0>
80020db8:	00000000 	nop
80020dbc:	8fc4000c 	lw	a0,12(s8)
80020dc0:	1080000c 	beqz	a0,80020df4 <getint+0x8c>
80020dc4:	00000000 	nop
80020dc8:	8fc40008 	lw	a0,8(s8)
80020dcc:	8c840000 	lw	a0,0(a0)
80020dd0:	24860004 	addiu	a2,a0,4
80020dd4:	8fc50008 	lw	a1,8(s8)
80020dd8:	aca60000 	sw	a2,0(a1)
80020ddc:	8c840000 	lw	a0,0(a0)
80020de0:	00801021 	move	v0,a0
80020de4:	000427c3 	sra	a0,a0,0x1f
80020de8:	00801821 	move	v1,a0
80020dec:	08008386 	j	80020e18 <getint+0xb0>
80020df0:	00000000 	nop
80020df4:	8fc40008 	lw	a0,8(s8)
80020df8:	8c840000 	lw	a0,0(a0)
80020dfc:	24860004 	addiu	a2,a0,4
80020e00:	8fc50008 	lw	a1,8(s8)
80020e04:	aca60000 	sw	a2,0(a1)
80020e08:	8c840000 	lw	a0,0(a0)
80020e0c:	00801021 	move	v0,a0
80020e10:	000427c3 	sra	a0,a0,0x1f
80020e14:	00801821 	move	v1,a0
80020e18:	00400013 	mtlo	v0
80020e1c:	00600011 	mthi	v1
80020e20:	00001012 	mflo	v0
80020e24:	00001810 	mfhi	v1
80020e28:	03c0e821 	move	sp,s8
80020e2c:	8fbe0004 	lw	s8,4(sp)
80020e30:	27bd0008 	addiu	sp,sp,8
80020e34:	03e00008 	jr	ra
80020e38:	00000000 	nop

80020e3c <printfmt>:
80020e3c:	27bdffd8 	addiu	sp,sp,-40
80020e40:	afbf0024 	sw	ra,36(sp)
80020e44:	afbe0020 	sw	s8,32(sp)
80020e48:	03a0f021 	move	s8,sp
80020e4c:	afc40028 	sw	a0,40(s8)
80020e50:	afc5002c 	sw	a1,44(s8)
80020e54:	afc70034 	sw	a3,52(s8)
80020e58:	afc60030 	sw	a2,48(s8)
80020e5c:	27c20034 	addiu	v0,s8,52
80020e60:	afc20018 	sw	v0,24(s8)
80020e64:	8fc20018 	lw	v0,24(s8)
80020e68:	8fc40028 	lw	a0,40(s8)
80020e6c:	8fc5002c 	lw	a1,44(s8)
80020e70:	8fc60030 	lw	a2,48(s8)
80020e74:	00403821 	move	a3,v0
80020e78:	0c0083a6 	jal	80020e98 <vprintfmt>
80020e7c:	00000000 	nop
80020e80:	03c0e821 	move	sp,s8
80020e84:	8fbf0024 	lw	ra,36(sp)
80020e88:	8fbe0020 	lw	s8,32(sp)
80020e8c:	27bd0028 	addiu	sp,sp,40
80020e90:	03e00008 	jr	ra
80020e94:	00000000 	nop

80020e98 <vprintfmt>:
80020e98:	27bdffa8 	addiu	sp,sp,-88
80020e9c:	afbf0054 	sw	ra,84(sp)
80020ea0:	afbe0050 	sw	s8,80(sp)
80020ea4:	afb1004c 	sw	s1,76(sp)
80020ea8:	afb00048 	sw	s0,72(sp)
80020eac:	03a0f021 	move	s8,sp
80020eb0:	afc40058 	sw	a0,88(s8)
80020eb4:	afc5005c 	sw	a1,92(s8)
80020eb8:	afc60060 	sw	a2,96(s8)
80020ebc:	afc70064 	sw	a3,100(s8)
80020ec0:	080083bc 	j	80020ef0 <vprintfmt+0x58>
80020ec4:	00000000 	nop
80020ec8:	16000003 	bnez	s0,80020ed8 <vprintfmt+0x40>
80020ecc:	00000000 	nop
80020ed0:	0800853b 	j	800214ec <vprintfmt+0x654>
80020ed4:	00000000 	nop
80020ed8:	8fc20058 	lw	v0,88(s8)
80020edc:	02002021 	move	a0,s0
80020ee0:	8fc5005c 	lw	a1,92(s8)
80020ee4:	0040c821 	move	t9,v0
80020ee8:	0320f809 	jalr	t9
80020eec:	00000000 	nop
80020ef0:	8fc20060 	lw	v0,96(s8)
80020ef4:	24430001 	addiu	v1,v0,1
80020ef8:	afc30060 	sw	v1,96(s8)
80020efc:	90420000 	lbu	v0,0(v0)
80020f00:	00408021 	move	s0,v0
80020f04:	24020025 	li	v0,37
80020f08:	1602ffef 	bne	s0,v0,80020ec8 <vprintfmt+0x30>
80020f0c:	00000000 	nop
80020f10:	24020020 	li	v0,32
80020f14:	a3c20044 	sb	v0,68(s8)
80020f18:	2402ffff 	li	v0,-1
80020f1c:	afc20038 	sw	v0,56(s8)
80020f20:	8fc20038 	lw	v0,56(s8)
80020f24:	afc20034 	sw	v0,52(s8)
80020f28:	afc00040 	sw	zero,64(s8)
80020f2c:	8fc20040 	lw	v0,64(s8)
80020f30:	afc2003c 	sw	v0,60(s8)
80020f34:	8fc20060 	lw	v0,96(s8)
80020f38:	24430001 	addiu	v1,v0,1
80020f3c:	afc30060 	sw	v1,96(s8)
80020f40:	90420000 	lbu	v0,0(v0)
80020f44:	00408021 	move	s0,v0
80020f48:	2602ffdd 	addiu	v0,s0,-35
80020f4c:	2c430056 	sltiu	v1,v0,86
80020f50:	1060014e 	beqz	v1,8002148c <vprintfmt+0x5f4>
80020f54:	00000000 	nop
80020f58:	00021880 	sll	v1,v0,0x2
80020f5c:	3c028002 	lui	v0,0x8002
80020f60:	24424bc4 	addiu	v0,v0,19396
80020f64:	00621021 	addu	v0,v1,v0
80020f68:	8c420000 	lw	v0,0(v0)
80020f6c:	00400008 	jr	v0
80020f70:	00000000 	nop
80020f74:	2402002d 	li	v0,45
80020f78:	a3c20044 	sb	v0,68(s8)
80020f7c:	080083cd 	j	80020f34 <vprintfmt+0x9c>
80020f80:	00000000 	nop
80020f84:	24020030 	li	v0,48
80020f88:	a3c20044 	sb	v0,68(s8)
80020f8c:	080083cd 	j	80020f34 <vprintfmt+0x9c>
80020f90:	00000000 	nop
80020f94:	afc00038 	sw	zero,56(s8)
80020f98:	8fc20038 	lw	v0,56(s8)
80020f9c:	00021040 	sll	v0,v0,0x1
80020fa0:	00021880 	sll	v1,v0,0x2
80020fa4:	00431021 	addu	v0,v0,v1
80020fa8:	00501021 	addu	v0,v0,s0
80020fac:	2442ffd0 	addiu	v0,v0,-48
80020fb0:	afc20038 	sw	v0,56(s8)
80020fb4:	8fc20060 	lw	v0,96(s8)
80020fb8:	80420000 	lb	v0,0(v0)
80020fbc:	00408021 	move	s0,v0
80020fc0:	2a020030 	slti	v0,s0,48
80020fc4:	14400009 	bnez	v0,80020fec <vprintfmt+0x154>
80020fc8:	00000000 	nop
80020fcc:	2a02003a 	slti	v0,s0,58
80020fd0:	10400006 	beqz	v0,80020fec <vprintfmt+0x154>
80020fd4:	00000000 	nop
80020fd8:	8fc20060 	lw	v0,96(s8)
80020fdc:	24420001 	addiu	v0,v0,1
80020fe0:	afc20060 	sw	v0,96(s8)
80020fe4:	080083e6 	j	80020f98 <vprintfmt+0x100>
80020fe8:	00000000 	nop
80020fec:	08008410 	j	80021040 <vprintfmt+0x1a8>
80020ff0:	00000000 	nop
80020ff4:	8fc20064 	lw	v0,100(s8)
80020ff8:	24430004 	addiu	v1,v0,4
80020ffc:	afc30064 	sw	v1,100(s8)
80021000:	8c420000 	lw	v0,0(v0)
80021004:	afc20038 	sw	v0,56(s8)
80021008:	08008410 	j	80021040 <vprintfmt+0x1a8>
8002100c:	00000000 	nop
80021010:	8fc20034 	lw	v0,52(s8)
80021014:	04410004 	bgez	v0,80021028 <vprintfmt+0x190>
80021018:	00000000 	nop
8002101c:	afc00034 	sw	zero,52(s8)
80021020:	080083cd 	j	80020f34 <vprintfmt+0x9c>
80021024:	00000000 	nop
80021028:	080083cd 	j	80020f34 <vprintfmt+0x9c>
8002102c:	00000000 	nop
80021030:	24020001 	li	v0,1
80021034:	afc20040 	sw	v0,64(s8)
80021038:	080083cd 	j	80020f34 <vprintfmt+0x9c>
8002103c:	00000000 	nop
80021040:	8fc20034 	lw	v0,52(s8)
80021044:	04410007 	bgez	v0,80021064 <vprintfmt+0x1cc>
80021048:	00000000 	nop
8002104c:	8fc20038 	lw	v0,56(s8)
80021050:	afc20034 	sw	v0,52(s8)
80021054:	2402ffff 	li	v0,-1
80021058:	afc20038 	sw	v0,56(s8)
8002105c:	080083cd 	j	80020f34 <vprintfmt+0x9c>
80021060:	00000000 	nop
80021064:	080083cd 	j	80020f34 <vprintfmt+0x9c>
80021068:	00000000 	nop
8002106c:	8fc2003c 	lw	v0,60(s8)
80021070:	24420001 	addiu	v0,v0,1
80021074:	afc2003c 	sw	v0,60(s8)
80021078:	080083cd 	j	80020f34 <vprintfmt+0x9c>
8002107c:	00000000 	nop
80021080:	8fc20064 	lw	v0,100(s8)
80021084:	24430004 	addiu	v1,v0,4
80021088:	afc30064 	sw	v1,100(s8)
8002108c:	8c430000 	lw	v1,0(v0)
80021090:	8fc20058 	lw	v0,88(s8)
80021094:	00602021 	move	a0,v1
80021098:	8fc5005c 	lw	a1,92(s8)
8002109c:	0040c821 	move	t9,v0
800210a0:	0320f809 	jalr	t9
800210a4:	00000000 	nop
800210a8:	08008538 	j	800214e0 <vprintfmt+0x648>
800210ac:	00000000 	nop
800210b0:	8fc20064 	lw	v0,100(s8)
800210b4:	24430004 	addiu	v1,v0,4
800210b8:	afc30064 	sw	v1,100(s8)
800210bc:	8c5f0000 	lw	ra,0(v0)
800210c0:	07e10002 	bgez	ra,800210cc <vprintfmt+0x234>
800210c4:	00000000 	nop
800210c8:	001ff823 	negu	ra,ra
800210cc:	2be20019 	slti	v0,ra,25
800210d0:	10400008 	beqz	v0,800210f4 <vprintfmt+0x25c>
800210d4:	00000000 	nop
800210d8:	3c028002 	lui	v0,0x8002
800210dc:	001f1880 	sll	v1,ra,0x2
800210e0:	24424b34 	addiu	v0,v0,19252
800210e4:	00621021 	addu	v0,v1,v0
800210e8:	8c510000 	lw	s1,0(v0)
800210ec:	1620000a 	bnez	s1,80021118 <vprintfmt+0x280>
800210f0:	00000000 	nop
800210f4:	8fc40058 	lw	a0,88(s8)
800210f8:	8fc5005c 	lw	a1,92(s8)
800210fc:	3c028002 	lui	v0,0x8002
80021100:	24464bac 	addiu	a2,v0,19372
80021104:	03e03821 	move	a3,ra
80021108:	0c00838f 	jal	80020e3c <printfmt>
8002110c:	00000000 	nop
80021110:	08008538 	j	800214e0 <vprintfmt+0x648>
80021114:	00000000 	nop
80021118:	8fc40058 	lw	a0,88(s8)
8002111c:	8fc5005c 	lw	a1,92(s8)
80021120:	3c028002 	lui	v0,0x8002
80021124:	24464bb8 	addiu	a2,v0,19384
80021128:	02203821 	move	a3,s1
8002112c:	0c00838f 	jal	80020e3c <printfmt>
80021130:	00000000 	nop
80021134:	08008538 	j	800214e0 <vprintfmt+0x648>
80021138:	00000000 	nop
8002113c:	8fc20064 	lw	v0,100(s8)
80021140:	24430004 	addiu	v1,v0,4
80021144:	afc30064 	sw	v1,100(s8)
80021148:	8c510000 	lw	s1,0(v0)
8002114c:	16200003 	bnez	s1,8002115c <vprintfmt+0x2c4>
80021150:	00000000 	nop
80021154:	3c028002 	lui	v0,0x8002
80021158:	24514bbc 	addiu	s1,v0,19388
8002115c:	8fc20034 	lw	v0,52(s8)
80021160:	1840001c 	blez	v0,800211d4 <vprintfmt+0x33c>
80021164:	00000000 	nop
80021168:	83c30044 	lb	v1,68(s8)
8002116c:	2402002d 	li	v0,45
80021170:	10620018 	beq	v1,v0,800211d4 <vprintfmt+0x33c>
80021174:	00000000 	nop
80021178:	8fd00034 	lw	s0,52(s8)
8002117c:	8fc20038 	lw	v0,56(s8)
80021180:	02202021 	move	a0,s1
80021184:	00402821 	move	a1,v0
80021188:	0c0085ea 	jal	800217a8 <strnlen>
8002118c:	00000000 	nop
80021190:	02021023 	subu	v0,s0,v0
80021194:	afc20034 	sw	v0,52(s8)
80021198:	08008472 	j	800211c8 <vprintfmt+0x330>
8002119c:	00000000 	nop
800211a0:	83c30044 	lb	v1,68(s8)
800211a4:	8fc20058 	lw	v0,88(s8)
800211a8:	00602021 	move	a0,v1
800211ac:	8fc5005c 	lw	a1,92(s8)
800211b0:	0040c821 	move	t9,v0
800211b4:	0320f809 	jalr	t9
800211b8:	00000000 	nop
800211bc:	8fc20034 	lw	v0,52(s8)
800211c0:	2442ffff 	addiu	v0,v0,-1
800211c4:	afc20034 	sw	v0,52(s8)
800211c8:	8fc20034 	lw	v0,52(s8)
800211cc:	1c40fff4 	bgtz	v0,800211a0 <vprintfmt+0x308>
800211d0:	00000000 	nop
800211d4:	08008491 	j	80021244 <vprintfmt+0x3ac>
800211d8:	00000000 	nop
800211dc:	8fc20040 	lw	v0,64(s8)
800211e0:	1040000f 	beqz	v0,80021220 <vprintfmt+0x388>
800211e4:	00000000 	nop
800211e8:	2a020020 	slti	v0,s0,32
800211ec:	14400004 	bnez	v0,80021200 <vprintfmt+0x368>
800211f0:	00000000 	nop
800211f4:	2a02007f 	slti	v0,s0,127
800211f8:	14400009 	bnez	v0,80021220 <vprintfmt+0x388>
800211fc:	00000000 	nop
80021200:	8fc20058 	lw	v0,88(s8)
80021204:	2404003f 	li	a0,63
80021208:	8fc5005c 	lw	a1,92(s8)
8002120c:	0040c821 	move	t9,v0
80021210:	0320f809 	jalr	t9
80021214:	00000000 	nop
80021218:	0800848e 	j	80021238 <vprintfmt+0x3a0>
8002121c:	00000000 	nop
80021220:	8fc20058 	lw	v0,88(s8)
80021224:	02002021 	move	a0,s0
80021228:	8fc5005c 	lw	a1,92(s8)
8002122c:	0040c821 	move	t9,v0
80021230:	0320f809 	jalr	t9
80021234:	00000000 	nop
80021238:	8fc20034 	lw	v0,52(s8)
8002123c:	2442ffff 	addiu	v0,v0,-1
80021240:	afc20034 	sw	v0,52(s8)
80021244:	02201021 	move	v0,s1
80021248:	24510001 	addiu	s1,v0,1
8002124c:	80420000 	lb	v0,0(v0)
80021250:	00408021 	move	s0,v0
80021254:	1200000a 	beqz	s0,80021280 <vprintfmt+0x3e8>
80021258:	00000000 	nop
8002125c:	8fc20038 	lw	v0,56(s8)
80021260:	0440ffde 	bltz	v0,800211dc <vprintfmt+0x344>
80021264:	00000000 	nop
80021268:	8fc20038 	lw	v0,56(s8)
8002126c:	2442ffff 	addiu	v0,v0,-1
80021270:	afc20038 	sw	v0,56(s8)
80021274:	8fc20038 	lw	v0,56(s8)
80021278:	0441ffd8 	bgez	v0,800211dc <vprintfmt+0x344>
8002127c:	00000000 	nop
80021280:	080084ab 	j	800212ac <vprintfmt+0x414>
80021284:	00000000 	nop
80021288:	8fc20058 	lw	v0,88(s8)
8002128c:	24040020 	li	a0,32
80021290:	8fc5005c 	lw	a1,92(s8)
80021294:	0040c821 	move	t9,v0
80021298:	0320f809 	jalr	t9
8002129c:	00000000 	nop
800212a0:	8fc20034 	lw	v0,52(s8)
800212a4:	2442ffff 	addiu	v0,v0,-1
800212a8:	afc20034 	sw	v0,52(s8)
800212ac:	8fc20034 	lw	v0,52(s8)
800212b0:	1c40fff5 	bgtz	v0,80021288 <vprintfmt+0x3f0>
800212b4:	00000000 	nop
800212b8:	08008538 	j	800214e0 <vprintfmt+0x648>
800212bc:	00000000 	nop
800212c0:	27c20064 	addiu	v0,s8,100
800212c4:	00402021 	move	a0,v0
800212c8:	8fc5003c 	lw	a1,60(s8)
800212cc:	0c00835a 	jal	80020d68 <getint>
800212d0:	00000000 	nop
800212d4:	00400013 	mtlo	v0
800212d8:	00600011 	mthi	v1
800212dc:	00001012 	mflo	v0
800212e0:	00001810 	mfhi	v1
800212e4:	afc20028 	sw	v0,40(s8)
800212e8:	afc3002c 	sw	v1,44(s8)
800212ec:	8fc20028 	lw	v0,40(s8)
800212f0:	8fc3002c 	lw	v1,44(s8)
800212f4:	04610016 	bgez	v1,80021350 <vprintfmt+0x4b8>
800212f8:	00000000 	nop
800212fc:	8fc20058 	lw	v0,88(s8)
80021300:	2404002d 	li	a0,45
80021304:	8fc5005c 	lw	a1,92(s8)
80021308:	0040c821 	move	t9,v0
8002130c:	0320f809 	jalr	t9
80021310:	00000000 	nop
80021314:	8fc60028 	lw	a2,40(s8)
80021318:	8fc7002c 	lw	a3,44(s8)
8002131c:	00002021 	move	a0,zero
80021320:	00002821 	move	a1,zero
80021324:	00861023 	subu	v0,a0,a2
80021328:	0082402b 	sltu	t0,a0,v0
8002132c:	00a71823 	subu	v1,a1,a3
80021330:	00682023 	subu	a0,v1,t0
80021334:	00801821 	move	v1,a0
80021338:	00400013 	mtlo	v0
8002133c:	00600011 	mthi	v1
80021340:	00001012 	mflo	v0
80021344:	00001810 	mfhi	v1
80021348:	afc20028 	sw	v0,40(s8)
8002134c:	afc3002c 	sw	v1,44(s8)
80021350:	2402000a 	li	v0,10
80021354:	afc20030 	sw	v0,48(s8)
80021358:	0800850d 	j	80021434 <vprintfmt+0x59c>
8002135c:	00000000 	nop
80021360:	27c20064 	addiu	v0,s8,100
80021364:	00402021 	move	a0,v0
80021368:	8fc5003c 	lw	a1,60(s8)
8002136c:	0c008327 	jal	80020c9c <getuint>
80021370:	00000000 	nop
80021374:	afc20028 	sw	v0,40(s8)
80021378:	afc3002c 	sw	v1,44(s8)
8002137c:	2402000a 	li	v0,10
80021380:	afc20030 	sw	v0,48(s8)
80021384:	0800850d 	j	80021434 <vprintfmt+0x59c>
80021388:	00000000 	nop
8002138c:	27c20064 	addiu	v0,s8,100
80021390:	00402021 	move	a0,v0
80021394:	8fc5003c 	lw	a1,60(s8)
80021398:	0c008327 	jal	80020c9c <getuint>
8002139c:	00000000 	nop
800213a0:	afc20028 	sw	v0,40(s8)
800213a4:	afc3002c 	sw	v1,44(s8)
800213a8:	24020008 	li	v0,8
800213ac:	afc20030 	sw	v0,48(s8)
800213b0:	0800850d 	j	80021434 <vprintfmt+0x59c>
800213b4:	00000000 	nop
800213b8:	8fc20058 	lw	v0,88(s8)
800213bc:	24040030 	li	a0,48
800213c0:	8fc5005c 	lw	a1,92(s8)
800213c4:	0040c821 	move	t9,v0
800213c8:	0320f809 	jalr	t9
800213cc:	00000000 	nop
800213d0:	8fc20058 	lw	v0,88(s8)
800213d4:	24040078 	li	a0,120
800213d8:	8fc5005c 	lw	a1,92(s8)
800213dc:	0040c821 	move	t9,v0
800213e0:	0320f809 	jalr	t9
800213e4:	00000000 	nop
800213e8:	8fc20064 	lw	v0,100(s8)
800213ec:	24430004 	addiu	v1,v0,4
800213f0:	afc30064 	sw	v1,100(s8)
800213f4:	8c420000 	lw	v0,0(v0)
800213f8:	afc20028 	sw	v0,40(s8)
800213fc:	afc0002c 	sw	zero,44(s8)
80021400:	24020010 	li	v0,16
80021404:	afc20030 	sw	v0,48(s8)
80021408:	0800850d 	j	80021434 <vprintfmt+0x59c>
8002140c:	00000000 	nop
80021410:	27c20064 	addiu	v0,s8,100
80021414:	00402021 	move	a0,v0
80021418:	8fc5003c 	lw	a1,60(s8)
8002141c:	0c008327 	jal	80020c9c <getuint>
80021420:	00000000 	nop
80021424:	afc20028 	sw	v0,40(s8)
80021428:	afc3002c 	sw	v1,44(s8)
8002142c:	24020010 	li	v0,16
80021430:	afc20030 	sw	v0,48(s8)
80021434:	8fc30030 	lw	v1,48(s8)
80021438:	83c20044 	lb	v0,68(s8)
8002143c:	afa30010 	sw	v1,16(sp)
80021440:	8fc30034 	lw	v1,52(s8)
80021444:	afa30014 	sw	v1,20(sp)
80021448:	afa20018 	sw	v0,24(sp)
8002144c:	8fc40058 	lw	a0,88(s8)
80021450:	8fc5005c 	lw	a1,92(s8)
80021454:	8fc60028 	lw	a2,40(s8)
80021458:	8fc7002c 	lw	a3,44(s8)
8002145c:	0c008254 	jal	80020950 <printnum>
80021460:	00000000 	nop
80021464:	08008538 	j	800214e0 <vprintfmt+0x648>
80021468:	00000000 	nop
8002146c:	8fc20058 	lw	v0,88(s8)
80021470:	02002021 	move	a0,s0
80021474:	8fc5005c 	lw	a1,92(s8)
80021478:	0040c821 	move	t9,v0
8002147c:	0320f809 	jalr	t9
80021480:	00000000 	nop
80021484:	08008538 	j	800214e0 <vprintfmt+0x648>
80021488:	00000000 	nop
8002148c:	8fc20058 	lw	v0,88(s8)
80021490:	24040025 	li	a0,37
80021494:	8fc5005c 	lw	a1,92(s8)
80021498:	0040c821 	move	t9,v0
8002149c:	0320f809 	jalr	t9
800214a0:	00000000 	nop
800214a4:	8fc20060 	lw	v0,96(s8)
800214a8:	2442ffff 	addiu	v0,v0,-1
800214ac:	afc20060 	sw	v0,96(s8)
800214b0:	08008531 	j	800214c4 <vprintfmt+0x62c>
800214b4:	00000000 	nop
800214b8:	8fc20060 	lw	v0,96(s8)
800214bc:	2442ffff 	addiu	v0,v0,-1
800214c0:	afc20060 	sw	v0,96(s8)
800214c4:	8fc20060 	lw	v0,96(s8)
800214c8:	2442ffff 	addiu	v0,v0,-1
800214cc:	80430000 	lb	v1,0(v0)
800214d0:	24020025 	li	v0,37
800214d4:	1462fff8 	bne	v1,v0,800214b8 <vprintfmt+0x620>
800214d8:	00000000 	nop
	...
800214e4:	080083bc 	j	80020ef0 <vprintfmt+0x58>
800214e8:	00000000 	nop
800214ec:	03c0e821 	move	sp,s8
800214f0:	8fbf0054 	lw	ra,84(sp)
800214f4:	8fbe0050 	lw	s8,80(sp)
800214f8:	8fb1004c 	lw	s1,76(sp)
800214fc:	8fb00048 	lw	s0,72(sp)
80021500:	27bd0058 	addiu	sp,sp,88
80021504:	03e00008 	jr	ra
80021508:	00000000 	nop

8002150c <sprintputch>:
8002150c:	27bdfff8 	addiu	sp,sp,-8
80021510:	afbe0004 	sw	s8,4(sp)
80021514:	03a0f021 	move	s8,sp
80021518:	afc40008 	sw	a0,8(s8)
8002151c:	afc5000c 	sw	a1,12(s8)
80021520:	8fc2000c 	lw	v0,12(s8)
80021524:	8c420008 	lw	v0,8(v0)
80021528:	24430001 	addiu	v1,v0,1
8002152c:	8fc2000c 	lw	v0,12(s8)
80021530:	ac430008 	sw	v1,8(v0)
80021534:	8fc2000c 	lw	v0,12(s8)
80021538:	8c430000 	lw	v1,0(v0)
8002153c:	8fc2000c 	lw	v0,12(s8)
80021540:	8c420004 	lw	v0,4(v0)
80021544:	0062102b 	sltu	v0,v1,v0
80021548:	1040000a 	beqz	v0,80021574 <sprintputch+0x68>
8002154c:	00000000 	nop
80021550:	8fc2000c 	lw	v0,12(s8)
80021554:	8c420000 	lw	v0,0(v0)
80021558:	24440001 	addiu	a0,v0,1
8002155c:	8fc3000c 	lw	v1,12(s8)
80021560:	ac640000 	sw	a0,0(v1)
80021564:	8fc30008 	lw	v1,8(s8)
80021568:	00031e00 	sll	v1,v1,0x18
8002156c:	00031e03 	sra	v1,v1,0x18
80021570:	a0430000 	sb	v1,0(v0)
80021574:	03c0e821 	move	sp,s8
80021578:	8fbe0004 	lw	s8,4(sp)
8002157c:	27bd0008 	addiu	sp,sp,8
80021580:	03e00008 	jr	ra
80021584:	00000000 	nop

80021588 <snprintf>:
80021588:	27bdffd8 	addiu	sp,sp,-40
8002158c:	afbf0024 	sw	ra,36(sp)
80021590:	afbe0020 	sw	s8,32(sp)
80021594:	03a0f021 	move	s8,sp
80021598:	afc40028 	sw	a0,40(s8)
8002159c:	afc5002c 	sw	a1,44(s8)
800215a0:	afc70034 	sw	a3,52(s8)
800215a4:	afc60030 	sw	a2,48(s8)
800215a8:	27c20034 	addiu	v0,s8,52
800215ac:	afc2001c 	sw	v0,28(s8)
800215b0:	8fc2001c 	lw	v0,28(s8)
800215b4:	8fc40028 	lw	a0,40(s8)
800215b8:	8fc5002c 	lw	a1,44(s8)
800215bc:	8fc60030 	lw	a2,48(s8)
800215c0:	00403821 	move	a3,v0
800215c4:	0c00857b 	jal	800215ec <vsnprintf>
800215c8:	00000000 	nop
800215cc:	afc20018 	sw	v0,24(s8)
800215d0:	8fc20018 	lw	v0,24(s8)
800215d4:	03c0e821 	move	sp,s8
800215d8:	8fbf0024 	lw	ra,36(sp)
800215dc:	8fbe0020 	lw	s8,32(sp)
800215e0:	27bd0028 	addiu	sp,sp,40
800215e4:	03e00008 	jr	ra
800215e8:	00000000 	nop

800215ec <vsnprintf>:
800215ec:	27bdffd0 	addiu	sp,sp,-48
800215f0:	afbf002c 	sw	ra,44(sp)
800215f4:	afbe0028 	sw	s8,40(sp)
800215f8:	03a0f021 	move	s8,sp
800215fc:	afc40030 	sw	a0,48(s8)
80021600:	afc50034 	sw	a1,52(s8)
80021604:	afc60038 	sw	a2,56(s8)
80021608:	afc7003c 	sw	a3,60(s8)
8002160c:	8fc20030 	lw	v0,48(s8)
80021610:	afc20018 	sw	v0,24(s8)
80021614:	8fc20034 	lw	v0,52(s8)
80021618:	2442ffff 	addiu	v0,v0,-1
8002161c:	8fc30030 	lw	v1,48(s8)
80021620:	00621021 	addu	v0,v1,v0
80021624:	afc2001c 	sw	v0,28(s8)
80021628:	afc00020 	sw	zero,32(s8)
8002162c:	8fc20030 	lw	v0,48(s8)
80021630:	10400006 	beqz	v0,8002164c <vsnprintf+0x60>
80021634:	00000000 	nop
80021638:	8fc30018 	lw	v1,24(s8)
8002163c:	8fc2001c 	lw	v0,28(s8)
80021640:	0043102b 	sltu	v0,v0,v1
80021644:	10400004 	beqz	v0,80021658 <vsnprintf+0x6c>
80021648:	00000000 	nop
8002164c:	2402fffd 	li	v0,-3
80021650:	080085a1 	j	80021684 <vsnprintf+0x98>
80021654:	00000000 	nop
80021658:	3c028002 	lui	v0,0x8002
8002165c:	2444150c 	addiu	a0,v0,5388
80021660:	27c20018 	addiu	v0,s8,24
80021664:	00402821 	move	a1,v0
80021668:	8fc60038 	lw	a2,56(s8)
8002166c:	8fc7003c 	lw	a3,60(s8)
80021670:	0c0083a6 	jal	80020e98 <vprintfmt>
80021674:	00000000 	nop
80021678:	8fc20018 	lw	v0,24(s8)
8002167c:	a0400000 	sb	zero,0(v0)
80021680:	8fc20020 	lw	v0,32(s8)
80021684:	03c0e821 	move	sp,s8
80021688:	8fbf002c 	lw	ra,44(sp)
8002168c:	8fbe0028 	lw	s8,40(sp)
80021690:	27bd0030 	addiu	sp,sp,48
80021694:	03e00008 	jr	ra
80021698:	00000000 	nop
8002169c:	00000000 	nop

800216a0 <rand>:
800216a0:	27bdfff8 	addiu	sp,sp,-8
800216a4:	afbe0004 	sw	s8,4(sp)
800216a8:	03a0f021 	move	s8,sp
800216ac:	3c048036 	lui	a0,0x8036
800216b0:	8c85f9d4 	lw	a1,-1580(a0)
800216b4:	8c84f9d0 	lw	a0,-1584(a0)
800216b8:	00802821 	move	a1,a0
800216bc:	3c0441c6 	lui	a0,0x41c6
800216c0:	34844e6d 	ori	a0,a0,0x4e6d
800216c4:	00a40018 	mult	a1,a0
800216c8:	00001012 	mflo	v0
800216cc:	24443039 	addiu	a0,v0,12345
800216d0:	00801021 	move	v0,a0
800216d4:	00001821 	move	v1,zero
800216d8:	3c048036 	lui	a0,0x8036
800216dc:	ac82f9d0 	sw	v0,-1584(a0)
800216e0:	ac83f9d4 	sw	v1,-1580(a0)
800216e4:	3c028036 	lui	v0,0x8036
800216e8:	8c43f9d4 	lw	v1,-1580(v0)
800216ec:	8c42f9d0 	lw	v0,-1584(v0)
800216f0:	00401821 	move	v1,v0
800216f4:	3c027fff 	lui	v0,0x7fff
800216f8:	3442ffff 	ori	v0,v0,0xffff
800216fc:	00621024 	and	v0,v1,v0
80021700:	03c0e821 	move	sp,s8
80021704:	8fbe0004 	lw	s8,4(sp)
80021708:	27bd0008 	addiu	sp,sp,8
8002170c:	03e00008 	jr	ra
80021710:	00000000 	nop

80021714 <srand>:
80021714:	27bdfff8 	addiu	sp,sp,-8
80021718:	afbe0004 	sw	s8,4(sp)
8002171c:	03a0f021 	move	s8,sp
80021720:	afc40008 	sw	a0,8(s8)
80021724:	8fc40008 	lw	a0,8(s8)
80021728:	00801021 	move	v0,a0
8002172c:	00001821 	move	v1,zero
80021730:	3c048036 	lui	a0,0x8036
80021734:	ac82f9d0 	sw	v0,-1584(a0)
80021738:	ac83f9d4 	sw	v1,-1580(a0)
8002173c:	03c0e821 	move	sp,s8
80021740:	8fbe0004 	lw	s8,4(sp)
80021744:	27bd0008 	addiu	sp,sp,8
80021748:	03e00008 	jr	ra
8002174c:	00000000 	nop

80021750 <strlen>:
80021750:	27bdffe8 	addiu	sp,sp,-24
80021754:	afbe0014 	sw	s8,20(sp)
80021758:	03a0f021 	move	s8,sp
8002175c:	afc40018 	sw	a0,24(s8)
80021760:	afc00008 	sw	zero,8(s8)
80021764:	080085de 	j	80021778 <strlen+0x28>
80021768:	00000000 	nop
8002176c:	8fc20008 	lw	v0,8(s8)
80021770:	24420001 	addiu	v0,v0,1
80021774:	afc20008 	sw	v0,8(s8)
80021778:	8fc20018 	lw	v0,24(s8)
8002177c:	24430001 	addiu	v1,v0,1
80021780:	afc30018 	sw	v1,24(s8)
80021784:	80420000 	lb	v0,0(v0)
80021788:	1440fff8 	bnez	v0,8002176c <strlen+0x1c>
8002178c:	00000000 	nop
80021790:	8fc20008 	lw	v0,8(s8)
80021794:	03c0e821 	move	sp,s8
80021798:	8fbe0014 	lw	s8,20(sp)
8002179c:	27bd0018 	addiu	sp,sp,24
800217a0:	03e00008 	jr	ra
800217a4:	00000000 	nop

800217a8 <strnlen>:
800217a8:	27bdffe8 	addiu	sp,sp,-24
800217ac:	afbe0014 	sw	s8,20(sp)
800217b0:	03a0f021 	move	s8,sp
800217b4:	afc40018 	sw	a0,24(s8)
800217b8:	afc5001c 	sw	a1,28(s8)
800217bc:	afc00008 	sw	zero,8(s8)
800217c0:	080085f5 	j	800217d4 <strnlen+0x2c>
800217c4:	00000000 	nop
800217c8:	8fc20008 	lw	v0,8(s8)
800217cc:	24420001 	addiu	v0,v0,1
800217d0:	afc20008 	sw	v0,8(s8)
800217d4:	8fc30008 	lw	v1,8(s8)
800217d8:	8fc2001c 	lw	v0,28(s8)
800217dc:	0062102b 	sltu	v0,v1,v0
800217e0:	10400007 	beqz	v0,80021800 <strnlen+0x58>
800217e4:	00000000 	nop
800217e8:	8fc20018 	lw	v0,24(s8)
800217ec:	24430001 	addiu	v1,v0,1
800217f0:	afc30018 	sw	v1,24(s8)
800217f4:	80420000 	lb	v0,0(v0)
800217f8:	1440fff3 	bnez	v0,800217c8 <strnlen+0x20>
800217fc:	00000000 	nop
80021800:	8fc20008 	lw	v0,8(s8)
80021804:	03c0e821 	move	sp,s8
80021808:	8fbe0014 	lw	s8,20(sp)
8002180c:	27bd0018 	addiu	sp,sp,24
80021810:	03e00008 	jr	ra
80021814:	00000000 	nop

80021818 <strcpy>:
80021818:	27bdffe8 	addiu	sp,sp,-24
8002181c:	afbe0014 	sw	s8,20(sp)
80021820:	03a0f021 	move	s8,sp
80021824:	afc40018 	sw	a0,24(s8)
80021828:	afc5001c 	sw	a1,28(s8)
8002182c:	8fc20018 	lw	v0,24(s8)
80021830:	afc20008 	sw	v0,8(s8)
80021834:	00000000 	nop
80021838:	8fc20008 	lw	v0,8(s8)
8002183c:	24430001 	addiu	v1,v0,1
80021840:	afc30008 	sw	v1,8(s8)
80021844:	8fc3001c 	lw	v1,28(s8)
80021848:	24640001 	addiu	a0,v1,1
8002184c:	afc4001c 	sw	a0,28(s8)
80021850:	80630000 	lb	v1,0(v1)
80021854:	a0430000 	sb	v1,0(v0)
80021858:	80420000 	lb	v0,0(v0)
8002185c:	1440fff6 	bnez	v0,80021838 <strcpy+0x20>
80021860:	00000000 	nop
80021864:	8fc20018 	lw	v0,24(s8)
80021868:	03c0e821 	move	sp,s8
8002186c:	8fbe0014 	lw	s8,20(sp)
80021870:	27bd0018 	addiu	sp,sp,24
80021874:	03e00008 	jr	ra
80021878:	00000000 	nop

8002187c <strncpy>:
8002187c:	27bdffe8 	addiu	sp,sp,-24
80021880:	afbe0014 	sw	s8,20(sp)
80021884:	03a0f021 	move	s8,sp
80021888:	afc40018 	sw	a0,24(s8)
8002188c:	afc5001c 	sw	a1,28(s8)
80021890:	afc60020 	sw	a2,32(s8)
80021894:	8fc20018 	lw	v0,24(s8)
80021898:	afc20008 	sw	v0,8(s8)
8002189c:	0800863a 	j	800218e8 <strncpy+0x6c>
800218a0:	00000000 	nop
800218a4:	8fc2001c 	lw	v0,28(s8)
800218a8:	80430000 	lb	v1,0(v0)
800218ac:	8fc20008 	lw	v0,8(s8)
800218b0:	a0430000 	sb	v1,0(v0)
800218b4:	8fc20008 	lw	v0,8(s8)
800218b8:	80420000 	lb	v0,0(v0)
800218bc:	10400004 	beqz	v0,800218d0 <strncpy+0x54>
800218c0:	00000000 	nop
800218c4:	8fc2001c 	lw	v0,28(s8)
800218c8:	24420001 	addiu	v0,v0,1
800218cc:	afc2001c 	sw	v0,28(s8)
800218d0:	8fc20008 	lw	v0,8(s8)
800218d4:	24420001 	addiu	v0,v0,1
800218d8:	afc20008 	sw	v0,8(s8)
800218dc:	8fc20020 	lw	v0,32(s8)
800218e0:	2442ffff 	addiu	v0,v0,-1
800218e4:	afc20020 	sw	v0,32(s8)
800218e8:	8fc20020 	lw	v0,32(s8)
800218ec:	1440ffed 	bnez	v0,800218a4 <strncpy+0x28>
800218f0:	00000000 	nop
800218f4:	8fc20018 	lw	v0,24(s8)
800218f8:	03c0e821 	move	sp,s8
800218fc:	8fbe0014 	lw	s8,20(sp)
80021900:	27bd0018 	addiu	sp,sp,24
80021904:	03e00008 	jr	ra
80021908:	00000000 	nop

8002190c <strcmp>:
8002190c:	27bdfff8 	addiu	sp,sp,-8
80021910:	afbe0004 	sw	s8,4(sp)
80021914:	03a0f021 	move	s8,sp
80021918:	afc40008 	sw	a0,8(s8)
8002191c:	afc5000c 	sw	a1,12(s8)
80021920:	08008650 	j	80021940 <strcmp+0x34>
80021924:	00000000 	nop
80021928:	8fc20008 	lw	v0,8(s8)
8002192c:	24420001 	addiu	v0,v0,1
80021930:	afc20008 	sw	v0,8(s8)
80021934:	8fc2000c 	lw	v0,12(s8)
80021938:	24420001 	addiu	v0,v0,1
8002193c:	afc2000c 	sw	v0,12(s8)
80021940:	8fc20008 	lw	v0,8(s8)
80021944:	80420000 	lb	v0,0(v0)
80021948:	10400007 	beqz	v0,80021968 <strcmp+0x5c>
8002194c:	00000000 	nop
80021950:	8fc20008 	lw	v0,8(s8)
80021954:	80430000 	lb	v1,0(v0)
80021958:	8fc2000c 	lw	v0,12(s8)
8002195c:	80420000 	lb	v0,0(v0)
80021960:	1062fff1 	beq	v1,v0,80021928 <strcmp+0x1c>
80021964:	00000000 	nop
80021968:	8fc20008 	lw	v0,8(s8)
8002196c:	80420000 	lb	v0,0(v0)
80021970:	304200ff 	andi	v0,v0,0xff
80021974:	00401821 	move	v1,v0
80021978:	8fc2000c 	lw	v0,12(s8)
8002197c:	80420000 	lb	v0,0(v0)
80021980:	304200ff 	andi	v0,v0,0xff
80021984:	00621023 	subu	v0,v1,v0
80021988:	03c0e821 	move	sp,s8
8002198c:	8fbe0004 	lw	s8,4(sp)
80021990:	27bd0008 	addiu	sp,sp,8
80021994:	03e00008 	jr	ra
80021998:	00000000 	nop

8002199c <strncmp>:
8002199c:	27bdfff8 	addiu	sp,sp,-8
800219a0:	afbe0004 	sw	s8,4(sp)
800219a4:	03a0f021 	move	s8,sp
800219a8:	afc40008 	sw	a0,8(s8)
800219ac:	afc5000c 	sw	a1,12(s8)
800219b0:	afc60010 	sw	a2,16(s8)
800219b4:	08008678 	j	800219e0 <strncmp+0x44>
800219b8:	00000000 	nop
800219bc:	8fc20010 	lw	v0,16(s8)
800219c0:	2442ffff 	addiu	v0,v0,-1
800219c4:	afc20010 	sw	v0,16(s8)
800219c8:	8fc20008 	lw	v0,8(s8)
800219cc:	24420001 	addiu	v0,v0,1
800219d0:	afc20008 	sw	v0,8(s8)
800219d4:	8fc2000c 	lw	v0,12(s8)
800219d8:	24420001 	addiu	v0,v0,1
800219dc:	afc2000c 	sw	v0,12(s8)
800219e0:	8fc20010 	lw	v0,16(s8)
800219e4:	1040000b 	beqz	v0,80021a14 <strncmp+0x78>
800219e8:	00000000 	nop
800219ec:	8fc20008 	lw	v0,8(s8)
800219f0:	80420000 	lb	v0,0(v0)
800219f4:	10400007 	beqz	v0,80021a14 <strncmp+0x78>
800219f8:	00000000 	nop
800219fc:	8fc20008 	lw	v0,8(s8)
80021a00:	80430000 	lb	v1,0(v0)
80021a04:	8fc2000c 	lw	v0,12(s8)
80021a08:	80420000 	lb	v0,0(v0)
80021a0c:	1062ffeb 	beq	v1,v0,800219bc <strncmp+0x20>
80021a10:	00000000 	nop
80021a14:	8fc20010 	lw	v0,16(s8)
80021a18:	1040000b 	beqz	v0,80021a48 <strncmp+0xac>
80021a1c:	00000000 	nop
80021a20:	8fc20008 	lw	v0,8(s8)
80021a24:	80420000 	lb	v0,0(v0)
80021a28:	304200ff 	andi	v0,v0,0xff
80021a2c:	00401821 	move	v1,v0
80021a30:	8fc2000c 	lw	v0,12(s8)
80021a34:	80420000 	lb	v0,0(v0)
80021a38:	304200ff 	andi	v0,v0,0xff
80021a3c:	00621023 	subu	v0,v1,v0
80021a40:	08008693 	j	80021a4c <strncmp+0xb0>
80021a44:	00000000 	nop
80021a48:	00001021 	move	v0,zero
80021a4c:	03c0e821 	move	sp,s8
80021a50:	8fbe0004 	lw	s8,4(sp)
80021a54:	27bd0008 	addiu	sp,sp,8
80021a58:	03e00008 	jr	ra
80021a5c:	00000000 	nop

80021a60 <strchr>:
80021a60:	27bdfff8 	addiu	sp,sp,-8
80021a64:	afbe0004 	sw	s8,4(sp)
80021a68:	03a0f021 	move	s8,sp
80021a6c:	afc40008 	sw	a0,8(s8)
80021a70:	00a01021 	move	v0,a1
80021a74:	a3c2000c 	sb	v0,12(s8)
80021a78:	080086ab 	j	80021aac <strchr+0x4c>
80021a7c:	00000000 	nop
80021a80:	8fc20008 	lw	v0,8(s8)
80021a84:	80420000 	lb	v0,0(v0)
80021a88:	83c3000c 	lb	v1,12(s8)
80021a8c:	14620004 	bne	v1,v0,80021aa0 <strchr+0x40>
80021a90:	00000000 	nop
80021a94:	8fc20008 	lw	v0,8(s8)
80021a98:	080086b0 	j	80021ac0 <strchr+0x60>
80021a9c:	00000000 	nop
80021aa0:	8fc20008 	lw	v0,8(s8)
80021aa4:	24420001 	addiu	v0,v0,1
80021aa8:	afc20008 	sw	v0,8(s8)
80021aac:	8fc20008 	lw	v0,8(s8)
80021ab0:	80420000 	lb	v0,0(v0)
80021ab4:	1440fff2 	bnez	v0,80021a80 <strchr+0x20>
80021ab8:	00000000 	nop
80021abc:	00001021 	move	v0,zero
80021ac0:	03c0e821 	move	sp,s8
80021ac4:	8fbe0004 	lw	s8,4(sp)
80021ac8:	27bd0008 	addiu	sp,sp,8
80021acc:	03e00008 	jr	ra
80021ad0:	00000000 	nop

80021ad4 <strfind>:
80021ad4:	27bdfff8 	addiu	sp,sp,-8
80021ad8:	afbe0004 	sw	s8,4(sp)
80021adc:	03a0f021 	move	s8,sp
80021ae0:	afc40008 	sw	a0,8(s8)
80021ae4:	00a01021 	move	v0,a1
80021ae8:	a3c2000c 	sb	v0,12(s8)
80021aec:	080086c7 	j	80021b1c <strfind+0x48>
80021af0:	00000000 	nop
80021af4:	8fc20008 	lw	v0,8(s8)
80021af8:	80420000 	lb	v0,0(v0)
80021afc:	83c3000c 	lb	v1,12(s8)
80021b00:	14620003 	bne	v1,v0,80021b10 <strfind+0x3c>
80021b04:	00000000 	nop
80021b08:	080086cb 	j	80021b2c <strfind+0x58>
80021b0c:	00000000 	nop
80021b10:	8fc20008 	lw	v0,8(s8)
80021b14:	24420001 	addiu	v0,v0,1
80021b18:	afc20008 	sw	v0,8(s8)
80021b1c:	8fc20008 	lw	v0,8(s8)
80021b20:	80420000 	lb	v0,0(v0)
80021b24:	1440fff3 	bnez	v0,80021af4 <strfind+0x20>
80021b28:	00000000 	nop
80021b2c:	8fc20008 	lw	v0,8(s8)
80021b30:	03c0e821 	move	sp,s8
80021b34:	8fbe0004 	lw	s8,4(sp)
80021b38:	27bd0008 	addiu	sp,sp,8
80021b3c:	03e00008 	jr	ra
80021b40:	00000000 	nop

80021b44 <strtol>:
80021b44:	27bdffe0 	addiu	sp,sp,-32
80021b48:	afbe001c 	sw	s8,28(sp)
80021b4c:	03a0f021 	move	s8,sp
80021b50:	afc40020 	sw	a0,32(s8)
80021b54:	afc50024 	sw	a1,36(s8)
80021b58:	afc60028 	sw	a2,40(s8)
80021b5c:	afc00008 	sw	zero,8(s8)
80021b60:	afc0000c 	sw	zero,12(s8)
80021b64:	080086de 	j	80021b78 <strtol+0x34>
80021b68:	00000000 	nop
80021b6c:	8fc20020 	lw	v0,32(s8)
80021b70:	24420001 	addiu	v0,v0,1
80021b74:	afc20020 	sw	v0,32(s8)
80021b78:	8fc20020 	lw	v0,32(s8)
80021b7c:	80430000 	lb	v1,0(v0)
80021b80:	24020020 	li	v0,32
80021b84:	1062fff9 	beq	v1,v0,80021b6c <strtol+0x28>
80021b88:	00000000 	nop
80021b8c:	8fc20020 	lw	v0,32(s8)
80021b90:	80430000 	lb	v1,0(v0)
80021b94:	24020009 	li	v0,9
80021b98:	1062fff4 	beq	v1,v0,80021b6c <strtol+0x28>
80021b9c:	00000000 	nop
80021ba0:	8fc20020 	lw	v0,32(s8)
80021ba4:	80430000 	lb	v1,0(v0)
80021ba8:	2402002b 	li	v0,43
80021bac:	14620006 	bne	v1,v0,80021bc8 <strtol+0x84>
80021bb0:	00000000 	nop
80021bb4:	8fc20020 	lw	v0,32(s8)
80021bb8:	24420001 	addiu	v0,v0,1
80021bbc:	afc20020 	sw	v0,32(s8)
80021bc0:	080086fc 	j	80021bf0 <strtol+0xac>
80021bc4:	00000000 	nop
80021bc8:	8fc20020 	lw	v0,32(s8)
80021bcc:	80430000 	lb	v1,0(v0)
80021bd0:	2402002d 	li	v0,45
80021bd4:	14620006 	bne	v1,v0,80021bf0 <strtol+0xac>
80021bd8:	00000000 	nop
80021bdc:	8fc20020 	lw	v0,32(s8)
80021be0:	24420001 	addiu	v0,v0,1
80021be4:	afc20020 	sw	v0,32(s8)
80021be8:	24020001 	li	v0,1
80021bec:	afc20008 	sw	v0,8(s8)
80021bf0:	8fc20028 	lw	v0,40(s8)
80021bf4:	10400005 	beqz	v0,80021c0c <strtol+0xc8>
80021bf8:	00000000 	nop
80021bfc:	8fc30028 	lw	v1,40(s8)
80021c00:	24020010 	li	v0,16
80021c04:	14620013 	bne	v1,v0,80021c54 <strtol+0x110>
80021c08:	00000000 	nop
80021c0c:	8fc20020 	lw	v0,32(s8)
80021c10:	80430000 	lb	v1,0(v0)
80021c14:	24020030 	li	v0,48
80021c18:	1462000e 	bne	v1,v0,80021c54 <strtol+0x110>
80021c1c:	00000000 	nop
80021c20:	8fc20020 	lw	v0,32(s8)
80021c24:	24420001 	addiu	v0,v0,1
80021c28:	80430000 	lb	v1,0(v0)
80021c2c:	24020078 	li	v0,120
80021c30:	14620008 	bne	v1,v0,80021c54 <strtol+0x110>
80021c34:	00000000 	nop
80021c38:	8fc20020 	lw	v0,32(s8)
80021c3c:	24420002 	addiu	v0,v0,2
80021c40:	afc20020 	sw	v0,32(s8)
80021c44:	24020010 	li	v0,16
80021c48:	afc20028 	sw	v0,40(s8)
80021c4c:	08008729 	j	80021ca4 <strtol+0x160>
80021c50:	00000000 	nop
80021c54:	8fc20028 	lw	v0,40(s8)
80021c58:	1440000d 	bnez	v0,80021c90 <strtol+0x14c>
80021c5c:	00000000 	nop
80021c60:	8fc20020 	lw	v0,32(s8)
80021c64:	80430000 	lb	v1,0(v0)
80021c68:	24020030 	li	v0,48
80021c6c:	14620008 	bne	v1,v0,80021c90 <strtol+0x14c>
80021c70:	00000000 	nop
80021c74:	8fc20020 	lw	v0,32(s8)
80021c78:	24420001 	addiu	v0,v0,1
80021c7c:	afc20020 	sw	v0,32(s8)
80021c80:	24020008 	li	v0,8
80021c84:	afc20028 	sw	v0,40(s8)
80021c88:	08008729 	j	80021ca4 <strtol+0x160>
80021c8c:	00000000 	nop
80021c90:	8fc20028 	lw	v0,40(s8)
80021c94:	14400003 	bnez	v0,80021ca4 <strtol+0x160>
80021c98:	00000000 	nop
80021c9c:	2402000a 	li	v0,10
80021ca0:	afc20028 	sw	v0,40(s8)
80021ca4:	8fc20020 	lw	v0,32(s8)
80021ca8:	80420000 	lb	v0,0(v0)
80021cac:	28420030 	slti	v0,v0,48
80021cb0:	1440000c 	bnez	v0,80021ce4 <strtol+0x1a0>
80021cb4:	00000000 	nop
80021cb8:	8fc20020 	lw	v0,32(s8)
80021cbc:	80420000 	lb	v0,0(v0)
80021cc0:	2842003a 	slti	v0,v0,58
80021cc4:	10400007 	beqz	v0,80021ce4 <strtol+0x1a0>
80021cc8:	00000000 	nop
80021ccc:	8fc20020 	lw	v0,32(s8)
80021cd0:	80420000 	lb	v0,0(v0)
80021cd4:	2442ffd0 	addiu	v0,v0,-48
80021cd8:	afc20010 	sw	v0,16(s8)
80021cdc:	08008757 	j	80021d5c <strtol+0x218>
80021ce0:	00000000 	nop
80021ce4:	8fc20020 	lw	v0,32(s8)
80021ce8:	80420000 	lb	v0,0(v0)
80021cec:	28420061 	slti	v0,v0,97
80021cf0:	1440000c 	bnez	v0,80021d24 <strtol+0x1e0>
80021cf4:	00000000 	nop
80021cf8:	8fc20020 	lw	v0,32(s8)
80021cfc:	80420000 	lb	v0,0(v0)
80021d00:	2842007b 	slti	v0,v0,123
80021d04:	10400007 	beqz	v0,80021d24 <strtol+0x1e0>
80021d08:	00000000 	nop
80021d0c:	8fc20020 	lw	v0,32(s8)
80021d10:	80420000 	lb	v0,0(v0)
80021d14:	2442ffa9 	addiu	v0,v0,-87
80021d18:	afc20010 	sw	v0,16(s8)
80021d1c:	08008757 	j	80021d5c <strtol+0x218>
80021d20:	00000000 	nop
80021d24:	8fc20020 	lw	v0,32(s8)
80021d28:	80420000 	lb	v0,0(v0)
80021d2c:	28420041 	slti	v0,v0,65
80021d30:	1440001d 	bnez	v0,80021da8 <strtol+0x264>
80021d34:	00000000 	nop
80021d38:	8fc20020 	lw	v0,32(s8)
80021d3c:	80420000 	lb	v0,0(v0)
80021d40:	2842005b 	slti	v0,v0,91
80021d44:	10400018 	beqz	v0,80021da8 <strtol+0x264>
80021d48:	00000000 	nop
80021d4c:	8fc20020 	lw	v0,32(s8)
80021d50:	80420000 	lb	v0,0(v0)
80021d54:	2442ffc9 	addiu	v0,v0,-55
80021d58:	afc20010 	sw	v0,16(s8)
80021d5c:	8fc30010 	lw	v1,16(s8)
80021d60:	8fc20028 	lw	v0,40(s8)
80021d64:	0062102a 	slt	v0,v1,v0
80021d68:	14400003 	bnez	v0,80021d78 <strtol+0x234>
80021d6c:	00000000 	nop
80021d70:	0800876a 	j	80021da8 <strtol+0x264>
80021d74:	00000000 	nop
80021d78:	8fc20020 	lw	v0,32(s8)
80021d7c:	24420001 	addiu	v0,v0,1
80021d80:	afc20020 	sw	v0,32(s8)
80021d84:	8fc3000c 	lw	v1,12(s8)
80021d88:	8fc20028 	lw	v0,40(s8)
80021d8c:	00620018 	mult	v1,v0
80021d90:	8fc20010 	lw	v0,16(s8)
80021d94:	00001812 	mflo	v1
80021d98:	00621021 	addu	v0,v1,v0
80021d9c:	afc2000c 	sw	v0,12(s8)
80021da0:	08008729 	j	80021ca4 <strtol+0x160>
80021da4:	00000000 	nop
80021da8:	8fc20024 	lw	v0,36(s8)
80021dac:	10400004 	beqz	v0,80021dc0 <strtol+0x27c>
80021db0:	00000000 	nop
80021db4:	8fc20024 	lw	v0,36(s8)
80021db8:	8fc30020 	lw	v1,32(s8)
80021dbc:	ac430000 	sw	v1,0(v0)
80021dc0:	8fc20008 	lw	v0,8(s8)
80021dc4:	10400005 	beqz	v0,80021ddc <strtol+0x298>
80021dc8:	00000000 	nop
80021dcc:	8fc2000c 	lw	v0,12(s8)
80021dd0:	00021023 	negu	v0,v0
80021dd4:	08008778 	j	80021de0 <strtol+0x29c>
80021dd8:	00000000 	nop
80021ddc:	8fc2000c 	lw	v0,12(s8)
80021de0:	03c0e821 	move	sp,s8
80021de4:	8fbe001c 	lw	s8,28(sp)
80021de8:	27bd0020 	addiu	sp,sp,32
80021dec:	03e00008 	jr	ra
80021df0:	00000000 	nop

80021df4 <memset>:
80021df4:	27bdffe8 	addiu	sp,sp,-24
80021df8:	afbe0014 	sw	s8,20(sp)
80021dfc:	03a0f021 	move	s8,sp
80021e00:	afc40018 	sw	a0,24(s8)
80021e04:	00a01021 	move	v0,a1
80021e08:	afc60020 	sw	a2,32(s8)
80021e0c:	a3c2001c 	sb	v0,28(s8)
80021e10:	8fc20018 	lw	v0,24(s8)
80021e14:	afc20008 	sw	v0,8(s8)
80021e18:	0800878d 	j	80021e34 <memset+0x40>
80021e1c:	00000000 	nop
80021e20:	8fc20008 	lw	v0,8(s8)
80021e24:	24430001 	addiu	v1,v0,1
80021e28:	afc30008 	sw	v1,8(s8)
80021e2c:	93c3001c 	lbu	v1,28(s8)
80021e30:	a0430000 	sb	v1,0(v0)
80021e34:	8fc20020 	lw	v0,32(s8)
80021e38:	2443ffff 	addiu	v1,v0,-1
80021e3c:	afc30020 	sw	v1,32(s8)
80021e40:	1440fff7 	bnez	v0,80021e20 <memset+0x2c>
80021e44:	00000000 	nop
80021e48:	8fc20018 	lw	v0,24(s8)
80021e4c:	03c0e821 	move	sp,s8
80021e50:	8fbe0014 	lw	s8,20(sp)
80021e54:	27bd0018 	addiu	sp,sp,24
80021e58:	03e00008 	jr	ra
80021e5c:	00000000 	nop

80021e60 <memmove>:
80021e60:	27bdffe8 	addiu	sp,sp,-24
80021e64:	afbe0014 	sw	s8,20(sp)
80021e68:	03a0f021 	move	s8,sp
80021e6c:	afc40018 	sw	a0,24(s8)
80021e70:	afc5001c 	sw	a1,28(s8)
80021e74:	afc60020 	sw	a2,32(s8)
80021e78:	8fc2001c 	lw	v0,28(s8)
80021e7c:	afc20008 	sw	v0,8(s8)
80021e80:	8fc20018 	lw	v0,24(s8)
80021e84:	afc2000c 	sw	v0,12(s8)
80021e88:	8fc30008 	lw	v1,8(s8)
80021e8c:	8fc2000c 	lw	v0,12(s8)
80021e90:	0062102b 	sltu	v0,v1,v0
80021e94:	10400023 	beqz	v0,80021f24 <memmove+0xc4>
80021e98:	00000000 	nop
80021e9c:	8fc30008 	lw	v1,8(s8)
80021ea0:	8fc20020 	lw	v0,32(s8)
80021ea4:	00621821 	addu	v1,v1,v0
80021ea8:	8fc2000c 	lw	v0,12(s8)
80021eac:	0043102b 	sltu	v0,v0,v1
80021eb0:	1040001c 	beqz	v0,80021f24 <memmove+0xc4>
80021eb4:	00000000 	nop
80021eb8:	8fc30008 	lw	v1,8(s8)
80021ebc:	8fc20020 	lw	v0,32(s8)
80021ec0:	00621021 	addu	v0,v1,v0
80021ec4:	afc20008 	sw	v0,8(s8)
80021ec8:	8fc3000c 	lw	v1,12(s8)
80021ecc:	8fc20020 	lw	v0,32(s8)
80021ed0:	00621021 	addu	v0,v1,v0
80021ed4:	afc2000c 	sw	v0,12(s8)
80021ed8:	080087c2 	j	80021f08 <memmove+0xa8>
80021edc:	00000000 	nop
80021ee0:	8fc2000c 	lw	v0,12(s8)
80021ee4:	2442ffff 	addiu	v0,v0,-1
80021ee8:	afc2000c 	sw	v0,12(s8)
80021eec:	8fc20008 	lw	v0,8(s8)
80021ef0:	2442ffff 	addiu	v0,v0,-1
80021ef4:	afc20008 	sw	v0,8(s8)
80021ef8:	8fc20008 	lw	v0,8(s8)
80021efc:	80430000 	lb	v1,0(v0)
80021f00:	8fc2000c 	lw	v0,12(s8)
80021f04:	a0430000 	sb	v1,0(v0)
80021f08:	8fc20020 	lw	v0,32(s8)
80021f0c:	2443ffff 	addiu	v1,v0,-1
80021f10:	afc30020 	sw	v1,32(s8)
80021f14:	1440fff2 	bnez	v0,80021ee0 <memmove+0x80>
80021f18:	00000000 	nop
80021f1c:	080087d8 	j	80021f60 <memmove+0x100>
80021f20:	00000000 	nop
80021f24:	080087d3 	j	80021f4c <memmove+0xec>
80021f28:	00000000 	nop
80021f2c:	8fc2000c 	lw	v0,12(s8)
80021f30:	24430001 	addiu	v1,v0,1
80021f34:	afc3000c 	sw	v1,12(s8)
80021f38:	8fc30008 	lw	v1,8(s8)
80021f3c:	24640001 	addiu	a0,v1,1
80021f40:	afc40008 	sw	a0,8(s8)
80021f44:	80630000 	lb	v1,0(v1)
80021f48:	a0430000 	sb	v1,0(v0)
80021f4c:	8fc20020 	lw	v0,32(s8)
80021f50:	2443ffff 	addiu	v1,v0,-1
80021f54:	afc30020 	sw	v1,32(s8)
80021f58:	1440fff4 	bnez	v0,80021f2c <memmove+0xcc>
80021f5c:	00000000 	nop
80021f60:	8fc20018 	lw	v0,24(s8)
80021f64:	03c0e821 	move	sp,s8
80021f68:	8fbe0014 	lw	s8,20(sp)
80021f6c:	27bd0018 	addiu	sp,sp,24
80021f70:	03e00008 	jr	ra
80021f74:	00000000 	nop

80021f78 <memcpy>:
80021f78:	27bdffe8 	addiu	sp,sp,-24
80021f7c:	afbe0014 	sw	s8,20(sp)
80021f80:	03a0f021 	move	s8,sp
80021f84:	afc40018 	sw	a0,24(s8)
80021f88:	afc5001c 	sw	a1,28(s8)
80021f8c:	afc60020 	sw	a2,32(s8)
80021f90:	8fc2001c 	lw	v0,28(s8)
80021f94:	afc20008 	sw	v0,8(s8)
80021f98:	8fc20018 	lw	v0,24(s8)
80021f9c:	afc2000c 	sw	v0,12(s8)
80021fa0:	080087f2 	j	80021fc8 <memcpy+0x50>
80021fa4:	00000000 	nop
80021fa8:	8fc2000c 	lw	v0,12(s8)
80021fac:	24430001 	addiu	v1,v0,1
80021fb0:	afc3000c 	sw	v1,12(s8)
80021fb4:	8fc30008 	lw	v1,8(s8)
80021fb8:	24640001 	addiu	a0,v1,1
80021fbc:	afc40008 	sw	a0,8(s8)
80021fc0:	80630000 	lb	v1,0(v1)
80021fc4:	a0430000 	sb	v1,0(v0)
80021fc8:	8fc20020 	lw	v0,32(s8)
80021fcc:	2443ffff 	addiu	v1,v0,-1
80021fd0:	afc30020 	sw	v1,32(s8)
80021fd4:	1440fff4 	bnez	v0,80021fa8 <memcpy+0x30>
80021fd8:	00000000 	nop
80021fdc:	8fc20018 	lw	v0,24(s8)
80021fe0:	03c0e821 	move	sp,s8
80021fe4:	8fbe0014 	lw	s8,20(sp)
80021fe8:	27bd0018 	addiu	sp,sp,24
80021fec:	03e00008 	jr	ra
80021ff0:	00000000 	nop

80021ff4 <memcmp>:
80021ff4:	27bdffe8 	addiu	sp,sp,-24
80021ff8:	afbe0014 	sw	s8,20(sp)
80021ffc:	03a0f021 	move	s8,sp
80022000:	afc40018 	sw	a0,24(s8)
80022004:	afc5001c 	sw	a1,28(s8)
80022008:	afc60020 	sw	a2,32(s8)
8002200c:	8fc20018 	lw	v0,24(s8)
80022010:	afc20008 	sw	v0,8(s8)
80022014:	8fc2001c 	lw	v0,28(s8)
80022018:	afc2000c 	sw	v0,12(s8)
8002201c:	0800881f 	j	8002207c <memcmp+0x88>
80022020:	00000000 	nop
80022024:	8fc20008 	lw	v0,8(s8)
80022028:	80430000 	lb	v1,0(v0)
8002202c:	8fc2000c 	lw	v0,12(s8)
80022030:	80420000 	lb	v0,0(v0)
80022034:	1062000b 	beq	v1,v0,80022064 <memcmp+0x70>
80022038:	00000000 	nop
8002203c:	8fc20008 	lw	v0,8(s8)
80022040:	80420000 	lb	v0,0(v0)
80022044:	304200ff 	andi	v0,v0,0xff
80022048:	00401821 	move	v1,v0
8002204c:	8fc2000c 	lw	v0,12(s8)
80022050:	80420000 	lb	v0,0(v0)
80022054:	304200ff 	andi	v0,v0,0xff
80022058:	00621023 	subu	v0,v1,v0
8002205c:	08008825 	j	80022094 <memcmp+0xa0>
80022060:	00000000 	nop
80022064:	8fc20008 	lw	v0,8(s8)
80022068:	24420001 	addiu	v0,v0,1
8002206c:	afc20008 	sw	v0,8(s8)
80022070:	8fc2000c 	lw	v0,12(s8)
80022074:	24420001 	addiu	v0,v0,1
80022078:	afc2000c 	sw	v0,12(s8)
8002207c:	8fc20020 	lw	v0,32(s8)
80022080:	2443ffff 	addiu	v1,v0,-1
80022084:	afc30020 	sw	v1,32(s8)
80022088:	1440ffe6 	bnez	v0,80022024 <memcmp+0x30>
8002208c:	00000000 	nop
80022090:	00001021 	move	v0,zero
80022094:	03c0e821 	move	sp,s8
80022098:	8fbe0014 	lw	s8,20(sp)
8002209c:	27bd0018 	addiu	sp,sp,24
800220a0:	03e00008 	jr	ra
800220a4:	00000000 	nop
	...
